# Linker from Snapdragon LLVM ARM Compiler Version 4.0.3
# Linker based on LLVM version: 4.0
# Notable linker command/script options:
# CPU Architecture Version: 
# Target triple environment for the link: gnueabi
# Maximum GP size: 8
# Link type: Static
# ABI Page Size: 0x4
# CommandLine : D:\4.0.3\bin\ld.qcld.exe -X --eh-frame-hdr -m armelf_linux_eabi -dynamic-linker /lib/ld-musl-arm.so.1 -o target\gizwits_app.elf -lc++ -mno-unaligned-access -entry=0x43000000 G:\TEMP\GoKit4_Demo\objs\txm_module_preamble_llvm.o -Tsdk\ld\quectel_dam_demo.ld -Map -Wl -gc-sections G:\TEMP\GoKit4_Demo\objs\common.o G:\TEMP\GoKit4_Demo\objs\dataPointTools.o G:\TEMP\GoKit4_Demo\objs\gizwits_product.o G:\TEMP\GoKit4_Demo\objs\gizwits_protocol.o G:\TEMP\GoKit4_Demo\objs\gpio.o G:\TEMP\GoKit4_Demo\objs\main.o G:\TEMP\GoKit4_Demo\objs\ringbuffer.o G:\TEMP\GoKit4_Demo\objs\task.o G:\TEMP\GoKit4_Demo\objs\timer.o G:\TEMP\GoKit4_Demo\objs\txm_module_preamble_llvm.o G:\TEMP\GoKit4_Demo\objs\uart.o G:\TEMP\GoKit4_Demo\gagent\libgagent.a sdk\libs\diag_dam_lib.lib sdk\libs\qapi_psm_lib.lib sdk\libs\timer_dam_lib.lib sdk\libs\txm_lib.lib -LD:\4.0.3\armv7m-none-eabi\libc\lib -LD:\4.0.3\armv7m-none-eabi\lib --start-group -lunwind -lc++ -lc++abi --end-group -LD:\4.0.3\lib\clang\4.0.3\lib\baremetal --start-group -lc -lclang_rt.builtins-armv7m --end-group -lm -lc 
Archive member included because of file (symbol)
G:\TEMP\GoKit4_Demo\gagent\libgagent.a(gagentThread.o)
		G:\TEMP\GoKit4_Demo\objs\txm_module_preamble_llvm.o (sensor_dam_app_start)
G:\TEMP\GoKit4_Demo\gagent\libgagent.a(iofdev.o)
		G:\TEMP\GoKit4_Demo\gagent\libgagent.a(gagentThread.o) (dev_free_heap_size)
G:\TEMP\GoKit4_Demo\gagent\libgagent.a(iofipc.o)
		G:\TEMP\GoKit4_Demo\gagent\libgagent.a(gagentThread.o) (devUnLock)
G:\TEMP\GoKit4_Demo\gagent\libgagent.a(iofpthread.o)
		G:\TEMP\GoKit4_Demo\gagent\libgagent.a(gagentThread.o) (iofPthreadCreate)
G:\TEMP\GoKit4_Demo\gagent\libgagent.a(iofstring.o)
		G:\TEMP\GoKit4_Demo\gagent\libgagent.a(iofipc.o) (devMalloc)
G:\TEMP\GoKit4_Demo\gagent\libgagent.a(local.o)
		G:\TEMP\GoKit4_Demo\objs\gizwits_protocol.o (GAgentEnableBind)
G:\TEMP\GoKit4_Demo\gagent\libgagent.a(localcomm.o)
		G:\TEMP\GoKit4_Demo\gagent\libgagent.a(local.o) (gatEnableBindStart)
G:\TEMP\GoKit4_Demo\gagent\libgagent.a(localio.o)
		G:\TEMP\GoKit4_Demo\gagent\libgagent.a(local.o) (gatLocalioInit)
G:\TEMP\GoKit4_Demo\gagent\libgagent.a(localprotocol.o)
		G:\TEMP\GoKit4_Demo\gagent\libgagent.a(localio.o) (localExtractPacket)
G:\TEMP\GoKit4_Demo\gagent\libgagent.a(nwk_manage.o)
		G:\TEMP\GoKit4_Demo\gagent\libgagent.a(local.o) (gatNwkevtCbRegister)
G:\TEMP\GoKit4_Demo\gagent\libgagent.a(productinfo.o)
		G:\TEMP\GoKit4_Demo\gagent\libgagent.a(local.o) (gatCreatNewPassCode)
G:\TEMP\GoKit4_Demo\gagent\libgagent.a(qlog.o)
		G:\TEMP\GoKit4_Demo\gagent\libgagent.a(gagentThread.o) (qc_dbg_uart_init)
G:\TEMP\GoKit4_Demo\gagent\libgagent.a(semaph.o)
		G:\TEMP\GoKit4_Demo\gagent\libgagent.a(gagentThread.o) (iofSemInit)
G:\TEMP\GoKit4_Demo\gagent\libgagent.a(simulatorcomm.o)
		G:\TEMP\GoKit4_Demo\objs\gizwits_protocol.o (gagentUploadData)
G:\TEMP\GoKit4_Demo\gagent\libgagent.a(tcp.o)
		G:\TEMP\GoKit4_Demo\gagent\libgagent.a(iofpthread.o) (gatTcpDataSendHandle)
G:\TEMP\GoKit4_Demo\gagent\libgagent.a(timer_subsystem.o)
		G:\TEMP\GoKit4_Demo\gagent\libgagent.a(local.o) (gatTimerAdd)
G:\TEMP\GoKit4_Demo\gagent\libgagent.a(aes.o)
		G:\TEMP\GoKit4_Demo\gagent\libgagent.a(localcomm.o) (aesECB128Encrypt)
G:\TEMP\GoKit4_Demo\gagent\libgagent.a(aesdata.o)
		G:\TEMP\GoKit4_Demo\gagent\libgagent.a(aes.o) (invSboxAssign)
G:\TEMP\GoKit4_Demo\gagent\libgagent.a(authorization.o)
		G:\TEMP\GoKit4_Demo\gagent\libgagent.a(local.o) (gatAuthInit)
G:\TEMP\GoKit4_Demo\gagent\libgagent.a(dp.o)
		G:\TEMP\GoKit4_Demo\gagent\libgagent.a(localcomm.o) (dpTrans)
G:\TEMP\GoKit4_Demo\gagent\libgagent.a(env.o)
		G:\TEMP\GoKit4_Demo\gagent\libgagent.a(productinfo.o) (gatEnvRead)
G:\TEMP\GoKit4_Demo\gagent\libgagent.a(gagent.o)
		G:\TEMP\GoKit4_Demo\gagent\libgagent.a(localcomm.o) (gatCleanConfigData)
G:\TEMP\GoKit4_Demo\gagent\libgagent.a(gatlist.o)
		G:\TEMP\GoKit4_Demo\gagent\libgagent.a(timer_subsystem.o) (gatListAdd)
G:\TEMP\GoKit4_Demo\gagent\libgagent.a(gatm2m.o)
		G:\TEMP\GoKit4_Demo\gagent\libgagent.a(gagent.o) (gatM2MInit)
G:\TEMP\GoKit4_Demo\gagent\libgagent.a(gatnet.o)
		G:\TEMP\GoKit4_Demo\gagent\libgagent.a(localcomm.o) (gatEnterTestMode)
G:\TEMP\GoKit4_Demo\gagent\libgagent.a(gatutilcode.o)
		G:\TEMP\GoKit4_Demo\gagent\libgagent.a(local.o) (encryptDisplay)
G:\TEMP\GoKit4_Demo\gagent\libgagent.a(gdns.o)
		G:\TEMP\GoKit4_Demo\gagent\libgagent.a(gagent.o) (gatDnsTask)
G:\TEMP\GoKit4_Demo\gagent\libgagent.a(gserver.o)
		G:\TEMP\GoKit4_Demo\gagent\libgagent.a(gagent.o) (gatGServerInit)
G:\TEMP\GoKit4_Demo\gagent\libgagent.a(httpgat.o)
		G:\TEMP\GoKit4_Demo\gagent\libgagent.a(gagent.o) (gatHttpInit)
G:\TEMP\GoKit4_Demo\gagent\libgagent.a(ioffile.o)
		G:\TEMP\GoKit4_Demo\gagent\libgagent.a(env.o) (iofFileClose)
G:\TEMP\GoKit4_Demo\gagent\libgagent.a(iofnet.o)
		G:\TEMP\GoKit4_Demo\gagent\libgagent.a(localcomm.o) (gatIofNetGetRssi)
G:\TEMP\GoKit4_Demo\gagent\libgagent.a(iofserial.o)
		G:\TEMP\GoKit4_Demo\gagent\libgagent.a(localio.o) (iofSerialInit)
G:\TEMP\GoKit4_Demo\gagent\libgagent.a(iofsocket.o)
		G:\TEMP\GoKit4_Demo\gagent\libgagent.a(tcp.o) (gatIofSelect)
G:\TEMP\GoKit4_Demo\gagent\libgagent.a(ioftime.o)
		G:\TEMP\GoKit4_Demo\gagent\libgagent.a(productinfo.o) (getDevTime_MS)
G:\TEMP\GoKit4_Demo\gagent\libgagent.a(lanvirtual.o)
		G:\TEMP\GoKit4_Demo\gagent\libgagent.a(simulatorcomm.o) (gatLanLoginClientNumGet)
G:\TEMP\GoKit4_Demo\gagent\libgagent.a(mqttgat.o)
		G:\TEMP\GoKit4_Demo\gagent\libgagent.a(gatm2m.o) (gatCleanMqttCacheBuf)
G:\TEMP\GoKit4_Demo\gagent\libgagent.a(mqttlib.o)
		G:\TEMP\GoKit4_Demo\gagent\libgagent.a(mqttgat.o) (mqtt_connect)
G:\TEMP\GoKit4_Demo\gagent\libgagent.a(otawan.o)
		G:\TEMP\GoKit4_Demo\gagent\libgagent.a(gagent.o) (gatOTAEventHandle)
G:\TEMP\GoKit4_Demo\gagent\libgagent.a(cmdtable.o)
		G:\TEMP\GoKit4_Demo\gagent\libgagent.a(dp.o) (protCmdTab)
G:\TEMP\GoKit4_Demo\gagent\libgagent.a(gagent_md5.o)
		G:\TEMP\GoKit4_Demo\gagent\libgagent.a(gserver.o) (GAgent_MD5Final)
G:\TEMP\GoKit4_Demo\gagent\libgagent.a(simulator.o)
		G:\TEMP\GoKit4_Demo\gagent\libgagent.a(cmdtable.o) (onSimulatorLoginCb)
sdk\libs\timer_dam_lib.lib(qapi_timer_user.o)
		G:\TEMP\GoKit4_Demo\objs\timer.o (qapi_Timer_Def)
sdk\libs\txm_lib.lib(txm_module_thread_shell_entry.o)
		G:\TEMP\GoKit4_Demo\objs\gizwits_protocol.o (_txm_module_kernel_call_dispatcher)
sdk\libs\txm_lib.lib(txm_module_callback_request_thread_entry.o)
		G:\TEMP\GoKit4_Demo\objs\txm_module_preamble_llvm.o (_txm_module_callback_request_thread_entry)
sdk\libs\txm_lib.lib(txm_module_system_call11.o)
		G:\TEMP\GoKit4_Demo\objs\gizwits_protocol.o (_txm_module_system_call11)
sdk\libs\txm_lib.lib(txm_module_system_call12.o)
		G:\TEMP\GoKit4_Demo\objs\gizwits_product.o (_txm_module_system_call12)
sdk\libs\txm_lib.lib(txm_module_system_call4.o)
		G:\TEMP\GoKit4_Demo\objs\task.o (_txm_module_system_call4)
sdk\libs\txm_lib.lib(txm_module_system_call5.o)
		G:\TEMP\GoKit4_Demo\objs\task.o (_txm_module_system_call5)
sdk\libs\txm_lib.lib(txm_module_system_call6.o)
		G:\TEMP\GoKit4_Demo\objs\task.o (_txm_module_system_call6)
sdk\libs\txm_lib.lib(txm_module_system_call7.o)
		G:\TEMP\GoKit4_Demo\gagent\libgagent.a(iofstring.o) (_txm_module_system_call7)
sdk\libs\txm_lib.lib(txm_module_system_call8.o)
		G:\TEMP\GoKit4_Demo\gagent\libgagent.a(ioftime.o) (_txm_module_system_call8)
D:\4.0.3\armv7m-none-eabi\libc\lib/libc.a(tolower.o)
		G:\TEMP\GoKit4_Demo\gagent\libgagent.a(otawan.o) (tolower)
D:\4.0.3\armv7m-none-eabi\libc\lib/libc.a(toupper.o)
		G:\TEMP\GoKit4_Demo\objs\common.o (toupper)
D:\4.0.3\armv7m-none-eabi\libc\lib/libc.a(malloc.o)
		G:\TEMP\GoKit4_Demo\objs\gizwits_protocol.o (malloc)
D:\4.0.3\armv7m-none-eabi\libc\lib/libc.a(madvise.o)
		D:\4.0.3\armv7m-none-eabi\libc\lib/libc.a(malloc.o) (__madvise)
D:\4.0.3\armv7m-none-eabi\libc\lib/libc.a(mremap.o)
		D:\4.0.3\armv7m-none-eabi\libc\lib/libc.a(malloc.o) (__mremap)
D:\4.0.3\armv7m-none-eabi\libc\lib/libc.a(munmap.o)
		D:\4.0.3\armv7m-none-eabi\libc\lib/libc.a(malloc.o) (__munmap)
D:\4.0.3\armv7m-none-eabi\libc\lib/libc.a(rand.o)
		G:\TEMP\GoKit4_Demo\gagent\libgagent.a(productinfo.o) (srand)
D:\4.0.3\armv7m-none-eabi\libc\lib/libc.a(vfprintf.o)
		G:\TEMP\GoKit4_Demo\objs\uart.o (vsnprintf)
D:\4.0.3\armv7m-none-eabi\libc\lib/libc.a(fwrite.o)
		D:\4.0.3\armv7m-none-eabi\libc\lib/libc.a(vfprintf.o) (__fwritex)
D:\4.0.3\armv7m-none-eabi\libc\lib/libc.a(snprintf.o)
		G:\TEMP\GoKit4_Demo\gagent\libgagent.a(iofnet.o) (snprintf)
D:\4.0.3\armv7m-none-eabi\libc\lib/libc.a(sprintf.o)
		G:\TEMP\GoKit4_Demo\gagent\libgagent.a(localcomm.o) (sprintf)
D:\4.0.3\armv7m-none-eabi\libc\lib/libc.a(vsnprintf.o)
		D:\4.0.3\armv7m-none-eabi\libc\lib/libc.a(vfprintf.o) (vsnprintf_full)
D:\4.0.3\armv7m-none-eabi\libc\lib/libc.a(vsprintf.o)
		D:\4.0.3\armv7m-none-eabi\libc\lib/libc.a(sprintf.o) (vsprintf)
D:\4.0.3\armv7m-none-eabi\libc\lib/libc.a(strtol.o)
		G:\TEMP\GoKit4_Demo\gagent\libgagent.a(otawan.o) (strtol)
D:\4.0.3\armv7m-none-eabi\libc\lib/libc.a(__aeabi_memclr.o)
		D:\4.0.3\armv7m-none-eabi\libc\lib/libc.a(vfprintf.o) (__aeabi_memclr4)
D:\4.0.3\armv7m-none-eabi\libc\lib/libc.a(__aeabi_memcpy.o)
		D:\4.0.3\armv7m-none-eabi\libc\lib/libc.a(vsnprintf.o) (__aeabi_memcpy8)
D:\4.0.3\armv7m-none-eabi\libc\lib/libc.a(memcpy_le.o)
		G:\TEMP\GoKit4_Demo\objs\common.o (memcpy)
D:\4.0.3\armv7m-none-eabi\libc\lib/libc.a(memset_nofp_armv7.o)
		G:\TEMP\GoKit4_Demo\objs\gizwits_protocol.o (memset)
D:\4.0.3\armv7m-none-eabi\libc\lib/libc.a(memchr.o)
		D:\4.0.3\armv7m-none-eabi\libc\lib/libc.a(vfprintf.o) (memchr)
D:\4.0.3\armv7m-none-eabi\libc\lib/libc.a(memcmp.o)
		G:\TEMP\GoKit4_Demo\objs\gizwits_protocol.o (memcmp)
D:\4.0.3\armv7m-none-eabi\libc\lib/libc.a(strchr.o)
		G:\TEMP\GoKit4_Demo\gagent\libgagent.a(gatm2m.o) (strchr)
D:\4.0.3\armv7m-none-eabi\libc\lib/libc.a(strchrnul.o)
		D:\4.0.3\armv7m-none-eabi\libc\lib/libc.a(strchr.o) (__strchrnul)
D:\4.0.3\armv7m-none-eabi\libc\lib/libc.a(strcmp.o)
		G:\TEMP\GoKit4_Demo\gagent\libgagent.a(local.o) (strcmp)
D:\4.0.3\armv7m-none-eabi\libc\lib/libc.a(strcpy.o)
		G:\TEMP\GoKit4_Demo\gagent\libgagent.a(local.o) (strcpy)
D:\4.0.3\armv7m-none-eabi\libc\lib/libc.a(strlen.o)
		G:\TEMP\GoKit4_Demo\objs\common.o (strlen)
D:\4.0.3\armv7m-none-eabi\libc\lib/libc.a(strncasecmp.o)
		G:\TEMP\GoKit4_Demo\gagent\libgagent.a(iofstring.o) (strncasecmp)
D:\4.0.3\armv7m-none-eabi\libc\lib/libc.a(strncmp.o)
		G:\TEMP\GoKit4_Demo\gagent\libgagent.a(dp.o) (strncmp)
D:\4.0.3\armv7m-none-eabi\libc\lib/libc.a(strncpy.o)
		G:\TEMP\GoKit4_Demo\gagent\libgagent.a(productinfo.o) (strncpy)
D:\4.0.3\armv7m-none-eabi\libc\lib/libc.a(strstr.o)
		G:\TEMP\GoKit4_Demo\gagent\libgagent.a(gatutilcode.o) (strstr)
D:\4.0.3\armv7m-none-eabi\libc\lib/libc.a(__wait.o)
		D:\4.0.3\armv7m-none-eabi\libc\lib/libc.a(malloc.o) (__wait)
D:\4.0.3\armv7m-none-eabi\libc\lib/libc.a(__errno_location.o)
		D:\4.0.3\armv7m-none-eabi\libc\lib/libc.a(malloc.o) (__errno_location)
D:\4.0.3\armv7m-none-eabi\libc\lib/libc.a(strerror.o)
		D:\4.0.3\armv7m-none-eabi\libc\lib/libc.a(vfprintf.o) (strerror)
D:\4.0.3\armv7m-none-eabi\libc\lib/libc.a(intscan.o)
		D:\4.0.3\armv7m-none-eabi\libc\lib/libc.a(strtol.o) (__intscan)
D:\4.0.3\armv7m-none-eabi\libc\lib/libc.a(libc.o)
		D:\4.0.3\armv7m-none-eabi\libc\lib/libc.a(malloc.o) (__libc)
D:\4.0.3\armv7m-none-eabi\libc\lib/libc.a(shgetc.o)
		D:\4.0.3\armv7m-none-eabi\libc\lib/libc.a(strtol.o) (__shlim)
D:\4.0.3\armv7m-none-eabi\libc\lib/libc.a(syscall_ret.o)
		D:\4.0.3\armv7m-none-eabi\libc\lib/libc.a(madvise.o) (__syscall_ret)
D:\4.0.3\armv7m-none-eabi\libc\lib/libc.a(__lctrans.o)
		D:\4.0.3\armv7m-none-eabi\libc\lib/libc.a(strerror.o) (__lctrans)
D:\4.0.3\armv7m-none-eabi\libc\lib/libc.a(expand_heap.o)
		D:\4.0.3\armv7m-none-eabi\libc\lib/libc.a(malloc.o) (__expand_heap)
D:\4.0.3\armv7m-none-eabi\libc\lib/libc.a(wctomb.o)
		D:\4.0.3\armv7m-none-eabi\libc\lib/libc.a(vfprintf.o) (wctomb)
D:\4.0.3\armv7m-none-eabi\libc\lib/libc.a(__towrite.o)
		D:\4.0.3\armv7m-none-eabi\libc\lib/libc.a(fwrite.o) (__towrite)
D:\4.0.3\armv7m-none-eabi\libc\lib/libc.a(__uflow.o)
		D:\4.0.3\armv7m-none-eabi\libc\lib/libc.a(shgetc.o) (__uflow)
D:\4.0.3\armv7m-none-eabi\libc\lib/libc.a(__lockfile.o)
		D:\4.0.3\armv7m-none-eabi\libc\lib/libc.a(vfprintf.o) (__lockfile)
D:\4.0.3\armv7m-none-eabi\libc\lib/libc.a(stpcpy.o)
		D:\4.0.3\armv7m-none-eabi\libc\lib/libc.a(strcpy.o) (__stpcpy)
D:\4.0.3\armv7m-none-eabi\libc\lib/libc.a(stpncpy.o)
		D:\4.0.3\armv7m-none-eabi\libc\lib/libc.a(strncpy.o) (__stpncpy)
D:\4.0.3\armv7m-none-eabi\libc\lib/libc.a(__brk.o)
		D:\4.0.3\armv7m-none-eabi\libc\lib/libc.a(expand_heap.o) (__brk)
D:\4.0.3\armv7m-none-eabi\libc\lib/libc.a(wcrtomb.o)
		D:\4.0.3\armv7m-none-eabi\libc\lib/libc.a(wctomb.o) (wcrtomb)
D:\4.0.3\armv7m-none-eabi\libc\lib/libc.a(__stdio_exit.o)
		D:\4.0.3\armv7m-none-eabi\libc\lib/libc.a(__towrite.o) (__stdio_exit_needed)
D:\4.0.3\armv7m-none-eabi\libc\lib/libc.a(__toread.o)
		D:\4.0.3\armv7m-none-eabi\libc\lib/libc.a(__uflow.o) (__toread)
D:\4.0.3\armv7m-none-eabi\libc\lib/libc.a(ofl.o)
		D:\4.0.3\armv7m-none-eabi\libc\lib/libc.a(__stdio_exit.o) (__ofl_lock)
D:\4.0.3\lib\clang\4.0.3\lib\baremetal/libclang_rt.builtins-armv7m.a(aeabi_uldivmod.S.obj)
		D:\4.0.3\armv7m-none-eabi\libc\lib/libc.a(vfprintf.o) (__aeabi_uldivmod)
D:\4.0.3\lib\clang\4.0.3\lib\baremetal/libclang_rt.builtins-armv7m.a(addsf3.c.obj)
		G:\TEMP\GoKit4_Demo\objs\dataPointTools.o (__aeabi_fadd)
D:\4.0.3\lib\clang\4.0.3\lib\baremetal/libclang_rt.builtins-armv7m.a(divsf3.c.obj)
		G:\TEMP\GoKit4_Demo\objs\dataPointTools.o (__aeabi_fdiv)
D:\4.0.3\lib\clang\4.0.3\lib\baremetal/libclang_rt.builtins-armv7m.a(fixdfsi.c.obj)
		G:\TEMP\GoKit4_Demo\gagent\libgagent.a(ioftime.o) (__aeabi_d2iz)
D:\4.0.3\lib\clang\4.0.3\lib\baremetal/libclang_rt.builtins-armv7m.a(fixunssfsi.c.obj)
		G:\TEMP\GoKit4_Demo\objs\dataPointTools.o (__aeabi_f2uiz)
D:\4.0.3\lib\clang\4.0.3\lib\baremetal/libclang_rt.builtins-armv7m.a(floatsisf.c.obj)
		D:\4.0.3\armv7m-none-eabi\libc\lib/libc.a(malloc.o) (__aeabi_i2f)
D:\4.0.3\lib\clang\4.0.3\lib\baremetal/libclang_rt.builtins-armv7m.a(floatunsidf.c.obj)
		G:\TEMP\GoKit4_Demo\gagent\libgagent.a(ioftime.o) (__aeabi_ui2d)
D:\4.0.3\lib\clang\4.0.3\lib\baremetal/libclang_rt.builtins-armv7m.a(floatunsisf.c.obj)
		G:\TEMP\GoKit4_Demo\objs\dataPointTools.o (__aeabi_ui2f)
D:\4.0.3\lib\clang\4.0.3\lib\baremetal/libclang_rt.builtins-armv7m.a(muldf3.c.obj)
		G:\TEMP\GoKit4_Demo\gagent\libgagent.a(ioftime.o) (__aeabi_dmul)
D:\4.0.3\lib\clang\4.0.3\lib\baremetal/libclang_rt.builtins-armv7m.a(mulsf3.c.obj)
		G:\TEMP\GoKit4_Demo\objs\dataPointTools.o (__aeabi_fmul)
D:\4.0.3\lib\clang\4.0.3\lib\baremetal/libclang_rt.builtins-armv7m.a(subsf3.c.obj)
		G:\TEMP\GoKit4_Demo\objs\dataPointTools.o (__aeabi_fsub)
D:\4.0.3\lib\clang\4.0.3\lib\baremetal/libclang_rt.builtins-armv7m.a(udivmoddi4.c.obj)
		D:\4.0.3\lib\clang\4.0.3\lib\baremetal/libclang_rt.builtins-armv7m.a(aeabi_uldivmod.S.obj) (__udivmoddi4)

Allocating common symbols
Common symbol	size	file

currentDataPoint	0xf	G:\TEMP\GoKit4_Demo\objs\gizwits_product.o
gizTaskStack	0x4000	G:\TEMP\GoKit4_Demo\objs\gizwits_protocol.o
gizwitsProtocol	0x3d1	G:\TEMP\GoKit4_Demo\objs\gizwits_protocol.o
gizTaskHandle	0x4	G:\TEMP\GoKit4_Demo\objs\gizwits_protocol.o
gpio_id_tbl	0x1c	G:\TEMP\GoKit4_Demo\objs\gpio.o
tlmm_config	0x118	G:\TEMP\GoKit4_Demo\objs\gpio.o
free_memory_task	0x20000	G:\TEMP\GoKit4_Demo\objs\task.o
alive_thread_handle	0x4	G:\TEMP\GoKit4_Demo\objs\task.o
byte_pool_task	0x4	G:\TEMP\GoKit4_Demo\objs\task.o
free_memory_gagent	0x40000	G:\TEMP\GoKit4_Demo\gagent\libgagent.a(gagentThread.o)
byte_pool_gagent	0x4	G:\TEMP\GoKit4_Demo\gagent\libgagent.a(gagentThread.o)
gatThread_Handle	0x4	G:\TEMP\GoKit4_Demo\gagent\libgagent.a(gagentThread.o)
gatapp_stack	0x4	G:\TEMP\GoKit4_Demo\gagent\libgagent.a(gagentThread.o)
netConPara	0x100	G:\TEMP\GoKit4_Demo\gagent\libgagent.a(gatnet.o)
httpRecCore	0x14	G:\TEMP\GoKit4_Demo\gagent\libgagent.a(httpgat.o)
httpSendCore	0x14	G:\TEMP\GoKit4_Demo\gagent\libgagent.a(httpgat.o)
gatQueue	0x4	G:\TEMP\GoKit4_Demo\gagent\libgagent.a(iofipc.o)
tcp_signal_handle	0x4	G:\TEMP\GoKit4_Demo\gagent\libgagent.a(iofnet.o)
gatDnsTid	0x4	G:\TEMP\GoKit4_Demo\gagent\libgagent.a(iofpthread.o)
gatNetTid	0x4	G:\TEMP\GoKit4_Demo\gagent\libgagent.a(iofpthread.o)
gatSerialRecTid	0x4	G:\TEMP\GoKit4_Demo\gagent\libgagent.a(iofpthread.o)
gatSerialSendTid	0x4	G:\TEMP\GoKit4_Demo\gagent\libgagent.a(iofpthread.o)
gatTaskProcessTid	0x4	G:\TEMP\GoKit4_Demo\gagent\libgagent.a(iofpthread.o)
gatTcpDataRecTid	0x4	G:\TEMP\GoKit4_Demo\gagent\libgagent.a(iofpthread.o)
gatTcpDataSendTid	0x4	G:\TEMP\GoKit4_Demo\gagent\libgagent.a(iofpthread.o)
gatTcpServerTid	0x4	G:\TEMP\GoKit4_Demo\gagent\libgagent.a(iofpthread.o)
gatUdpRecTid	0x4	G:\TEMP\GoKit4_Demo\gagent\libgagent.a(iofpthread.o)
gatUdpSendTid	0x4	G:\TEMP\GoKit4_Demo\gagent\libgagent.a(iofpthread.o)
fdList	0x4	G:\TEMP\GoKit4_Demo\gagent\libgagent.a(iofserial.o)
uart_conf	0x1c	G:\TEMP\GoKit4_Demo\gagent\libgagent.a(qlog.o)
tcpChListNr	0x54	G:\TEMP\GoKit4_Demo\gagent\libgagent.a(tcp.o)
tcpDataNodeNr	0x14	G:\TEMP\GoKit4_Demo\gagent\libgagent.a(tcp.o)
tcpSendNr	0x1c	G:\TEMP\GoKit4_Demo\gagent\libgagent.a(tcp.o)
gatTimerCore	0x14	G:\TEMP\GoKit4_Demo\gagent\libgagent.a(timer_subsystem.o)
timer_client_stack	0x1000	sdk\libs\timer_dam_lib.lib(qapi_timer_user.o)
timer_client_module_thread	0x4	sdk\libs\timer_dam_lib.lib(qapi_timer_user.o)
timer_thread_state	0x4	sdk\libs\timer_dam_lib.lib(qapi_timer_user.o)
timer_user_handle	0x4	sdk\libs\timer_dam_lib.lib(qapi_timer_user.o)
_txm_module_entry_info	0x4	sdk\libs\txm_lib.lib(txm_module_thread_shell_entry.o)
_txm_module_instance_ptr	0x4	sdk\libs\txm_lib.lib(txm_module_thread_shell_entry.o)
_txm_module_kernel_call_dispatcher	0x4	sdk\libs\txm_lib.lib(txm_module_thread_shell_entry.o)
__libc	0x40	D:\4.0.3\armv7m-none-eabi\libc\lib/libc.a(libc.o)

Linker Script and memory map
LOAD G:\TEMP\GoKit4_Demo\objs\txm_module_preamble_llvm.o[]
LOAD G:\TEMP\GoKit4_Demo\objs\common.o[]
LOAD G:\TEMP\GoKit4_Demo\objs\dataPointTools.o[]
LOAD G:\TEMP\GoKit4_Demo\objs\gizwits_product.o[]
LOAD G:\TEMP\GoKit4_Demo\objs\gizwits_protocol.o[]
LOAD G:\TEMP\GoKit4_Demo\objs\gpio.o[]
LOAD G:\TEMP\GoKit4_Demo\objs\main.o[]
LOAD G:\TEMP\GoKit4_Demo\objs\ringbuffer.o[]
LOAD G:\TEMP\GoKit4_Demo\objs\task.o[]
LOAD G:\TEMP\GoKit4_Demo\objs\timer.o[]
SKIPPED G:\TEMP\GoKit4_Demo\objs\txm_module_preamble_llvm.o (ELF)
LOAD G:\TEMP\GoKit4_Demo\objs\uart.o[]
LOAD G:\TEMP\GoKit4_Demo\gagent\libgagent.a(gagentThread.o) []
LOAD G:\TEMP\GoKit4_Demo\gagent\libgagent.a(iofdev.o) []
LOAD G:\TEMP\GoKit4_Demo\gagent\libgagent.a(iofipc.o) []
LOAD G:\TEMP\GoKit4_Demo\gagent\libgagent.a(iofpthread.o) []
LOAD G:\TEMP\GoKit4_Demo\gagent\libgagent.a(iofstring.o) []
LOAD G:\TEMP\GoKit4_Demo\gagent\libgagent.a(local.o) []
LOAD G:\TEMP\GoKit4_Demo\gagent\libgagent.a(localcomm.o) []
LOAD G:\TEMP\GoKit4_Demo\gagent\libgagent.a(localio.o) []
LOAD G:\TEMP\GoKit4_Demo\gagent\libgagent.a(localprotocol.o) []
LOAD G:\TEMP\GoKit4_Demo\gagent\libgagent.a(nwk_manage.o) []
LOAD G:\TEMP\GoKit4_Demo\gagent\libgagent.a(productinfo.o) []
LOAD G:\TEMP\GoKit4_Demo\gagent\libgagent.a(qlog.o) []
LOAD G:\TEMP\GoKit4_Demo\gagent\libgagent.a(semaph.o) []
LOAD G:\TEMP\GoKit4_Demo\gagent\libgagent.a(simulatorcomm.o) []
LOAD G:\TEMP\GoKit4_Demo\gagent\libgagent.a(tcp.o) []
LOAD G:\TEMP\GoKit4_Demo\gagent\libgagent.a(timer_subsystem.o) []
LOAD G:\TEMP\GoKit4_Demo\gagent\libgagent.a(aes.o) []
LOAD G:\TEMP\GoKit4_Demo\gagent\libgagent.a(aesdata.o) []
LOAD G:\TEMP\GoKit4_Demo\gagent\libgagent.a(authorization.o) []
LOAD G:\TEMP\GoKit4_Demo\gagent\libgagent.a(dp.o) []
LOAD G:\TEMP\GoKit4_Demo\gagent\libgagent.a(env.o) []
LOAD G:\TEMP\GoKit4_Demo\gagent\libgagent.a(gagent.o) []
LOAD G:\TEMP\GoKit4_Demo\gagent\libgagent.a(gatlist.o) []
LOAD G:\TEMP\GoKit4_Demo\gagent\libgagent.a(gatm2m.o) []
LOAD G:\TEMP\GoKit4_Demo\gagent\libgagent.a(gatnet.o) []
LOAD G:\TEMP\GoKit4_Demo\gagent\libgagent.a(gatutilcode.o) []
LOAD G:\TEMP\GoKit4_Demo\gagent\libgagent.a(gdns.o) []
LOAD G:\TEMP\GoKit4_Demo\gagent\libgagent.a(gserver.o) []
LOAD G:\TEMP\GoKit4_Demo\gagent\libgagent.a(httpgat.o) []
LOAD G:\TEMP\GoKit4_Demo\gagent\libgagent.a(ioffile.o) []
LOAD G:\TEMP\GoKit4_Demo\gagent\libgagent.a(iofnet.o) []
LOAD G:\TEMP\GoKit4_Demo\gagent\libgagent.a(iofserial.o) []
LOAD G:\TEMP\GoKit4_Demo\gagent\libgagent.a(iofsocket.o) []
LOAD G:\TEMP\GoKit4_Demo\gagent\libgagent.a(ioftime.o) []
LOAD G:\TEMP\GoKit4_Demo\gagent\libgagent.a(lanvirtual.o) []
LOAD G:\TEMP\GoKit4_Demo\gagent\libgagent.a(mqttgat.o) []
LOAD G:\TEMP\GoKit4_Demo\gagent\libgagent.a(mqttlib.o) []
LOAD G:\TEMP\GoKit4_Demo\gagent\libgagent.a(otawan.o) []
LOAD G:\TEMP\GoKit4_Demo\gagent\libgagent.a(cmdtable.o) []
LOAD G:\TEMP\GoKit4_Demo\gagent\libgagent.a(gagent_md5.o) []
LOAD G:\TEMP\GoKit4_Demo\gagent\libgagent.a(simulator.o) []
LOAD sdk\libs\timer_dam_lib.lib(qapi_timer_user.o) []
LOAD sdk\libs\txm_lib.lib(txm_module_thread_shell_entry.o) []
LOAD sdk\libs\txm_lib.lib(txm_module_callback_request_thread_entry.o) []
LOAD sdk\libs\txm_lib.lib(txm_module_system_call11.o) []
LOAD sdk\libs\txm_lib.lib(txm_module_system_call12.o) []
LOAD sdk\libs\txm_lib.lib(txm_module_system_call4.o) []
LOAD sdk\libs\txm_lib.lib(txm_module_system_call5.o) []
LOAD sdk\libs\txm_lib.lib(txm_module_system_call6.o) []
LOAD sdk\libs\txm_lib.lib(txm_module_system_call7.o) []
LOAD sdk\libs\txm_lib.lib(txm_module_system_call8.o) []
START GROUP
END GROUP
START GROUP
LOAD D:\4.0.3\armv7m-none-eabi\libc\lib/libc.a(tolower.o) []
LOAD D:\4.0.3\armv7m-none-eabi\libc\lib/libc.a(toupper.o) []
LOAD D:\4.0.3\armv7m-none-eabi\libc\lib/libc.a(malloc.o) []
LOAD D:\4.0.3\armv7m-none-eabi\libc\lib/libc.a(madvise.o) []
LOAD D:\4.0.3\armv7m-none-eabi\libc\lib/libc.a(mremap.o) []
LOAD D:\4.0.3\armv7m-none-eabi\libc\lib/libc.a(munmap.o) []
LOAD D:\4.0.3\armv7m-none-eabi\libc\lib/libc.a(rand.o) []
LOAD D:\4.0.3\armv7m-none-eabi\libc\lib/libc.a(vfprintf.o) []
LOAD D:\4.0.3\armv7m-none-eabi\libc\lib/libc.a(fwrite.o) []
LOAD D:\4.0.3\armv7m-none-eabi\libc\lib/libc.a(snprintf.o) []
LOAD D:\4.0.3\armv7m-none-eabi\libc\lib/libc.a(sprintf.o) []
LOAD D:\4.0.3\armv7m-none-eabi\libc\lib/libc.a(vsnprintf.o) []
LOAD D:\4.0.3\armv7m-none-eabi\libc\lib/libc.a(vsprintf.o) []
LOAD D:\4.0.3\armv7m-none-eabi\libc\lib/libc.a(strtol.o) []
LOAD D:\4.0.3\armv7m-none-eabi\libc\lib/libc.a(__aeabi_memclr.o) []
LOAD D:\4.0.3\armv7m-none-eabi\libc\lib/libc.a(__aeabi_memcpy.o) []
LOAD D:\4.0.3\armv7m-none-eabi\libc\lib/libc.a(memcpy_le.o) []
LOAD D:\4.0.3\armv7m-none-eabi\libc\lib/libc.a(memset_nofp_armv7.o) []
LOAD D:\4.0.3\armv7m-none-eabi\libc\lib/libc.a(memchr.o) []
LOAD D:\4.0.3\armv7m-none-eabi\libc\lib/libc.a(memcmp.o) []
LOAD D:\4.0.3\armv7m-none-eabi\libc\lib/libc.a(strchr.o) []
LOAD D:\4.0.3\armv7m-none-eabi\libc\lib/libc.a(strchrnul.o) []
LOAD D:\4.0.3\armv7m-none-eabi\libc\lib/libc.a(strcmp.o) []
LOAD D:\4.0.3\armv7m-none-eabi\libc\lib/libc.a(strcpy.o) []
LOAD D:\4.0.3\armv7m-none-eabi\libc\lib/libc.a(strlen.o) []
LOAD D:\4.0.3\armv7m-none-eabi\libc\lib/libc.a(strncasecmp.o) []
LOAD D:\4.0.3\armv7m-none-eabi\libc\lib/libc.a(strncmp.o) []
LOAD D:\4.0.3\armv7m-none-eabi\libc\lib/libc.a(strncpy.o) []
LOAD D:\4.0.3\armv7m-none-eabi\libc\lib/libc.a(strstr.o) []
LOAD D:\4.0.3\armv7m-none-eabi\libc\lib/libc.a(__wait.o) []
LOAD D:\4.0.3\armv7m-none-eabi\libc\lib/libc.a(__errno_location.o) []
LOAD D:\4.0.3\armv7m-none-eabi\libc\lib/libc.a(strerror.o) []
LOAD D:\4.0.3\armv7m-none-eabi\libc\lib/libc.a(intscan.o) []
LOAD D:\4.0.3\armv7m-none-eabi\libc\lib/libc.a(libc.o) []
LOAD D:\4.0.3\armv7m-none-eabi\libc\lib/libc.a(shgetc.o) []
LOAD D:\4.0.3\armv7m-none-eabi\libc\lib/libc.a(syscall_ret.o) []
LOAD D:\4.0.3\armv7m-none-eabi\libc\lib/libc.a(__lctrans.o) []
LOAD D:\4.0.3\armv7m-none-eabi\libc\lib/libc.a(expand_heap.o) []
LOAD D:\4.0.3\armv7m-none-eabi\libc\lib/libc.a(wctomb.o) []
LOAD D:\4.0.3\armv7m-none-eabi\libc\lib/libc.a(__towrite.o) []
LOAD D:\4.0.3\armv7m-none-eabi\libc\lib/libc.a(__uflow.o) []
LOAD D:\4.0.3\armv7m-none-eabi\libc\lib/libc.a(__lockfile.o) []
LOAD D:\4.0.3\armv7m-none-eabi\libc\lib/libc.a(stpcpy.o) []
LOAD D:\4.0.3\armv7m-none-eabi\libc\lib/libc.a(stpncpy.o) []
LOAD D:\4.0.3\armv7m-none-eabi\libc\lib/libc.a(__brk.o) []
LOAD D:\4.0.3\armv7m-none-eabi\libc\lib/libc.a(wcrtomb.o) []
LOAD D:\4.0.3\armv7m-none-eabi\libc\lib/libc.a(__stdio_exit.o) []
LOAD D:\4.0.3\armv7m-none-eabi\libc\lib/libc.a(__toread.o) []
LOAD D:\4.0.3\armv7m-none-eabi\libc\lib/libc.a(ofl.o) []
LOAD D:\4.0.3\lib\clang\4.0.3\lib\baremetal/libclang_rt.builtins-armv7m.a(aeabi_uldivmod.S.obj) []
LOAD D:\4.0.3\lib\clang\4.0.3\lib\baremetal/libclang_rt.builtins-armv7m.a(addsf3.c.obj) []
LOAD D:\4.0.3\lib\clang\4.0.3\lib\baremetal/libclang_rt.builtins-armv7m.a(divsf3.c.obj) []
LOAD D:\4.0.3\lib\clang\4.0.3\lib\baremetal/libclang_rt.builtins-armv7m.a(fixdfsi.c.obj) []
LOAD D:\4.0.3\lib\clang\4.0.3\lib\baremetal/libclang_rt.builtins-armv7m.a(fixunssfsi.c.obj) []
LOAD D:\4.0.3\lib\clang\4.0.3\lib\baremetal/libclang_rt.builtins-armv7m.a(floatsisf.c.obj) []
LOAD D:\4.0.3\lib\clang\4.0.3\lib\baremetal/libclang_rt.builtins-armv7m.a(floatunsidf.c.obj) []
LOAD D:\4.0.3\lib\clang\4.0.3\lib\baremetal/libclang_rt.builtins-armv7m.a(floatunsisf.c.obj) []
LOAD D:\4.0.3\lib\clang\4.0.3\lib\baremetal/libclang_rt.builtins-armv7m.a(muldf3.c.obj) []
LOAD D:\4.0.3\lib\clang\4.0.3\lib\baremetal/libclang_rt.builtins-armv7m.a(mulsf3.c.obj) []
LOAD D:\4.0.3\lib\clang\4.0.3\lib\baremetal/libclang_rt.builtins-armv7m.a(subsf3.c.obj) []
LOAD D:\4.0.3\lib\clang\4.0.3\lib\baremetal/libclang_rt.builtins-armv7m.a(udivmoddi4.c.obj) []
END GROUP

Linker scripts used (including INCLUDE command)
sdk\ld\quectel_dam_demo.ld

ER_RO	0x43000000	0x41c9c # Offset: 0x60, LMA: 0x43000000
	Image$$ER_RO$$Base(0x43000000) = .( 0x43000000 );
*txm_module_preamble_llvm.o(.text .text.* )
*txm_module_preamble_llvm.o(Init )
Init	0x43000000	0x80	G:\TEMP\GoKit4_Demo\objs\txm_module_preamble_llvm.o	#SHT_PROGBITS,SHF_ALLOC|SHF_EXECINSTR,4
	0x43000000		.CODE32
	0x43000000		_txm_module_preamble
*txm_module_preamble_llvm.o(.rodata .rodata.* )
KEEP (*(.text .text.* ))
.text	0x43000080	0x47c	G:\TEMP\GoKit4_Demo\objs\common.o	#SHT_PROGBITS,SHF_ALLOC|SHF_EXECINSTR,4
	0x43000080		$a.0
	0x43000080		gizProtocolSum
	0x430000bc		exchangeBytes
	0x430000c4		exchangeWord
	0x430000cc		char2hex
	0x43000160		checkStringIsNotZero
	0x430001b8		checkStringIsZero
	0x43000210		returnWeekDay
	0x43000290		returnNtp2Wt
	0x430003cc		$d.1
	0x430003dc		$a.2
	0x430003dc		isleap
	0x43000420		str2Hex
	0x4300049c		hex2Str
.text	0x430004fc	0x39c	G:\TEMP\GoKit4_Demo\objs\dataPointTools.o	#SHT_PROGBITS,SHF_ALLOC|SHF_EXECINSTR,4
	0x430004fc		$a.0
	0x430004fc		gizByteOrderExchange
	0x43000554		gizY2X
	0x43000560		gizX2Y
	0x43000568		gizY2XFloat
	0x4300058c		gizX2YFloat
	0x430005b8		gizAcrossByteJudge
	0x430005ec		gizVarlenCompressValue
	0x43000670		gizVarlenDecompressionValue
	0x43000740		gizStandardDecompressionValue
	0x43000810		gizStandardCompressValue
.text	0x43000898	0x43c	G:\TEMP\GoKit4_Demo\objs\gizwits_product.o	#SHT_PROGBITS,SHF_ALLOC|SHF_EXECINSTR,4
	0x43000898		$a.0
	0x43000898		gizwitsEventProcess
	0x430008f8		$d.1
	0x43000930		$a.2
	0x43000a84		$d.3
	0x43000abc		$a.4
	0x43000abc		userHandle
	0x43000b80		$d.5
	0x43000b98		$a.6
	0x43000b98		userInit
	0x43000cbc		$d.7
.text	0x43000cd4	0x1084	G:\TEMP\GoKit4_Demo\objs\gizwits_protocol.o	#SHT_PROGBITS,SHF_ALLOC|SHF_EXECINSTR,4
	0x43000cd4		$a.0
	0x43000cd4		setConnectM2MStatus
	0x43000ce8		$d.1
	0x43000cf0		$a.2
	0x43000cf0		getConnectM2MStatus
	0x43000d10		$d.3
	0x43000d18		$a.4
	0x43000d18		uploadDataCBFunc
	0x43000d24		$d.5
	0x43000d28		gizGetTimerCount
	0x43000d28		$a.6
	0x43000d4c		$d.7
	0x43000d50		gizWiFiStatus
	0x43000d50		$a.8
	0x430010d0		$d.9
	0x43001110		$a.10
	0x43001110		gizIssuedProcess
	0x43001368		$d.11
	0x4300138c		$a.12
	0x4300138c		gizDataPoints2ReportData
	0x430014d4		$d.13
	0x430014e0		$a.14
	0x430014e0		gizwitsTask
	0x430015a8		$d.15
	0x430015cc		$a.16
	0x430015cc		gizwitsHandle
	0x430017dc		$d.17
	0x43001804		$a.18
	0x43001804		sensorUpdateHandle
	0x43001890		$d.19
	0x430018a0		$a.20
	0x430018a0		gizSendQueue
	0x430018ec		$d.21
	0x430018f8		$a.22
	0x430018f8		gizTimerFunc
	0x430019c0		$d.23
	0x430019d4		$a.24
	0x430019d4		gizwitsSetMode
	0x430019fc		gizwitsGetNTPTime
	0x43001a0c		gizwitsGetTimeStamp
	0x43001a28		gizwitsInit
	0x43001c3c		$d.25
	0x43001ca8		$a.26
	0x43001ca8		gizwitsPassthroughData
	0x43001d48		$d.27
.text	0x43001d58	0x1e0	G:\TEMP\GoKit4_Demo\objs\gpio.o	#SHT_PROGBITS,SHF_ALLOC|SHF_EXECINSTR,4
	0x43001d58		$a.0
	0x43001d58		qapi_custom_cb_gpioint_dispatcher
	0x43001d68		gpio_init
	0x43001efc		$d.1
	0x43001f24		$a.2
	0x43001f24		GPIO05_falling
	0x43001f34		$d.3
.text	0x43001f38	0x20	G:\TEMP\GoKit4_Demo\objs\main.o	#SHT_PROGBITS,SHF_ALLOC|SHF_EXECINSTR,4
	0x43001f38		$a.0
	0x43001f38		gagentMain
.text	0x43001f58	0x288	G:\TEMP\GoKit4_Demo\objs\ringbuffer.o	#SHT_PROGBITS,SHF_ALLOC|SHF_EXECINSTR,4
	0x43001f58		$a.0
	0x43001f58		rbCreate
	0x43001f80		rbDelete
	0x43001fac		rbCapacity
	0x43001fbc		rbCanRead
	0x43001ffc		rbCanWrite
	0x43002028		rbRead
	0x43002100		rbWrite
.text	0x430021e0	0x2c4	G:\TEMP\GoKit4_Demo\objs\task.o	#SHT_PROGBITS,SHF_ALLOC|SHF_EXECINSTR,4
	0x430021e0		$a.0
	0x430021e0		queue_init
	0x43002304		$d.1
	0x43002334		$a.2
	0x43002334		alive_task_entry
	0x43002394		$d.3
	0x430023a4		$a.4
	0x430023a4		alive_task_init
	0x43002480		$d.5
.text	0x430024a4	0xa8	G:\TEMP\GoKit4_Demo\objs\timer.o	#SHT_PROGBITS,SHF_ALLOC|SHF_EXECINSTR,4
	0x430024a4		$a.0
	0x430024a4		timer_init
	0x43002514		$d.1
	0x43002520		$a.2
	0x43002520		all_timer_start
	0x43002544		$d.3
.text	0x4300254c	0x35c	G:\TEMP\GoKit4_Demo\objs\uart.o	#SHT_PROGBITS,SHF_ALLOC|SHF_EXECINSTR,4
	0x4300254c		$a.0
	0x4300254c		user_uart_init
	0x43002580		$d.1
	0x43002584		$a.2
	0x43002584		uartX_init
	0x43002638		$d.3
	0x43002654		$a.4
	0x43002654		uartX_recv
	0x43002698		$d.5
	0x430026a0		$a.6
	0x430026a0		uart1_send
	0x430026d4		$d.7
	0x430026dc		$a.8
	0x430026dc		uart1_printf
	0x43002750		$d.9
	0x4300275c		$a.10
	0x4300275c		uart3_send
	0x43002790		$d.11
	0x43002798		$a.12
	0x43002798		uart3_printf
	0x4300280c		$d.13
	0x43002818		$a.14
	0x43002818		uart_rx_cb
	0x43002850		$d.15
	0x43002854		$a.16
	0x43002854		uart_tx_cb
	0x43002864		$d.17
	0x43002868		$a.18
	0x43002868		qapi_uart_tx_user_cb_dispatcher
	0x43002888		qapi_uart_rx_user_cb_dispatcher
.text	0x430028a8	0x6f8	G:\TEMP\GoKit4_Demo\gagent\libgagent.a(gagentThread.o)	#SHT_PROGBITS,SHF_ALLOC|SHF_EXECINSTR,4
	0x430028a8		$a.0
	0x430028a8		groudEntryInit
	0x43002968		$d.1
	0x43002990		$a.2
	0x43002990		gatStartgagentThread
	0x43002a5c		$d.3
	0x43002a7c		$a.4
	0x43002a7c		groudEvent
	0x43002ae8		$d.5
	0x43002b00		$a.6
	0x43002b00		Initialize_Thread_Demo
	0x43002bf8		$d.7
	0x43002c20		$a.8
	0x43002c20		gagentThread
	0x43002c44		gagent_dam_app_start
	0x43002e14		$d.9
	0x43002e54		$a.10
	0x43002e54		gatMainThread
	0x43002f4c		$d.11
	0x43002f68		$a.12
	0x43002f68		sensor_dam_app_start
	0x43002f84		quectel_task_entry
.text	0x43002fa0	0x498	G:\TEMP\GoKit4_Demo\gagent\libgagent.a(iofdev.o)	#SHT_PROGBITS,SHF_ALLOC|SHF_EXECINSTR,4
	0x43002fa0		$a.0
	0x43002fa0		__stack_chk_fail
	0x43002fa4		iofPrintf
	0x43003044		$d.1
	0x43003050		$a.2
	0x43003050		devRestart
	0x4300310c		$d.3
	0x43003124		$a.4
	0x43003124		devlogLock
	0x43003134		$d.5
	0x43003138		$a.6
	0x43003138		devlogUnLock
	0x43003148		$d.7
	0x4300314c		$a.8
	0x4300314c		iofGatAuthKeyRead
	0x43003294		$d.9
	0x430032b8		$a.10
	0x430032b8		dev_free_heap_size
	0x430032bc		devOtaUpgrade
	0x430033f8		$d.11
	0x4300341c		$a.12
	0x4300341c		devlogLockInit
	0x4300342c		$d.13
	0x43003434		$a.14
	0x43003434		devDisplayTime
.text	0x43003438	0x3a4	G:\TEMP\GoKit4_Demo\gagent\libgagent.a(iofipc.o)	#SHT_PROGBITS,SHF_ALLOC|SHF_EXECINSTR,4
	0x43003438		$a.0
	0x43003438		iofMsgCreat
	0x43003560		$d.1
	0x43003580		$a.2
	0x43003580		iofSendSig
	0x4300362c		$d.3
	0x43003648		$a.4
	0x43003648		iofRecSig
	0x430036f0		$d.5
	0x43003708		$a.6
	0x43003708		iofLockInit
	0x43003778		$d.7
	0x4300378c		$a.8
	0x4300378c		devLock
	0x430037b4		devUnLock
.text	0x430037dc	0x588	G:\TEMP\GoKit4_Demo\gagent\libgagent.a(iofpthread.o)	#SHT_PROGBITS,SHF_ALLOC|SHF_EXECINSTR,4
	0x430037dc		$a.0
	0x430037dc		iofTcpDataSendThread
	0x430037f4		$d.1
	0x430037f8		$a.2
	0x430037f8		iofTcpDataRecThread
	0x43003810		$d.3
	0x43003814		iofUdpSendThread
	0x43003814		$a.4
	0x43003828		$d.5
	0x4300382c		iofUdpRecThread
	0x4300382c		$a.6
	0x43003840		$d.7
	0x43003844		iofSerialSendThread
	0x43003844		$a.8
	0x4300385c		$d.9
	0x43003860		$a.10
	0x43003860		iofSerialRecThread
	0x43003878		$d.11
	0x4300387c		$a.12
	0x4300387c		iofNetDnsThread
	0x43003894		$d.13
	0x43003898		iofNetActiveThread
	0x43003898		$a.14
	0x430038b0		$d.15
	0x430038b4		iofTaskProcessThread
	0x430038b4		$a.16
	0x430038ec		$d.17
	0x430038f0		iofPthreadCreate
	0x430038f0		$a.18
	0x43003b24		$d.19
	0x43003b4c		$a.20
	0x43003b4c		iofPthreadNameSet
	0x43003bcc		$d.21
	0x43003be0		$a.22
	0x43003be0		iofStartAllThread
	0x43003d18		$d.23
	0x43003d3c		$a.24
	0x43003d3c		iofThreadEnable
	0x43003d48		$d.25
	0x43003d4c		$a.26
	0x43003d4c		iofTcpServerThread
	0x43003d60		$d.27
.text	0x43003d64	0x7a0	G:\TEMP\GoKit4_Demo\gagent\libgagent.a(iofstring.o)	#SHT_PROGBITS,SHF_ALLOC|SHF_EXECINSTR,4
	0x43003d64		$a.0
	0x43003d64		strnstr
	0x43003e08		devMalloc
	0x43003f14		$d.1
	0x43003f2c		$a.2
	0x43003f2c		objMalloc
	0x43004040		$d.3
	0x43004058		$a.4
	0x43004058		objFree
	0x430040ec		$d.5
	0x430040fc		$a.6
	0x430040fc		getFreeHeap
	0x43004140		$d.7
	0x43004144		$a.8
	0x43004144		iofStrstri
	0x430041a4		my_atoi
	0x43004308		$d.9
	0x43004318		$a.10
	0x43004318		gatAtoi
	0x430043d8		$d.11
	0x430043ec		$a.12
	0x430043ec		gatStrtoul
.text	0x43004504	0x11bc	G:\TEMP\GoKit4_Demo\gagent\libgagent.a(local.o)	#SHT_PROGBITS,SHF_ALLOC|SHF_EXECINSTR,4
	0x43004504		$a.0
	0x43004504		gatAuthCbFun
	0x43004528		gatLocalInit
	0x430047bc		$d.1
	0x430047f0		$a.2
	0x430047f0		gatLocalSendStatus
	0x430049b8		$d.3
	0x430049d8		$a.4
	0x430049d8		gagentInit
	0x4300507c		$d.5
	0x43005104		$a.6
	0x43005104		gatLocalStatusSync
	0x43005180		$d.7
	0x43005194		$a.8
	0x43005194		gagentConfig
	0x43005198		gagentReset
	0x430051ac		GAgentEnableBind
	0x430051c0		gagentGetNTP
	0x430051f0		gatAppData2Local
	0x43005594		$d.9
	0x430055cc		$a.10
	0x430055cc		GAgentInfoGet
	0x430055f8		$d.11
	0x43005608		$a.12
	0x430056a8		$d.13
.text	0x430056c0	0xe54	G:\TEMP\GoKit4_Demo\gagent\libgagent.a(localcomm.o)	#SHT_PROGBITS,SHF_ALLOC|SHF_EXECINSTR,4
	0x430056c0		$a.0
	0x430056c0		gatGetMcuInfo
	0x430056c8		$d.1
	0x430056cc		$a.2
	0x430056cc		gatEnableBindStart
	0x430057bc		$d.3
	0x430057e4		$a.4
	0x430057e4		gatEnableBindTimeOut
	0x43005854		$d.5
	0x4300586c		gatFactoryMode
	0x4300586c		$a.6
	0x430058f0		$d.7
	0x43005904		gatLocalModuleCheck
	0x43005904		$a.8
	0x43005c38		$d.9
	0x43005c78		$a.10
	0x43005c78		gatEnterTest
	0x43005cd8		$d.11
	0x43005cec		$a.12
	0x43005cec		gatLocalGAgentRestart
	0x43005d50		$d.13
	0x43005d64		$a.14
	0x43005d64		gatCheckSum
	0x43005d90		isAckCmd
	0x43005dec		$d.15
	0x43005df4		$a.16
	0x43005df4		isNeed2AckdCmd
	0x43005e40		$d.17
	0x43005ee4		gatLocalErrHandleAckTimeOut
	0x43005ee4		$a.18
	0x43005f40		$d.19
	0x43005f54		$a.20
	0x43005f54		gatLocalErrHandle
	0x43006058		$d.21
	0x43006074		$a.22
	0x43006074		gatLocalHandle
	0x43006388		$d.23
	0x430063bc		$a.24
	0x430063bc		gatLocalSignalCheckTick
	0x4300649c		$d.25
	0x430064b8		$a.26
	0x430064b8		gatLocalSignalTickStart
	0x430064e4		$d.27
	0x430064f0		$a.28
	0x430064f0		gatLocalSignalTickClose
	0x43006510		$d.29
.text	0x43006514	0x192c	G:\TEMP\GoKit4_Demo\gagent\libgagent.a(localio.o)	#SHT_PROGBITS,SHF_ALLOC|SHF_EXECINSTR,4
	0x43006514		$a.0
	0x43006514		localFdGet
	0x43006520		$d.1
	0x43006524		localSemIdGet
	0x43006524		$a.2
	0x43006530		$d.3
	0x43006534		localRecvListGet
	0x43006534		$a.4
	0x43006540		$d.5
	0x43006544		localChannelNodeGet
	0x43006544		$a.6
	0x430065c0		$d.7
	0x430065c8		$a.8
	0x430065c8		localChanelListGet
	0x430065d4		$d.9
	0x430065d8		$a.10
	0x430065d8		localSendListGet
	0x430065e4		$d.11
	0x430065e8		$a.12
	0x430065e8		localRecCbFunGet
	0x43006624		$d.13
	0x43006628		$a.14
	0x43006628		gatLocalioInit
	0x43006860		$d.15
	0x430068a0		$a.16
	0x430068a0		localRecDataCb
	0x430071d8		$d.17
	0x43007220		gatLocalSendDataUseTime
	0x43007220		$a.18
	0x43007234		gatLocalSend
	0x43007580		$d.19
	0x430075b4		gatSerialSendHandle
	0x430075b4		$a.20
	0x430079bc		$d.21
	0x430079f8		gatSerialRecHandle
	0x430079f8		$a.22
	0x43007bac		$d.23
	0x43007bd4		gatLocalRecTimerOutHandle
	0x43007bd4		$a.24
	0x43007e20		$d.25
.text	0x43007e40	0x814	G:\TEMP\GoKit4_Demo\gagent\libgagent.a(localprotocol.o)	#SHT_PROGBITS,SHF_ALLOC|SHF_EXECINSTR,4
	0x43007e40		$a.0
	0x43007e40		localWrite
	0x43008240		$d.1
	0x43008278		$a.2
	0x43008278		localWriteP0
	0x430082c4		$d.3
	0x430082c8		$a.4
	0x430082c8		localWriteAck
	0x430082f4		localWriteAckDirect
	0x4300837c		localExtractPacket
	0x43008440		$d.5
	0x43008450		$a.6
	0x4300863c		$d.7
.text	0x43008654	0x1190	G:\TEMP\GoKit4_Demo\gagent\libgagent.a(nwk_manage.o)	#SHT_PROGBITS,SHF_ALLOC|SHF_EXECINSTR,4
	0x43008654		$a.0
	0x43008654		nwkHalStatusGet
	0x43008660		$d.1
	0x43008664		$a.2
	0x43008664		gatNwkInit
	0x430086e8		$d.3
	0x43008700		$a.4
	0x43008700		gatNwkevtCbRegister
	0x43008800		$d.5
	0x4300881c		$a.6
	0x4300881c		gatSetNwkEvent
	0x4300955c		$d.7
	0x43009620		$a.8
	0x43009620		nwkSetHalStatus
	0x43009634		$d.9
	0x43009638		$a.10
	0x43009638		nwkResetHalStatus
	0x4300964c		$d.11
	0x43009650		$a.12
	0x43009650		gatNwkEventHandle
	0x430097c4		$d.13
.text	0x430097e4	0x2a60	G:\TEMP\GoKit4_Demo\gagent\libgagent.a(productinfo.o)	#SHT_PROGBITS,SHF_ALLOC|SHF_EXECINSTR,4
	0x430097e4		$a.0
	0x430097e4		gatProductInfoUpdateFromEnv
	0x4300a0a8		$d.1
	0x4300a11c		$a.2
	0x4300a11c		gatCreatNewPassCode
	0x4300a1d0		$d.3
	0x4300a1e4		$a.4
	0x4300a1e4		gatConfigInfoSaveToEnv
	0x4300a450		$d.5
	0x4300a47c		gatDumpEnvInfo
	0x4300a47c		$a.6
	0x4300a874		$d.7
	0x4300a8bc		dumpPruductInfo
	0x4300a8bc		$a.8
	0x4300afa4		$d.9
	0x4300b01c		$a.10
	0x4300b01c		gatProductDefaultInfoGet
	0x4300b024		$d.11
	0x4300b028		$a.12
	0x4300b028		gatProductInfoGet
	0x4300b060		$d.13
	0x4300b06c		$a.14
	0x4300b06c		gatProductConfiInfoSave
	0x4300b118		$d.15
	0x4300b130		$a.16
	0x4300b130		gatProductInfoInit
	0x4300b1f4		$d.17
	0x4300b214		$a.18
	0x4300b214		gatProductDefaultInfoInit
	0x4300b6e8		$d.19
	0x4300b73c		gatProductInfoSetGServerIp
	0x4300b73c		$a.20
	0x4300b7d4		$d.21
	0x4300b7ec		gatTimeZoneSecSet
	0x4300b7ec		$a.22
	0x4300b86c		$d.23
	0x4300b888		$a.24
	0x4300b888		gatTimeZoneSecGet
	0x4300b894		$d.25
	0x4300b898		gatGprsApnSet
	0x4300b898		$a.26
	0x4300b968		$d.27
	0x4300b980		gatGServerDoMainSet
	0x4300b980		$a.28
	0x4300b9f8		$d.29
	0x4300ba00		gatConfigFlagSet
	0x4300ba00		$a.30
	0x4300ba7c		$d.31
	0x4300ba98		$a.32
	0x4300ba98		gatSaveRebootReason
	0x4300bb10		$d.33
	0x4300bb2c		$a.34
	0x4300bb2c		gatLocalProductDefaultInfoSet
	0x4300be70		$d.35
	0x4300bea4		$a.36
	0x4300bea4		gatProductDefaultInfoSet
	0x4300c1f4		$d.37
.text	0x4300c244	0x5ac	G:\TEMP\GoKit4_Demo\gagent\libgagent.a(qlog.o)	#SHT_PROGBITS,SHF_ALLOC|SHF_EXECINSTR,4
	0x4300c244		$a.0
	0x4300c244		uart_recv
	0x4300c2d0		$d.1
	0x4300c2d8		$a.2
	0x4300c2d8		format_log_msg
	0x4300c37c		$d.3
	0x4300c384		$a.4
	0x4300c384		uart_init
	0x4300c4c0		$d.5
	0x4300c4e4		$a.6
	0x4300c4e4		uart_rx_cb
	0x4300c580		$d.7
	0x4300c588		$a.8
	0x4300c588		uart_tx_cb
	0x4300c5f0		$d.9
	0x4300c5f8		$a.10
	0x4300c5f8		qapi_uart_tx_user_cb_dispatcher
	0x4300c618		qapi_uart_rx_user_cb_dispatcher
	0x4300c638		uart_print
	0x4300c6c4		$d.11
	0x4300c6d0		$a.12
	0x4300c6d0		qc_dbg_uart_init
	0x4300c724		$d.13
	0x4300c730		$a.14
	0x4300c730		qc_uart_dbg
	0x4300c7e8		$d.15
.text	0x4300c7f0	0x348	G:\TEMP\GoKit4_Demo\gagent\libgagent.a(semaph.o)	#SHT_PROGBITS,SHF_ALLOC|SHF_EXECINSTR,4
	0x4300c7f0		$a.0
	0x4300c7f0		semP
	0x4300c7f8		semOp
	0x4300c844		$d.1
	0x4300c848		$a.2
	0x4300c848		semV
	0x4300c850		iofSemInit
	0x4300c96c		$d.3
	0x4300c98c		$a.4
	0x4300c98c		localTrigSend
	0x4300ca3c		$d.5
	0x4300ca50		$a.6
	0x4300ca50		tcpTrigSend
	0x4300cab4		$d.7
	0x4300cac4		$a.8
	0x4300cac4		udpTrigSend
	0x4300cb28		$d.9
.text	0x4300cb38	0xe14	G:\TEMP\GoKit4_Demo\gagent\libgagent.a(simulatorcomm.o)	#SHT_PROGBITS,SHF_ALLOC|SHF_EXECINSTR,4
	0x4300cb38		$a.0
	0x4300cb38		simulatorUploadDtatTimeOutCb
	0x4300cc10		$d.1
	0x4300cc2c		$a.2
	0x4300cc2c		gagentUploadData
	0x4300d49c		$d.3
	0x4300d508		$a.4
	0x4300d508		simulatorUploadDtatCb
	0x4300d6bc		$d.5
	0x4300d6e0		$a.6
	0x4300d6e0		gatSimulatorInit
	0x4300d710		$d.7
	0x4300d718		$a.8
	0x4300d8b0		$d.9
	0x4300d8d8		$a.10
	0x4300d938		$d.11
.text	0x4300d94c	0x244c	G:\TEMP\GoKit4_Demo\gagent\libgagent.a(tcp.o)	#SHT_PROGBITS,SHF_ALLOC|SHF_EXECINSTR,4
	0x4300d94c		$a.0
	0x4300d94c		gatTcpInit
	0x4300da18		$d.1
	0x4300da3c		$a.2
	0x4300da3c		gatTcpDataSendHandle
	0x4300daa0		$d.3
	0x4300dab4		gatTcpSendTask
	0x4300dab4		$a.4
	0x4300e0b8		$d.5
	0x4300e0fc		gatTcpReceiveHandle
	0x4300e0fc		$a.6
	0x4300e410		$d.7
	0x4300e43c		gatTcpRecvDispatch
	0x4300e43c		$a.8
	0x4300e5a4		$d.9
	0x4300e5c4		$a.10
	0x4300e5c4		gatTcpDelChNode
	0x4300e864		$d.11
	0x4300e894		$a.12
	0x4300e894		gatTcpListenAdd
	0x4300ea84		$d.13
	0x4300eaac		$a.14
	0x4300eaac		gatTcpReadRecData
	0x4300ec64		$d.15
	0x4300ec80		$a.16
	0x4300ec80		gatTcpRecv
	0x4300f23c		$d.17
	0x4300f28c		$a.18
	0x4300f28c		gatDelTcpSendNode
	0x4300f464		$d.19
	0x4300f484		$a.20
	0x4300f484		tcpRecHandle
	0x4300f518		$d.21
	0x4300f528		gatDelTcpDataNode
	0x4300f528		$a.22
	0x4300f690		$d.23
	0x4300f6ac		$a.24
	0x4300f6ac		gatTcpSend
	0x4300fa24		$d.25
	0x4300fa5c		$a.26
	0x4300fa5c		sktConnHandle
	0x4300fad8		$d.27
	0x4300fae8		$a.28
	0x4300fae8		tcpSendCBHandle
	0x4300fd54		$d.29
	0x4300fd7c		gatTcpClrChNode
	0x4300fd7c		$a.30
.text	0x4300fd98	0xb0c	G:\TEMP\GoKit4_Demo\gagent\libgagent.a(timer_subsystem.o)	#SHT_PROGBITS,SHF_ALLOC|SHF_EXECINSTR,4
	0x4300fd98		$a.0
	0x4300fd98		gatTimerCoreInit
	0x4300fe14		$d.1
	0x4300fe30		$a.2
	0x4300fe30		gatTimerAdd
	0x4301011c		$d.3
	0x43010148		$a.4
	0x43010148		timerRemove
	0x43010168		$d.5
	0x4301016c		$a.6
	0x4301016c		timerUpdataExpire
	0x430101f8		$d.7
	0x4301020c		$a.8
	0x4301020c		gatTimerDel
	0x4301035c		$d.9
	0x4301037c		$a.10
	0x4301037c		gatTimerTick
	0x43010478		$d.11
	0x43010490		$a.12
	0x43010490		gatTimerHandle
	0x430106a8		$d.13
	0x430106d0		$a.14
	0x430106d0		gatTimerTraversal
	0x4301087c		$d.15
.text	0x430108a4	0xf04	G:\TEMP\GoKit4_Demo\gagent\libgagent.a(aes.o)	#SHT_PROGBITS,SHF_ALLOC|SHF_EXECINSTR,4
	0x430108a4		$a.0
	0x430108a4		gadd
	0x430108ac		gsub
	0x430108b4		gmult
	0x43010908		coef_add
	0x4301094c		coef_mult
	0x43010a74		invSboxInit
	0x43010ab4		$d.1
	0x43010abc		$a.2
	0x43010abc		aesInit
	0x43010afc		$d.3
	0x43010b04		$a.4
	0x43010b04		aesDestroy
	0x43010c34		$d.5
	0x43010c50		$a.6
	0x43010c50		Rcon
	0x43010ca4		$d.7
	0x43010ca8		$a.8
	0x43010ca8		add_round_key
	0x43010d20		mix_columns
	0x43010db8		$d.9
	0x43010dbc		$a.10
	0x43010dbc		inv_mix_columns
	0x43010e54		$d.11
	0x43010e58		$a.12
	0x43010e58		shift_rows
	0x43010ecc		inv_shift_rows
	0x43010f3c		sub_bytes
	0x43010f90		$d.13
	0x43010f94		$a.14
	0x43010f94		inv_sub_bytes
	0x43010fe8		$d.15
	0x43010fec		$a.16
	0x43010fec		sub_word
	0x43011018		$d.17
	0x4301101c		$a.18
	0x4301101c		rot_word
	0x4301104c		key_expansion
	0x43011174		$d.19
	0x43011178		cipher
	0x43011178		$a.20
	0x4301127c		inv_cipher
	0x43011380		aesECB128Encrypt
	0x430114d0		$d.21
	0x430114e8		$a.22
	0x430114e8		aesECB128Decrypt
	0x43011654		$d.23
	0x4301166c		$a.24
	0x4301166c		aesECB128DecryptRaw
	0x43011790		$d.25
.text	0x430117a8	0x1018	G:\TEMP\GoKit4_Demo\gagent\libgagent.a(aesdata.o)	#SHT_PROGBITS,SHF_ALLOC|SHF_EXECINSTR,4
	0x430117a8		$a.0
	0x430117a8		sboxAssign
	0x43011fb4		invSboxAssign
.text	0x430127c0	0xf04	G:\TEMP\GoKit4_Demo\gagent\libgagent.a(authorization.o)	#SHT_PROGBITS,SHF_ALLOC|SHF_EXECINSTR,4
	0x430127c0		$a.0
	0x430127c0		gatAuthkeyGet
	0x4301292c		$d.1
	0x43012944		$a.2
	0x43012944		gatRecAuthKey
	0x43012f3c		$d.3
	0x43012f8c		$a.4
	0x43012f8c		gatGetAuthReqAck
	0x43013198		$d.5
	0x430131d8		$a.6
	0x430131d8		gatWaitAuthKeyTimer
	0x430132a4		$d.7
	0x430132c0		$a.8
	0x430132c0		gatAuthInit
	0x430135ac		$d.9
	0x430135e4		$a.10
	0x430135e4		gatReqAuthKeyTimeOut
	0x430136a8		$d.11
.text	0x430136c4	0x400	G:\TEMP\GoKit4_Demo\gagent\libgagent.a(dp.o)	#SHT_PROGBITS,SHF_ALLOC|SHF_EXECINSTR,4
	0x430136c4		$a.0
	0x430136c4		isInCurMode
	0x430136d8		$d.1
	0x430136dc		$a.2
	0x430136dc		getCurMode
	0x430136e8		$d.3
	0x430136ec		$a.4
	0x430136ec		gatSetCurMode
	0x43013704		$d.5
	0x43013708		$a.6
	0x43013708		gatResetCurMode
	0x43013720		$d.7
	0x43013724		$a.8
	0x43013724		getDpEntry
	0x43013808		$d.9
	0x43013820		$a.10
	0x43013820		dpTrans
	0x43013a94		$d.11
.text	0x43013ac4	0x874	G:\TEMP\GoKit4_Demo\gagent\libgagent.a(env.o)	#SHT_PROGBITS,SHF_ALLOC|SHF_EXECINSTR,4
	0x43013ac4		$a.0
	0x43013ac4		getEnvErase
	0x43013bac		$d.1
	0x43013bc8		$a.2
	0x43013bc8		gatEnvWrite
	0x43014144		$d.3
	0x4301418c		$a.4
	0x4301418c		gatEnvRead
	0x43014318		$d.5
.text	0x43014338	0x260c	G:\TEMP\GoKit4_Demo\gagent\libgagent.a(gagent.o)	#SHT_PROGBITS,SHF_ALLOC|SHF_EXECINSTR,4
	0x43014338		$a.0
	0x43014338		gatReBootTimerStart
	0x430143cc		$d.1
	0x430143ec		gagentRebootTimer
	0x430143ec		$a.2
	0x43014460		$d.3
	0x43014474		$a.4
	0x43014474		gatSetSoftVer
	0x430144ec		$d.5
	0x43014504		$a.6
	0x43014504		gatGetSoftVer
	0x43014568		$d.7
	0x43014580		gatMsgId
	0x43014580		$a.8
	0x4301458c		$d.9
	0x43014590		$a.10
	0x43014590		gagentReBootHandle
	0x430145ec		$d.11
	0x43014600		$a.12
	0x43014600		gatReBoot
	0x43014660		$d.13
	0x43014694		$a.14
	0x43014778		$d.15
	0x430147c8		$a.16
	0x430147c8		gatDealUserPayload90
	0x43014a0c		$d.17
	0x43014a30		gatDataRecCb
	0x43014a30		$a.18
	0x43014bf4		$d.19
	0x43014c1c		gatDealUserPayload93
	0x43014c1c		$a.20
	0x4301546c		$d.21
	0x430154b8		gatTaskHandle
	0x430154b8		$a.22
	0x43015620		$d.23
	0x43015660		$a.24
	0x43015934		$d.25
	0x43015980		$a.26
	0x43015980		gatStatusGet
	0x4301598c		$d.27
	0x43015990		$a.28
	0x43015990		gatStatusSet
	0x43015a7c		$d.29
	0x43015a98		$a.30
	0x43015a98		gatRunTimeDataGet
	0x43015aa0		$d.31
	0x43015aa4		gatNtpTimeUpData
	0x43015aa4		$a.32
	0x43015ab8		$d.33
	0x43015abc		gatCleanConfigData
	0x43015abc		$a.34
	0x43015d7c		$d.35
	0x43015da8		gatDataSend
	0x43015da8		$a.36
	0x430163b0		$d.37
	0x43016400		gatDataSendCb
	0x43016400		$a.38
	0x430166d8		$d.39
	0x43016714		$a.40
	0x43016714		gatRunTimeDataInit
	0x430167d0		$d.41
	0x430167ec		$a.42
	0x430167ec		gatInit
	0x430168e4		$d.43
	0x4301690c		$a.44
	0x4301690c		printfGod
	0x4301693c		$d.45
.text	0x43016944	0xac	G:\TEMP\GoKit4_Demo\gagent\libgagent.a(gatlist.o)	#SHT_PROGBITS,SHF_ALLOC|SHF_EXECINSTR,4
	0x43016944		$a.0
	0x43016944		gatListHeadInit
	0x43016950		__gatListAdd
	0x43016960		gatListAdd
	0x43016974		gatListAddTail
	0x4301698c		__gatListDel
	0x43016998		gatListDel
	0x430169b0		gatListEmpty
	0x430169c8		gatListEmptyCareful
.text	0x430169f0	0x2648	G:\TEMP\GoKit4_Demo\gagent\libgagent.a(gatm2m.o)	#SHT_PROGBITS,SHF_ALLOC|SHF_EXECINSTR,4
	0x430169f0		$a.0
	0x430169f0		m2mInfoGet
	0x430169f8		$d.1
	0x430169fc		$a.2
	0x430169fc		m2mInfoSet
	0x43016ca4		$d.3
	0x43016cd8		$a.4
	0x43016cd8		m2mSktRecCb
	0x43016e08		$d.5
	0x43016e28		m2mSktConnCb
	0x43016e28		$a.6
	0x430170ac		$d.7
	0x430170e8		$a.8
	0x430170e8		m2mSend
	0x43017250		$d.9
	0x43017274		$a.10
	0x43017274		gatM2MReStartServerTimeOut
	0x4301728c		m2mSocketErrHandle
	0x430172a8		$d.11
	0x430172ac		$a.12
	0x430172ac		m2mSktDisConnCb
	0x430172b0		gatGetM2MDomain
	0x430172bc		$d.13
	0x430172c0		$a.14
	0x430172c0		gatSetM2MDomain
	0x4301733c		$d.15
	0x43017354		$a.16
	0x43017354		gatGetM2MPort
	0x43017360		$d.17
	0x43017364		$a.18
	0x43017364		gatSetM2MPort
	0x430173d4		$d.19
	0x430173ec		$a.20
	0x430173ec		gatM2MSocketConnect
	0x430174f0		$d.21
	0x43017508		$a.22
	0x43017508		onM2MLoginCb
	0x430176f0		$d.23
	0x43017718		$a.24
	0x43017718		onM2MSubTopicCb
	0x43017834		$d.25
	0x43017854		$a.26
	0x43017854		onM2MUserDataRecCb
	0x43017b34		$d.27
	0x43017b64		$a.28
	0x43017b64		onM2MHeartBeatCb
	0x43017bc0		$d.29
	0x43017bd4		$a.30
	0x43017bd4		onAppOnLineNumCb
	0x43017e6c		$d.31
	0x43017ea4		$a.32
	0x43017ea4		onOTA41EventNoticCb
	0x43018328		$d.33
	0x43018378		onOTA4EventNoticCb
	0x43018378		$a.34
	0x430183d0		$d.35
	0x430183e4		cloudSendDataCb
	0x430183e4		$a.36
	0x4301844c		$d.37
	0x43018460		$a.38
	0x43018460		gatWanClinetNumGet
	0x4301846c		$d.39
	0x43018470		gatM2MInit
	0x43018470		$a.40
	0x430184b0		$d.41
	0x430184b8		gatM2MHandleGatStatus
	0x430184b8		$a.42
	0x430185d8		$d.43
	0x430185f4		$a.44
	0x430185f4		gatM2MReInit
	0x43018684		$d.45
	0x4301869c		gatM2MServerStart
	0x4301869c		$a.46
	0x4301874c		$d.47
	0x43018770		gatm2mDnsCb
	0x43018770		$a.48
	0x43018874		$d.49
	0x43018894		gatM2MServerStop
	0x43018894		$a.50
	0x4301891c		$d.51
	0x43018934		gatM2MReStartServer
	0x43018934		$a.52
	0x43018a34		$d.53
	0x43018a58		gatM2MStopReStartServer
	0x43018a58		$a.54
	0x43018a68		$d.55
	0x43018a6c		$a.56
	0x43018a6c		gatResCloudCtrl
	0x43018cbc		$d.57
	0x43018cec		$a.58
	0x43018cec		gatM2MCommand
	0x43019000		$d.59
.text	0x43019038	0x1d14	G:\TEMP\GoKit4_Demo\gagent\libgagent.a(gatnet.o)	#SHT_PROGBITS,SHF_ALLOC|SHF_EXECINSTR,4
	0x43019038		$a.0
	0x43019038		gatNetConnParaGet
	0x43019040		$d.1
	0x43019044		$a.2
	0x43019044		gatRouterConnTimeout
	0x430192c8		$d.3
	0x430192f8		gatRouterUpdateInfo
	0x430192f8		$a.4
	0x43019580		$d.5
	0x430195a8		gatNetEventHandle
	0x430195a8		$a.6
	0x43019644		$d.7
	0x43019664		$a.8
	0x43019664		gatNetExcepTimeout
	0x430196c8		$d.9
	0x430196dc		$a.10
	0x430196dc		gatNetInit
	0x43019a0c		$d.11
	0x43019a4c		$a.12
	0x43019a4c		gatNetConfig
	0x43019b74		$d.13
	0x43019b98		gatAirlinkCb
	0x43019b98		$a.14
	0x43019d04		$d.15
	0x43019d20		gatConfigDataParse
	0x43019d20		$a.16
	0x4301a000		$d.17
	0x4301a0f4		$a.18
	0x4301a22c		$d.19
	0x4301a23c		$a.20
	0x4301a674		$d.21
	0x4301a6e0		gatEnterTestMode
	0x4301a6e0		$a.22
	0x4301a76c		$d.23
	0x4301a788		$a.24
	0x4301a788		gatNetWriteConfig
	0x4301aae8		$d.25
	0x4301ab14		$a.26
	0x4301ab14		gatTestModeTick
	0x4301ac24		$d.27
	0x4301ac48		$a.28
	0x4301ac48		gatExitTest
	0x4301ad34		$d.29
.text	0x4301ad4c	0xb20	G:\TEMP\GoKit4_Demo\gagent\libgagent.a(gatutilcode.o)	#SHT_PROGBITS,SHF_ALLOC|SHF_EXECINSTR,4
	0x4301ad4c		$a.0
	0x4301ad4c		getKeyValueCustom
	0x4301af38		$d.1
	0x4301af4c		$a.2
	0x4301af4c		getKeyValue
	0x4301af54		iofToupper
	0x4301af68		strToHex
	0x4301b000		hexToStr
	0x4301b054		$d.3
	0x4301b05c		$a.4
	0x4301b05c		gatIofInet_addr
	0x4301b18c		isleap
	0x4301b1d0		get_yeardays
	0x4301b1f0		gatNtp2Wt
	0x4301b390		$d.5
	0x4301b3ac		$a.6
	0x4301b3ac		gatUpLoadDataCombine
	0x4301b730		$d.7
	0x4301b750		$a.8
	0x4301b750		adStrtoul
	0x4301b868		encryptDisplay
.text	0x4301b86c	0xab8	G:\TEMP\GoKit4_Demo\gagent\libgagent.a(gdns.o)	#SHT_PROGBITS,SHF_ALLOC|SHF_EXECINSTR,4
	0x4301b86c		$a.0
	0x4301b86c		dnsDataDump
	0x4301bb1c		$d.1
	0x4301bb50		$a.2
	0x4301bb50		gatGetHostByName
	0x4301bd74		$d.3
	0x4301bd98		$a.4
	0x4301bd98		gatDnsTask
	0x4301be58		$d.5
	0x4301be6c		$a.6
	0x4301be6c		_dnsTick
	0x4301bfa8		$d.7
	0x4301bfc4		$a.8
	0x4301bfc4		_getDnsReqByName
	0x4301c03c		$d.9
	0x4301c048		$a.10
	0x4301c048		_dnsResult
	0x4301c2bc		$d.11
	0x4301c2f0		$a.12
	0x4301c2f0		_dnsResultCb
.text	0x4301c324	0x3f68	G:\TEMP\GoKit4_Demo\gagent\libgagent.a(gserver.o)	#SHT_PROGBITS,SHF_ALLOC|SHF_EXECINSTR,4
	0x4301c324		$a.0
	0x4301c324		Http_Decrypt_RES
	0x4301c91c		$d.1
	0x4301c950		gatParsingGServerErrcode
	0x4301c950		$a.2
	0x4301ca30		$d.3
	0x4301ca44		$a.4
	0x4301ca44		gatRegsiter
	0x4301d950		$d.5
	0x4301d954		$a.6
	0x4301db64		$d.7
	0x4301db78		$a.8
	0x4301dc5c		$d.9
	0x4301dc70		$a.10
	0x4301dd40		$d.11
	0x4301dd54		$a.12
	0x4301df60		$d.13
	0x4301df74		$a.14
	0x4301df84		$d.15
	0x4301e048		$a.16
	0x4301e048		gatProvision
	0x4301e2e0		$d.17
	0x4301e314		$a.18
	0x4301e314		gatProvisionRecCb
	0x4301eac4		$d.19
	0x4301eb30		gatNormalDeviceDisable
	0x4301eb30		$a.20
	0x4301ed68		$d.21
	0x4301eda0		$a.22
	0x4301eda0		gatDeviceDisableRecCb
	0x4301f1ac		$d.23
	0x4301f1f4		$a.24
	0x4301f1f4		gatGServerStart
	0x4301f5c4		$d.25
	0x4301f5fc		$a.26
	0x4301f5fc		gserverDnsCb
	0x4301f738		$d.27
	0x4301f754		$a.28
	0x4301f754		gatRegsiterRecCb
	0x4301fcfc		$d.29
	0x4301fd58		$a.30
	0x4301fd58		gatGServerInit
	0x4301fd64		$d.31
	0x4301fd68		gatGServerHandleGatStatus
	0x4301fd68		$a.32
	0x4301ffe4		$d.33
	0x4302001c		gatProvisionTimer
	0x4302001c		$a.34
	0x43020030		gatRegsiterTimer
	0x43020184		$d.35
	0x430201a8		gserverExcepTimeout
	0x430201a8		$a.36
	0x43020274		$d.37
.text	0x4302028c	0x300c	G:\TEMP\GoKit4_Demo\gagent\libgagent.a(httpgat.o)	#SHT_PROGBITS,SHF_ALLOC|SHF_EXECINSTR,4
	0x4302028c		$a.0
	0x4302028c		gatHttpInit
	0x430202e4		$d.1
	0x430202f4		$a.2
	0x430202f4		httpDelSendNode
	0x43020458		$d.3
	0x43020474		httpDelRecNode
	0x43020474		$a.4
	0x43020664		$d.5
	0x43020680		$a.6
	0x43020680		httpRecCb
	0x43021668		$d.7
	0x4302166c		$a.8
	0x430216b8		$d.9
	0x430216dc		$a.10
	0x4302184c		$d.11
	0x43021850		$a.12
	0x4302187c		$d.13
	0x43021884		$a.14
	0x43021a3c		$d.15
	0x43021a40		$a.16
	0x43021b4c		$d.17
	0x43021b50		$a.18
	0x43021c28		$d.19
	0x43021c38		$a.20
	0x43021d8c		$d.21
	0x43021e28		$a.22
	0x43021e28		gatHTTPRecvTick
	0x43021f8c		$d.23
	0x43021fa8		httpSendResult
	0x43021fa8		$a.24
	0x43021fe8		httpSigHandle
	0x430221b8		$d.25
	0x430221dc		$a.26
	0x430221dc		httpConnCb
	0x43022564		$d.27
	0x430225a4		$a.28
	0x430225a4		httpSendCb
	0x430227b0		$d.29
	0x430227d4		$a.30
	0x430227d4		gatHttpReq
	0x43022b0c		$d.31
	0x43022b1c		$a.32
	0x43022f9c		$d.33
	0x43022ff4		$a.34
	0x43022ff4		httpParseRescode
	0x430230e0		$d.35
	0x430230f0		$a.36
	0x430230f0		httpPostContextAdapter
	0x430231e4		$d.37
	0x430231e8		$a.38
	0x430231e8		httpBodyUserCb
	0x43023290		$d.39
.text	0x43023298	0x101c	G:\TEMP\GoKit4_Demo\gagent\libgagent.a(ioffile.o)	#SHT_PROGBITS,SHF_ALLOC|SHF_EXECINSTR,4
	0x43023298		$a.0
	0x43023298		iofFileOpen
	0x4302348c		$d.1
	0x430234ac		$a.2
	0x430234ac		fs_errorMsg
	0x43023534		$d.3
	0x43023574		$a.4
	0x43023584		$d.5
	0x430235d4		$a.6
	0x430235d4		iofFileClose
	0x43023688		$d.7
	0x4302369c		$a.8
	0x4302369c		iofFileRead
	0x430237fc		$d.9
	0x43023818		$a.10
	0x43023818		iofFileWrite
	0x43023c4c		$d.11
	0x43023c78		$a.12
	0x43023c78		iofFileErase
	0x43023dc4		$d.13
	0x43023ddc		$a.14
	0x43023ddc		iofFileProductInfoTransformation
	0x43024298		$d.15
.text	0x430242b4	0x2810	G:\TEMP\GoKit4_Demo\gagent\libgagent.a(iofnet.o)	#SHT_PROGBITS,SHF_ALLOC|SHF_EXECINSTR,4
	0x430242b4		$a.0
	0x430242b4		gatNetLocalIp
	0x430242bc		$d.1
	0x430242c0		gatNetCacheSSIDGet
	0x430242c0		$a.2
	0x430242c8		$d.3
	0x430242cc		gatNetCachePwdGet
	0x430242cc		$a.4
	0x430242d4		$d.5
	0x430242d8		$a.6
	0x430242d8		gatNetCacheBSSIDGet
	0x430242e0		gatNetBackupSSIDGet
	0x43024310		gatNetBackupPwdGet
	0x43024340		gatNetBackupBSSIDGet
	0x43024370		gatNetCacheSSIDSet
	0x430243a0		gatNetCachePwdSet
	0x430243d4		gatNetCacheBSSIDSet
	0x43024408		gatNetBackupSSIDSet
	0x4302443c		gatNetBackupPwdSet
	0x43024470		gatNetBackupBSSIDSet
	0x430244a4		gatNetStationStart
	0x430244cc		gatNetStationStop
	0x430244d4		gatNetSoftApStart
	0x43024558		$d.7
	0x4302456c		gatNetSoftApStop
	0x4302456c		$a.8
	0x43024574		gatNetMACGet
	0x4302475c		$d.9
	0x43024788		gatIofNetInit
	0x43024788		$a.10
	0x4302486c		$d.11
	0x4302488c		$a.12
	0x4302488c		gatIofNetGetRssi
	0x430249e8		$d.13
	0x43024a08		$a.14
	0x43024a08		gatNetGetSignalLevel
	0x43024a64		gatOpenAirlink
	0x43024a88		$d.15
	0x43024a90		$a.16
	0x43024a90		gatCloseAirlink
	0x43024a98		gatWiFiScanResult
	0x43024aa0		$d.17
	0x43024aa4		$a.18
	0x43024aa4		iofWifiScan
	0x43024b24		$d.19
	0x43024b3c		$a.20
	0x43024b3c		gatNetStartScan
	0x43024ca8		$d.21
	0x43024ccc		$a.22
	0x43024ccc		iofGetHostByName
	0x43024db8		$d.23
	0x43024dd4		get_ip_from_url
	0x43024dd4		$a.24
	0x4302527c		$d.25
	0x430252ac		iofGatGetHostByName
	0x430252ac		$a.26
	0x4302537c		$d.27
	0x43025390		iofNetDnsHandle
	0x43025390		$a.28
	0x4302553c		$d.29
	0x43025560		iofNetCheckNetStatus
	0x43025560		$a.30
	0x43025694		$d.31
	0x430256b0		$a.32
	0x430256b0		tcp_inet_ntoa
	0x43025714		$d.33
	0x43025718		$a.34
	0x43025718		tcp_show_sysinfo
	0x43025adc		$d.35
	0x43025b10		$a.36
	0x43025b10		tcp_netctrl_start
	0x43025ffc		$d.37
	0x43026048		tcp_netctrl_stop
	0x43026048		$a.38
	0x430260fc		$d.39
	0x43026114		iofNetActiveHandle
	0x43026114		$a.40
	0x43026590		$d.41
	0x430265d4		dns_parser
	0x430265d4		$a.42
	0x430266d8		$d.43
	0x430266f0		$a.44
	0x430266f0		tcp_net_event_cb
	0x43026a30		$d.45
	0x43026a60		$a.46
	0x43026a60		qapi_dss_cb_uspace_dispatcher
	0x43026ac0		$d.47
.text	0x43026ac4	0x86c	G:\TEMP\GoKit4_Demo\gagent\libgagent.a(iofserial.o)	#SHT_PROGBITS,SHF_ALLOC|SHF_EXECINSTR,4
	0x43026ac4		$a.0
	0x43026ac4		iofSerialRecGet
	0x43026ad0		$d.1
	0x43026ad4		$a.2
	0x43026ad4		iofSerialOpen
	0x43026d70		$d.3
	0x43026db0		$a.4
	0x43026db0		SerialRxCb
	0x43026e20		$d.5
	0x43026e38		$a.6
	0x43026e38		SerialTxCb
	0x43026e90		$d.7
	0x43026ea4		$a.8
	0x43026ea4		qapi_uart_tx_user_cb_dispatcher
	0x43026ec4		qapi_uart_rx_user_cb_dispatcher
	0x43026ee4		iofSerialInit
	0x43026f8c		$d.9
	0x43026fac		$a.10
	0x43026fac		iofSerialSelect
	0x43027014		$d.11
	0x4302702c		$a.12
	0x4302702c		iofSerialSend
	0x430271d0		$d.13
	0x43027200		$a.14
	0x43027200		iofSerialRead
	0x4302730c		$d.15
.text	0x43027330	0x5c8	G:\TEMP\GoKit4_Demo\gagent\libgagent.a(iofsocket.o)	#SHT_PROGBITS,SHF_ALLOC|SHF_EXECINSTR,4
	0x43027330		$a.0
	0x43027330		gatIofSocketClose
	0x430273d4		$d.1
	0x430273ec		$a.2
	0x430273ec		gatIofSocketConnect
	0x4302760c		$d.3
	0x4302762c		$a.4
	0x4302762c		gatIofTcpSend
	0x430277c8		$d.5
	0x430277e0		$a.6
	0x430277e0		gatTcpSendResult
	0x4302780c		gatIofUdpSend
	0x43027814		gatIofSocketTcpRecv
	0x43027864		$d.7
	0x43027868		$a.8
	0x43027868		gatIofSocketUdpRecv
	0x43027870		gatIofSelect
	0x430278c8		gatIofTcpCreateServer
	0x430278d0		gatIofTcpServerListen
	0x430278d8		gatCreateUDPServer
	0x430278e0		gatIofUdpCreateBCServer
	0x430278e8		gatIofSocketInit
	0x430278ec		gatIofTcpSocketInfoGet
	0x430278f0		gatIofUdpSocketInfoGet
.text	0x430278f8	0x564	G:\TEMP\GoKit4_Demo\gagent\libgagent.a(ioftime.o)	#SHT_PROGBITS,SHF_ALLOC|SHF_EXECINSTR,4
	0x430278f8		$a.0
	0x430278f8		milliseconds_sleep
	0x43027908		iofThreadDelay
	0x43027918		getDevTime_MS
	0x430279c0		$d.1
	0x430279d8		$a.2
	0x430279d8		getDevTime_S
	0x43027a80		$d.3
	0x43027a98		$a.4
	0x43027a98		iofTimerInit
	0x43027b94		$d.5
	0x43027bb4		$a.6
	0x43027bb4		timerCb
	0x43027bcc		iofCurTime
	0x43027bd0		iofLocalTimerMSStart
	0x43027d1c		$d.7
	0x43027d44		$a.8
	0x43027d44		iofLocalTimerMSStop
	0x43027e44		$d.9
.text	0x43027e5c	0x80	G:\TEMP\GoKit4_Demo\gagent\libgagent.a(lanvirtual.o)	#SHT_PROGBITS,SHF_ALLOC|SHF_EXECINSTR,4
	0x43027e5c		$a.0
	0x43027e5c		isLoginClient
	0x43027e64		gatLanSend
	0x43027ec0		$d.1
	0x43027ed4		$a.2
	0x43027ed4		gatLanLoginClientNumGet
.text	0x43027edc	0x17a8	G:\TEMP\GoKit4_Demo\gagent\libgagent.a(mqttgat.o)	#SHT_PROGBITS,SHF_ALLOC|SHF_EXECINSTR,4
	0x43027edc		$a.0
	0x43027edc		mqttConnBrokerInit
	0x43027fa8		$d.1
	0x43027fc0		$a.2
	0x43027fc0		mqttDoHeartBeat
	0x43028218		$d.3
	0x43028244		mqttPingTimeSetAlive
	0x43028244		$a.4
	0x43028260		mqttExtractPacket
	0x43028380		$d.5
	0x430283b0		$a.6
	0x43028bd0		$d.7
	0x43028c3c		mqttDataHandle
	0x43028c3c		$a.8
	0x43028ce4		$d.9
	0x43028d14		$a.10
	0x43028f0c		$d.11
	0x43028f3c		$a.12
	0x43028f3c		mqttSubTopicS
	0x43029040		$d.13
	0x43029054		$a.14
	0x43029054		mqttSendPubData
	0x430290d8		gatMqttInit
	0x43029158		$d.15
	0x43029174		gatMqttReInit
	0x43029174		$a.16
	0x43029298		$d.17
	0x430292b8		gatM2MHeartBeatStart
	0x430292b8		$a.18
	0x43029340		$d.19
	0x4302935c		gatM2MHeartBeatStop
	0x4302935c		$a.20
	0x430293c0		$d.21
	0x430293d4		gatCleanMqttCacheBuf
	0x430293d4		$a.22
	0x430294a8		$d.23
	0x430294c4		gatCloudGizDataSend
	0x430294c4		$a.24
	0x43029664		$d.25
.text	0x43029684	0x1330	G:\TEMP\GoKit4_Demo\gagent\libgagent.a(mqttlib.o)	#SHT_PROGBITS,SHF_ALLOC|SHF_EXECINSTR,4
	0x43029684		$a.0
	0x43029684		mqtt_num_rem_len_bytes_safe
	0x430297b4		$d.1
	0x430297d0		$a.2
	0x430297d0		mqtt_num_rem_len_bytes
	0x43029808		mqtt_len_of_bytes
	0x43029858		mqtt_parse_rem_len
	0x43029894		mqtt_parse_msg_id
	0x43029914		mqtt_parse_pub_topic_ptr
	0x43029960		mqtt_parse_publish_msg
	0x43029990		mqtt_parse_pub_msg_ptr
	0x43029a08		mqtt_init
	0x43029a88		mqtt_init_auth
	0x43029adc		mqtt_set_alive
	0x43029ae4		mqtt_connect
	0x4302a0c4		$d.3
	0x4302a0f8		$a.4
	0x4302a0f8		mqtt_disconnect
	0x4302a140		mqtt_ping
	0x4302a188		mqtt_publish_with_qos
	0x4302a580		$d.5
	0x4302a5b0		$a.6
	0x4302a5b0		mqtt_subscribes
	0x4302a984		$d.7
.text	0x4302a9b4	0x1f78	G:\TEMP\GoKit4_Demo\gagent\libgagent.a(otawan.o)	#SHT_PROGBITS,SHF_ALLOC|SHF_EXECINSTR,4
	0x4302a9b4		$a.0
	0x4302a9b4		gatWanOtaParmGet
	0x4302a9bc		$d.1
	0x4302a9c0		gatWanOtaStatusGet
	0x4302a9c0		$a.2
	0x4302aa24		$d.3
	0x4302aa3c		$a.4
	0x4302aa3c		gatOTAEventHandle
	0x4302aba8		$d.5
	0x4302abc4		$a.6
	0x4302abc4		gatReqLastVersion
	0x4302ad90		$d.7
	0x4302adcc		$a.8
	0x4302adcc		gatGetMD5
	0x4302afa4		$d.9
	0x4302afc8		$a.10
	0x4302afc8		gatGetFileType
	0x4302b1a0		$d.11
	0x4302b1c8		$a.12
	0x4302b1c8		gatReqLastVersionCb
	0x4302b994		$d.13
	0x4302ba04		$a.14
	0x4302ba04		gatDownloadFirmware
	0x4302bb38		$d.15
	0x4302bb54		$a.16
	0x4302bb54		gatDownLoadFirmwareCb
	0x4302c748		$d.17
	0x4302c7f0		$a.18
	0x4302c7f0		gatWanOtaStatusSet
	0x4302c858		$d.19
	0x4302c870		$a.20
	0x4302c870		gatReDownloadTimerCb
	0x4302c914		$d.21
.text	0x4302c92c	0xc34	G:\TEMP\GoKit4_Demo\gagent\libgagent.a(gagent_md5.o)	#SHT_PROGBITS,SHF_ALLOC|SHF_EXECINSTR,4
	0x4302c92c		$a.0
	0x4302c92c		GAgent_MD5Init
	0x4302c95c		$d.1
	0x4302c96c		$a.2
	0x4302c96c		GAgent_MD5Update
	0x4302ca2c		GAgent_MD5Transform
	0x4302d354		$d.3
	0x4302d450		$a.4
	0x4302d450		GAgent_MD5Final
	0x4302d4c4		$d.5
	0x4302d4c8		$a.6
	0x4302d4c8		GAgent_MD5Encode
	0x4302d518		GAgent_MD5Decode
.text	0x4302d560	0x45bc	G:\TEMP\GoKit4_Demo\gagent\libgagent.a(simulator.o)	#SHT_PROGBITS,SHF_ALLOC|SHF_EXECINSTR,4
	0x4302d560		$a.0
	0x4302d560		simulatorLogOutCloudTimeOutCb
	0x4302d634		$d.1
	0x4302d650		$a.2
	0x4302d650		onSimulatorLoginCb
	0x4302d84c		$d.3
	0x4302d85c		$a.4
	0x4302da2c		$d.5
	0x4302da68		onSimulatorSignOutCb
	0x4302da68		$a.6
	0x4302dc74		$d.7
	0x4302dca4		gatSubDevsLoginCb
	0x4302dca4		$a.8
	0x4302dd8c		$d.9
	0x4302dda4		$a.10
	0x4302dda4		gatSubDevsRegisterCb
	0x4302dec4		$d.11
	0x4302dee4		$a.12
	0x4302dee4		gagentDevsLogin
	0x4302e4d0		$d.13
	0x4302e52c		$a.14
	0x4302e52c		gagentconnect2M2M
	0x4302e7f8		$d.15
	0x4302e830		$a.16
	0x4302e830		gagentDevsRegister
	0x4302f5c8		$d.17
	0x4302f670		$a.18
	0x4302f670		gagentDisconnectM2M
	0x4302f9a4		$d.19
	0x4302f9e4		$a.20
	0x4302f9e4		simulatorM2MSignOutSocketCb
	0x4302fad0		$d.21
	0x4302faec		$a.22
	0x4302faec		gagentResetSimulator
	0x4302fd10		$d.23
	0x4302fd24		$a.24
	0x4302fe64		$d.25
	0x4302fea0		simulatorGServerResetRec_Cb
	0x4302fea0		$a.26
	0x430306fc		$d.27
	0x4303076c		gatRegsiterSubRecCb
	0x4303076c		$a.28
	0x4303154c		$d.29
	0x430315bc		$a.30
	0x430315bc		simulatorDevsLoginTimeOutCb
	0x43031738		$d.31
	0x4303175c		gatRegsiterErrorHandle
	0x4303175c		$a.32
	0x43031aec		$d.33
.text.qapi_Timer_Get_Cbinfo	0x43031b1c	0x38	sdk\libs\timer_dam_lib.lib(qapi_timer_user.o)	#SHT_PROGBITS,SHF_ALLOC|SHF_EXECINSTR,4
	0x43031b1c		$t.0
	0x43031b1d		qapi_Timer_Get_Cbinfo
	0x43031b50		$d.1
.text.timer_client_cb_handler	0x43031b54	0x28	sdk\libs\timer_dam_lib.lib(qapi_timer_user.o)	#SHT_PROGBITS,SHF_ALLOC|SHF_EXECINSTR,2
	0x43031b54		$t.2
	0x43031b55		timer_client_cb_handler
.text.qapi_timer_user_init	0x43031b7c	0xb4	sdk\libs\timer_dam_lib.lib(qapi_timer_user.o)	#SHT_PROGBITS,SHF_ALLOC|SHF_EXECINSTR,4
	0x43031b7c		$t.3
	0x43031b7d		qapi_timer_user_init
	0x43031c0c		$d.4
.text.qapi_Timer_Def	0x43031c30	0x54	sdk\libs\timer_dam_lib.lib(qapi_timer_user.o)	#SHT_PROGBITS,SHF_ALLOC|SHF_EXECINSTR,4
	0x43031c30		$t.5
	0x43031c31		qapi_Timer_Def
	0x43031c78		$d.6
.text.qapi_Timer_Set	0x43031c84	0x38	sdk\libs\timer_dam_lib.lib(qapi_timer_user.o)	#SHT_PROGBITS,SHF_ALLOC|SHF_EXECINSTR,4
	0x43031c84		$t.7
	0x43031c85		qapi_Timer_Set
	0x43031cb8		$d.8
.text.qapi_Timer_Get_Timer_Info	0x43031cbc	0x38	sdk\libs\timer_dam_lib.lib(qapi_timer_user.o)	#SHT_PROGBITS,SHF_ALLOC|SHF_EXECINSTR,4
	0x43031cbc		$t.9
	0x43031cbd		qapi_Timer_Get_Timer_Info
	0x43031cf0		$d.10
.text.qapi_Timer_Sleep	0x43031cf4	0x38	sdk\libs\timer_dam_lib.lib(qapi_timer_user.o)	#SHT_PROGBITS,SHF_ALLOC|SHF_EXECINSTR,4
	0x43031cf4		$t.11
	0x43031cf5		qapi_Timer_Sleep
	0x43031d28		$d.12
.text.qapi_Timer_Undef	0x43031d2c	0x34	sdk\libs\timer_dam_lib.lib(qapi_timer_user.o)	#SHT_PROGBITS,SHF_ALLOC|SHF_EXECINSTR,4
	0x43031d2c		$t.13
	0x43031d2d		qapi_Timer_Undef
	0x43031d5c		$d.14
.text.qapi_Timer_Stop	0x43031d60	0x34	sdk\libs\timer_dam_lib.lib(qapi_timer_user.o)	#SHT_PROGBITS,SHF_ALLOC|SHF_EXECINSTR,4
	0x43031d60		$t.15
	0x43031d61		qapi_Timer_Stop
	0x43031d90		$d.16
.text.qapi_time_get	0x43031d94	0x3c	sdk\libs\timer_dam_lib.lib(qapi_timer_user.o)	#SHT_PROGBITS,SHF_ALLOC|SHF_EXECINSTR,4
	0x43031d94		$t.17
	0x43031d95		qapi_time_get
	0x43031dcc		$d.18
.text._txm_module_thread_shell_entry	0x43031dd0	0x94	sdk\libs\txm_lib.lib(txm_module_thread_shell_entry.o)	#SHT_PROGBITS,SHF_ALLOC|SHF_EXECINSTR,4
	0x43031dd0		$a.0
	0x43031dd0		_txm_module_thread_shell_entry
	0x43031e58		$d.1
.text._txm_module_callback_request_thread_entry	0x43031e64	0x108	sdk\libs\txm_lib.lib(txm_module_callback_request_thread_entry.o)	#SHT_PROGBITS,SHF_ALLOC|SHF_EXECINSTR,4
	0x43031e64		$a.0
	0x43031e64		_txm_module_callback_request_thread_entry
	0x43031ebc		$d.1
	0x43031ed0		$a.2
	0x43031f64		$d.3
.text._txm_module_system_call11	0x43031f6c	0x68	sdk\libs\txm_lib.lib(txm_module_system_call11.o)	#SHT_PROGBITS,SHF_ALLOC|SHF_EXECINSTR,4
	0x43031f6c		$a.0
	0x43031f6c		_txm_module_system_call11
	0x43031fd0		$d.1
.text._txm_module_system_call12	0x43031fd4	0x70	sdk\libs\txm_lib.lib(txm_module_system_call12.o)	#SHT_PROGBITS,SHF_ALLOC|SHF_EXECINSTR,4
	0x43031fd4		$a.0
	0x43031fd4		_txm_module_system_call12
	0x43032040		$d.1
.text._txm_module_system_call4	0x43032044	0x2c	sdk\libs\txm_lib.lib(txm_module_system_call4.o)	#SHT_PROGBITS,SHF_ALLOC|SHF_EXECINSTR,4
	0x43032044		$a.0
	0x43032044		_txm_module_system_call4
	0x4303206c		$d.1
.text._txm_module_system_call5	0x43032070	0x34	sdk\libs\txm_lib.lib(txm_module_system_call5.o)	#SHT_PROGBITS,SHF_ALLOC|SHF_EXECINSTR,4
	0x43032070		$a.0
	0x43032070		_txm_module_system_call5
	0x430320a0		$d.1
.text._txm_module_system_call6	0x430320a4	0x3c	sdk\libs\txm_lib.lib(txm_module_system_call6.o)	#SHT_PROGBITS,SHF_ALLOC|SHF_EXECINSTR,4
	0x430320a4		$a.0
	0x430320a4		_txm_module_system_call6
	0x430320dc		$d.1
.text._txm_module_system_call7	0x430320e0	0x44	sdk\libs\txm_lib.lib(txm_module_system_call7.o)	#SHT_PROGBITS,SHF_ALLOC|SHF_EXECINSTR,4
	0x430320e0		$a.0
	0x430320e0		_txm_module_system_call7
	0x43032120		$d.1
.text._txm_module_system_call8	0x43032124	0x4c	sdk\libs\txm_lib.lib(txm_module_system_call8.o)	#SHT_PROGBITS,SHF_ALLOC|SHF_EXECINSTR,4
	0x43032124		$a.0
	0x43032124		_txm_module_system_call8
	0x4303216c		$d.1
.text.tolower	0x43032170	0xe	D:\4.0.3\armv7m-none-eabi\libc\lib/libc.a(tolower.o)	#SHT_PROGBITS,SHF_ALLOC|SHF_EXECINSTR,2
	0x43032170		$t
	0x43032171		tolower
.text.__tolower_l	0x4303217e	0x4	D:\4.0.3\armv7m-none-eabi\libc\lib/libc.a(tolower.o)	#SHT_PROGBITS,SHF_ALLOC|SHF_EXECINSTR,2
	0x4303217e		$t
	0x4303217f		__tolower_l
	0x4303217f		tolower_l
.text.toupper	0x43032182	0xe	D:\4.0.3\armv7m-none-eabi\libc\lib/libc.a(toupper.o)	#SHT_PROGBITS,SHF_ALLOC|SHF_EXECINSTR,2
	0x43032182		$t
	0x43032183		toupper
.text.__toupper_l	0x43032190	0x4	D:\4.0.3\armv7m-none-eabi\libc\lib/libc.a(toupper.o)	#SHT_PROGBITS,SHF_ALLOC|SHF_EXECINSTR,2
	0x43032190		$t
	0x43032191		__toupper_l
	0x43032191		toupper_l
.text.malloc	0x43032194	0x1b8	D:\4.0.3\armv7m-none-eabi\libc\lib/libc.a(malloc.o)	#SHT_PROGBITS,SHF_ALLOC|SHF_EXECINSTR,4
	0x43032194		$t
	0x43032195		malloc
	0x43032334		$d
.text.adjust_size	0x4303234c	0x34	D:\4.0.3\armv7m-none-eabi\libc\lib/libc.a(malloc.o)	#SHT_PROGBITS,SHF_ALLOC|SHF_EXECINSTR,4
	0x4303234c		$t
	0x4303234d		adjust_size
	0x4303237c		$d
.text.alloc_rev	0x43032380	0x40	D:\4.0.3\armv7m-none-eabi\libc\lib/libc.a(malloc.o)	#SHT_PROGBITS,SHF_ALLOC|SHF_EXECINSTR,2
	0x43032380		$t
	0x43032381		alloc_rev
.text.lock_bin	0x430323c0	0x28	D:\4.0.3\armv7m-none-eabi\libc\lib/libc.a(malloc.o)	#SHT_PROGBITS,SHF_ALLOC|SHF_EXECINSTR,4
	0x430323c0		$t
	0x430323c1		lock_bin
	0x430323e4		$d
.text.unbin	0x430323e8	0x68	D:\4.0.3\armv7m-none-eabi\libc\lib/libc.a(malloc.o)	#SHT_PROGBITS,SHF_ALLOC|SHF_EXECINSTR,4
	0x430323e8		$t
	0x430323e9		unbin
	0x4303244c		$d
.text.unlock_bin	0x43032450	0x10	D:\4.0.3\armv7m-none-eabi\libc\lib/libc.a(malloc.o)	#SHT_PROGBITS,SHF_ALLOC|SHF_EXECINSTR,4
	0x43032450		$t
	0x43032451		unlock_bin
	0x4303245c		$d
.text.trim	0x43032460	0x32	D:\4.0.3\armv7m-none-eabi\libc\lib/libc.a(malloc.o)	#SHT_PROGBITS,SHF_ALLOC|SHF_EXECINSTR,2
	0x43032460		$t
	0x43032461		trim
.text.__malloc0	0x43032492	0x2a	D:\4.0.3\armv7m-none-eabi\libc\lib/libc.a(malloc.o)	#SHT_PROGBITS,SHF_ALLOC|SHF_EXECINSTR,2
	0x43032492		$t
	0x43032493		__malloc0
.text.realloc	0x430324bc	0x108	D:\4.0.3\armv7m-none-eabi\libc\lib/libc.a(malloc.o)	#SHT_PROGBITS,SHF_ALLOC|SHF_EXECINSTR,2
	0x430324bc		$t
	0x430324bd		realloc
	0x430324fa		$d
	0x430324fc		$t
	0x4303255c		$d
	0x4303255e		$t
.text.free	0x430325c4	0x178	D:\4.0.3\armv7m-none-eabi\libc\lib/libc.a(malloc.o)	#SHT_PROGBITS,SHF_ALLOC|SHF_EXECINSTR,4
	0x430325c4		$t
	0x430325c5		free
	0x430325ec		$d
	0x430325ee		$t
	0x430325fe		$d
	0x43032600		$t
	0x43032738		$d
.text.alloc_fwd	0x4303273c	0x3c	D:\4.0.3\armv7m-none-eabi\libc\lib/libc.a(malloc.o)	#SHT_PROGBITS,SHF_ALLOC|SHF_EXECINSTR,2
	0x4303273c		$t
	0x4303273d		alloc_fwd
.text.bin_index	0x43032778	0x2c	D:\4.0.3\armv7m-none-eabi\libc\lib/libc.a(malloc.o)	#SHT_PROGBITS,SHF_ALLOC|SHF_EXECINSTR,4
	0x43032778		$t
	0x43032779		bin_index
	0x430327a0		$d
.text.lock	0x430327a4	0x3c	D:\4.0.3\armv7m-none-eabi\libc\lib/libc.a(malloc.o)	#SHT_PROGBITS,SHF_ALLOC|SHF_EXECINSTR,4
	0x430327a4		$t
	0x430327a5		lock
	0x430327dc		$d
.text.unlock	0x430327e0	0x32	D:\4.0.3\armv7m-none-eabi\libc\lib/libc.a(malloc.o)	#SHT_PROGBITS,SHF_ALLOC|SHF_EXECINSTR,2
	0x430327e0		$t
	0x430327e1		unlock
.text.a_and	0x43032812	0x22	D:\4.0.3\armv7m-none-eabi\libc\lib/libc.a(malloc.o)	#SHT_PROGBITS,SHF_ALLOC|SHF_EXECINSTR,2
	0x43032812		$t
	0x43032813		a_and
.text.a_sc	0x43032834	0xe	D:\4.0.3\armv7m-none-eabi\libc\lib/libc.a(malloc.o)	#SHT_PROGBITS,SHF_ALLOC|SHF_EXECINSTR,2
	0x43032834		$t
	0x43032835		a_sc
.text.__syscall3	0x43032842	0xa	D:\4.0.3\armv7m-none-eabi\libc\lib/libc.a(malloc.o)	#SHT_PROGBITS,SHF_ALLOC|SHF_EXECINSTR,2
	0x43032842		$t
	0x43032843		__syscall3
.text.a_or	0x4303284c	0x22	D:\4.0.3\armv7m-none-eabi\libc\lib/libc.a(malloc.o)	#SHT_PROGBITS,SHF_ALLOC|SHF_EXECINSTR,2
	0x4303284c		$t
	0x4303284d		a_or
.text.__madvise	0x4303286e	0xe	D:\4.0.3\armv7m-none-eabi\libc\lib/libc.a(madvise.o)	#SHT_PROGBITS,SHF_ALLOC|SHF_EXECINSTR,2
	0x4303286e		$t
	0x4303286f		__madvise
	0x4303286f		madvise
.text.dummy	0x4303287c	0x2	D:\4.0.3\armv7m-none-eabi\libc\lib/libc.a(mremap.o)	#SHT_PROGBITS,SHF_ALLOC|SHF_EXECINSTR,2
	0x4303287c		$t
	0x4303287d		dummy
	0x4303287d		__vm_wait
PADDING_ALIGNMENT	0x4303287e	0x2	0x0
.text.__mremap	0x43032880	0x54	D:\4.0.3\armv7m-none-eabi\libc\lib/libc.a(mremap.o)	#SHT_PROGBITS,SHF_ALLOC|SHF_EXECINSTR,4
	0x43032880		$t
	0x43032881		__mremap
	0x43032881		mremap
	0x430328d0		$d
.text.dummy	0x430328d4	0x2	D:\4.0.3\armv7m-none-eabi\libc\lib/libc.a(munmap.o)	#SHT_PROGBITS,SHF_ALLOC|SHF_EXECINSTR,2
	0x430328d4		$t
	0x430328d5		dummy
.text.__munmap	0x430328d6	0x1a	D:\4.0.3\armv7m-none-eabi\libc\lib/libc.a(munmap.o)	#SHT_PROGBITS,SHF_ALLOC|SHF_EXECINSTR,2
	0x430328d6		$t
	0x430328d7		__munmap
	0x430328d7		munmap
.text.srand	0x430328f0	0x10	D:\4.0.3\armv7m-none-eabi\libc\lib/libc.a(rand.o)	#SHT_PROGBITS,SHF_ALLOC|SHF_EXECINSTR,4
	0x430328f0		$t
	0x430328f1		srand
	0x430328fc		$d
.text.rand	0x43032900	0x34	D:\4.0.3\armv7m-none-eabi\libc\lib/libc.a(rand.o)	#SHT_PROGBITS,SHF_ALLOC|SHF_EXECINSTR,4
	0x43032900		$t
	0x43032901		rand
	0x43032928		$d
.text.vfprintf	0x43032934	0xd6	D:\4.0.3\armv7m-none-eabi\libc\lib/libc.a(vfprintf.o)	#SHT_PROGBITS,SHF_ALLOC|SHF_EXECINSTR,2
	0x43032934		$t
	0x43032935		vfprintf
PADDING_ALIGNMENT	0x43032a0a	0x2	0x0
.text.printf_core	0x43032a0c	0x6a8	D:\4.0.3\armv7m-none-eabi\libc\lib/libc.a(vfprintf.o)	#SHT_PROGBITS,SHF_ALLOC|SHF_EXECINSTR,4
	0x43032a0c		$t
	0x43032a0d		printf_core
	0x43032cbc		$d
	0x43032cc4		$t
	0x43032f2c		$d
	0x43032f52		$t
	0x43033090		$d
.text.vsnprintf	0x430330b4	0x1a4	D:\4.0.3\armv7m-none-eabi\libc\lib/libc.a(vfprintf.o)	#SHT_PROGBITS,SHF_ALLOC|SHF_EXECINSTR,4
	0x430330b4		$t
	0x430330b5		vsnprintf
	0x43033254		$d
.text.fmt_u32	0x43033258	0x22	D:\4.0.3\armv7m-none-eabi\libc\lib/libc.a(vfprintf.o)	#SHT_PROGBITS,SHF_ALLOC|SHF_EXECINSTR,2
	0x43033258		$t
	0x43033259		fmt_u32
.text.out	0x4303327a	0x14	D:\4.0.3\armv7m-none-eabi\libc\lib/libc.a(vfprintf.o)	#SHT_PROGBITS,SHF_ALLOC|SHF_EXECINSTR,2
	0x4303327a		$t
	0x4303327b		out
.text.getint	0x4303328e	0x1e	D:\4.0.3\armv7m-none-eabi\libc\lib/libc.a(vfprintf.o)	#SHT_PROGBITS,SHF_ALLOC|SHF_EXECINSTR,2
	0x4303328e		$t
	0x4303328f		getint
.text.pop_arg	0x430332ac	0x80	D:\4.0.3\armv7m-none-eabi\libc\lib/libc.a(vfprintf.o)	#SHT_PROGBITS,SHF_ALLOC|SHF_EXECINSTR,4
	0x430332ac		$t
	0x430332ad		pop_arg
	0x430332ba		$d
	0x430332c4		$t
.text.pad	0x4303332c	0x4e	D:\4.0.3\armv7m-none-eabi\libc\lib/libc.a(vfprintf.o)	#SHT_PROGBITS,SHF_ALLOC|SHF_EXECINSTR,2
	0x4303332c		$t
	0x4303332d		pad
.text.__fwritex	0x4303337a	0x76	D:\4.0.3\armv7m-none-eabi\libc\lib/libc.a(fwrite.o)	#SHT_PROGBITS,SHF_ALLOC|SHF_EXECINSTR,2
	0x4303337a		$t
	0x4303337b		__fwritex
.text.fwrite	0x430333f0	0x58	D:\4.0.3\armv7m-none-eabi\libc\lib/libc.a(fwrite.o)	#SHT_PROGBITS,SHF_ALLOC|SHF_EXECINSTR,2
	0x430333f0		$t
	0x430333f1		fwrite
	0x430333f1		fwrite_unlocked
.text.snprintf	0x43033448	0x16	D:\4.0.3\armv7m-none-eabi\libc\lib/libc.a(snprintf.o)	#SHT_PROGBITS,SHF_ALLOC|SHF_EXECINSTR,2
	0x43033448		$t
	0x43033449		snprintf
.text.sprintf	0x4303345e	0x18	D:\4.0.3\armv7m-none-eabi\libc\lib/libc.a(sprintf.o)	#SHT_PROGBITS,SHF_ALLOC|SHF_EXECINSTR,2
	0x4303345e		$t
	0x4303345f		sprintf
PADDING_ALIGNMENT	0x43033476	0x2	0x0
.text.vsnprintf_full	0x43033478	0x74	D:\4.0.3\armv7m-none-eabi\libc\lib/libc.a(vsnprintf.o)	#SHT_PROGBITS,SHF_ALLOC|SHF_EXECINSTR,4
	0x43033478		$t
	0x43033479		vsnprintf_full
	0x430334e4		$d
.text.sn_write	0x430334ec	0x22	D:\4.0.3\armv7m-none-eabi\libc\lib/libc.a(vsnprintf.o)	#SHT_PROGBITS,SHF_ALLOC|SHF_EXECINSTR,2
	0x430334ec		$t
	0x430334ed		sn_write
PADDING_ALIGNMENT	0x4303350e	0x2	0x0
.text.vsprintf	0x43033510	0x10	D:\4.0.3\armv7m-none-eabi\libc\lib/libc.a(vsprintf.o)	#SHT_PROGBITS,SHF_ALLOC|SHF_EXECINSTR,4
	0x43033510		$t
	0x43033511		vsprintf
	0x4303351c		$d
.text.strtoull	0x43033520	0x12	D:\4.0.3\armv7m-none-eabi\libc\lib/libc.a(strtol.o)	#SHT_PROGBITS,SHF_ALLOC|SHF_EXECINSTR,2
	0x43033520		$t
	0x43033521		strtoull
	0x43033521		__strtoull_internal
PADDING_ALIGNMENT	0x43033532	0x2	0x0
.text.strtox	0x43033534	0x5c	D:\4.0.3\armv7m-none-eabi\libc\lib/libc.a(strtol.o)	#SHT_PROGBITS,SHF_ALLOC|SHF_EXECINSTR,4
	0x43033534		$t
	0x43033535		strtox
	0x4303358c		$d
.text.strtoll	0x43033590	0x14	D:\4.0.3\armv7m-none-eabi\libc\lib/libc.a(strtol.o)	#SHT_PROGBITS,SHF_ALLOC|SHF_EXECINSTR,2
	0x43033590		$t
	0x43033591		strtoll
	0x43033591		__strtoll_internal
.text.strtoul	0x430335a4	0x14	D:\4.0.3\armv7m-none-eabi\libc\lib/libc.a(strtol.o)	#SHT_PROGBITS,SHF_ALLOC|SHF_EXECINSTR,2
	0x430335a4		$t
	0x430335a5		strtoul
	0x430335a5		__strtoul_internal
.text.strtol	0x430335b8	0x14	D:\4.0.3\armv7m-none-eabi\libc\lib/libc.a(strtol.o)	#SHT_PROGBITS,SHF_ALLOC|SHF_EXECINSTR,2
	0x430335b8		$t
	0x430335b9		strtol
	0x430335b9		__strtol_internal
.text.strtoimax	0x430335cc	0x4	D:\4.0.3\armv7m-none-eabi\libc\lib/libc.a(strtol.o)	#SHT_PROGBITS,SHF_ALLOC|SHF_EXECINSTR,2
	0x430335cc		$t
	0x430335cd		strtoimax
	0x430335cd		__strtoimax_internal
.text.strtoumax	0x430335d0	0x4	D:\4.0.3\armv7m-none-eabi\libc\lib/libc.a(strtol.o)	#SHT_PROGBITS,SHF_ALLOC|SHF_EXECINSTR,2
	0x430335d0		$t
	0x430335d1		strtoumax
	0x430335d1		__strtoumax_internal
.text.__aeabi_memclr	0x430335d4	0x8	D:\4.0.3\armv7m-none-eabi\libc\lib/libc.a(__aeabi_memclr.o)	#SHT_PROGBITS,SHF_ALLOC|SHF_EXECINSTR,2
	0x430335d4		$t
	0x430335d5		__aeabi_memclr
	0x430335d5		__aeabi_memclr4
	0x430335d5		__aeabi_memclr8
.text.__aeabi_memcpy	0x430335dc	0x4	D:\4.0.3\armv7m-none-eabi\libc\lib/libc.a(__aeabi_memcpy.o)	#SHT_PROGBITS,SHF_ALLOC|SHF_EXECINSTR,2
	0x430335dc		$t
	0x430335dd		__aeabi_memcpy
	0x430335dd		__aeabi_memcpy4
	0x430335dd		__aeabi_memcpy8
.text	0x430335e0	0x2ee	D:\4.0.3\armv7m-none-eabi\libc\lib/libc.a(memcpy_le.o)	#SHT_PROGBITS,SHF_ALLOC|SHF_EXECINSTR,2
	0x430335e0		$t
	0x430335e1		memcpy
	0x43033620		src_aligned
	0x4303366e		congruent_aligned32
	0x4303366e		cached_aligned32
	0x43033684		less_than_32_left
	0x430336d2		non_congruent
	0x4303374e		loop16
	0x430337aa		loop8
	0x43033806		loop24
	0x4303385e		less_than_thirtytwo
	0x43033888		partial_word_tail
	0x430338a4		copy_last_3_and_return
PADDING_ALIGNMENT	0x430338ce	0x2	0x0
.text	0x430338d0	0x68	D:\4.0.3\armv7m-none-eabi\libc\lib/libc.a(memset_nofp_armv7.o)	#SHT_PROGBITS,SHF_ALLOC|SHF_EXECINSTR,4
	0x430338d0		$t
	0x430338d1		memset
.text.memchr	0x43033938	0x5c	D:\4.0.3\armv7m-none-eabi\libc\lib/libc.a(memchr.o)	#SHT_PROGBITS,SHF_ALLOC|SHF_EXECINSTR,2
	0x43033938		$t
	0x43033939		memchr
.text.memcmp	0x43033994	0x1c	D:\4.0.3\armv7m-none-eabi\libc\lib/libc.a(memcmp.o)	#SHT_PROGBITS,SHF_ALLOC|SHF_EXECINSTR,2
	0x43033994		$t
	0x43033995		memcmp
.text.strchr	0x430339b0	0x14	D:\4.0.3\armv7m-none-eabi\libc\lib/libc.a(strchr.o)	#SHT_PROGBITS,SHF_ALLOC|SHF_EXECINSTR,2
	0x430339b0		$t
	0x430339b1		strchr
.text.__strchrnul	0x430339c4	0x5c	D:\4.0.3\armv7m-none-eabi\libc\lib/libc.a(strchrnul.o)	#SHT_PROGBITS,SHF_ALLOC|SHF_EXECINSTR,2
	0x430339c4		$t
	0x430339c5		__strchrnul
	0x430339c5		strchrnul
.text.strcmp	0x43033a20	0x14	D:\4.0.3\armv7m-none-eabi\libc\lib/libc.a(strcmp.o)	#SHT_PROGBITS,SHF_ALLOC|SHF_EXECINSTR,2
	0x43033a20		$t
	0x43033a21		strcmp
.text.strcpy	0x43033a34	0xc	D:\4.0.3\armv7m-none-eabi\libc\lib/libc.a(strcpy.o)	#SHT_PROGBITS,SHF_ALLOC|SHF_EXECINSTR,2
	0x43033a34		$t
	0x43033a35		strcpy
.text.strlen	0x43033a40	0x34	D:\4.0.3\armv7m-none-eabi\libc\lib/libc.a(strlen.o)	#SHT_PROGBITS,SHF_ALLOC|SHF_EXECINSTR,2
	0x43033a40		$t
	0x43033a41		strlen
.text.strncasecmp	0x43033a74	0x48	D:\4.0.3\armv7m-none-eabi\libc\lib/libc.a(strncasecmp.o)	#SHT_PROGBITS,SHF_ALLOC|SHF_EXECINSTR,2
	0x43033a74		$t
	0x43033a75		strncasecmp
.text.__strncasecmp_l	0x43033abc	0x4	D:\4.0.3\armv7m-none-eabi\libc\lib/libc.a(strncasecmp.o)	#SHT_PROGBITS,SHF_ALLOC|SHF_EXECINSTR,2
	0x43033abc		$t
	0x43033abd		__strncasecmp_l
	0x43033abd		strncasecmp_l
.text.strncmp	0x43033ac0	0x28	D:\4.0.3\armv7m-none-eabi\libc\lib/libc.a(strncmp.o)	#SHT_PROGBITS,SHF_ALLOC|SHF_EXECINSTR,2
	0x43033ac0		$t
	0x43033ac1		strncmp
.text.strncpy	0x43033ae8	0xc	D:\4.0.3\armv7m-none-eabi\libc\lib/libc.a(strncpy.o)	#SHT_PROGBITS,SHF_ALLOC|SHF_EXECINSTR,2
	0x43033ae8		$t
	0x43033ae9		strncpy
.text.strstr	0x43033af4	0x2d0	D:\4.0.3\armv7m-none-eabi\libc\lib/libc.a(strstr.o)	#SHT_PROGBITS,SHF_ALLOC|SHF_EXECINSTR,2
	0x43033af4		$t
	0x43033af5		strstr
.text.__wait	0x43033dc4	0x64	D:\4.0.3\armv7m-none-eabi\libc\lib/libc.a(__wait.o)	#SHT_PROGBITS,SHF_ALLOC|SHF_EXECINSTR,2
	0x43033dc4		$t
	0x43033dc5		__wait
.text.__syscall4	0x43033e28	0xa	D:\4.0.3\armv7m-none-eabi\libc\lib/libc.a(__wait.o)	#SHT_PROGBITS,SHF_ALLOC|SHF_EXECINSTR,2
	0x43033e28		$t
	0x43033e29		__syscall4
.text.a_fetch_add	0x43033e32	0x18	D:\4.0.3\armv7m-none-eabi\libc\lib/libc.a(__wait.o)	#SHT_PROGBITS,SHF_ALLOC|SHF_EXECINSTR,2
	0x43033e32		$t
	0x43033e33		a_fetch_add
.text.__errno_location	0x43033e4a	0x8	D:\4.0.3\armv7m-none-eabi\libc\lib/libc.a(__errno_location.o)	#SHT_PROGBITS,SHF_ALLOC|SHF_EXECINSTR,2
	0x43033e4a		$t
	0x43033e4b		__errno_location
PADDING_ALIGNMENT	0x43033e52	0x2	0x0
.text.__strerror_l	0x43033e54	0x3c	D:\4.0.3\armv7m-none-eabi\libc\lib/libc.a(strerror.o)	#SHT_PROGBITS,SHF_ALLOC|SHF_EXECINSTR,4
	0x43033e54		$t
	0x43033e55		__strerror_l
	0x43033e55		strerror_l
	0x43033e88		$d
.text.strerror	0x43033e90	0xc	D:\4.0.3\armv7m-none-eabi\libc\lib/libc.a(strerror.o)	#SHT_PROGBITS,SHF_ALLOC|SHF_EXECINSTR,2
	0x43033e90		$t
	0x43033e91		strerror
.text.__intscan	0x43033e9c	0x418	D:\4.0.3\armv7m-none-eabi\libc\lib/libc.a(intscan.o)	#SHT_PROGBITS,SHF_ALLOC|SHF_EXECINSTR,4
	0x43033e9c		$t
	0x43033e9d		__intscan
	0x430342a0		$d
.text.__shlim	0x430342b4	0x2a	D:\4.0.3\armv7m-none-eabi\libc\lib/libc.a(shgetc.o)	#SHT_PROGBITS,SHF_ALLOC|SHF_EXECINSTR,2
	0x430342b4		$t
	0x430342b5		__shlim
.text.__shgetc	0x430342de	0x8c	D:\4.0.3\armv7m-none-eabi\libc\lib/libc.a(shgetc.o)	#SHT_PROGBITS,SHF_ALLOC|SHF_EXECINSTR,2
	0x430342de		$t
	0x430342df		__shgetc
PADDING_ALIGNMENT	0x4303436a	0x2	0x0
.text.__syscall_ret	0x4303436c	0x20	D:\4.0.3\armv7m-none-eabi\libc\lib/libc.a(syscall_ret.o)	#SHT_PROGBITS,SHF_ALLOC|SHF_EXECINSTR,4
	0x4303436c		$t
	0x4303436d		__syscall_ret
	0x43034388		$d
.text.dummy	0x4303438c	0x2	D:\4.0.3\armv7m-none-eabi\libc\lib/libc.a(__lctrans.o)	#SHT_PROGBITS,SHF_ALLOC|SHF_EXECINSTR,2
	0x4303438c		$t
	0x4303438d		dummy
	0x4303438d		__lctrans_impl
.text.__lctrans	0x4303438e	0x4	D:\4.0.3\armv7m-none-eabi\libc\lib/libc.a(__lctrans.o)	#SHT_PROGBITS,SHF_ALLOC|SHF_EXECINSTR,2
	0x4303438e		$t
	0x4303438f		__lctrans
.text.__lctrans_cur	0x43034392	0xe	D:\4.0.3\armv7m-none-eabi\libc\lib/libc.a(__lctrans.o)	#SHT_PROGBITS,SHF_ALLOC|SHF_EXECINSTR,2
	0x43034392		$t
	0x43034393		__lctrans_cur
.text.__expand_heap	0x430343a0	0x50	D:\4.0.3\armv7m-none-eabi\libc\lib/libc.a(expand_heap.o)	#SHT_PROGBITS,SHF_ALLOC|SHF_EXECINSTR,4
	0x430343a0		$t
	0x430343a1		__expand_heap
	0x430343e4		$d
.text.wctomb	0x430343f0	0xc	D:\4.0.3\armv7m-none-eabi\libc\lib/libc.a(wctomb.o)	#SHT_PROGBITS,SHF_ALLOC|SHF_EXECINSTR,2
	0x430343f0		$t
	0x430343f1		wctomb
.text.__towrite	0x430343fc	0x38	D:\4.0.3\armv7m-none-eabi\libc\lib/libc.a(__towrite.o)	#SHT_PROGBITS,SHF_ALLOC|SHF_EXECINSTR,2
	0x430343fc		$t
	0x430343fd		__towrite
.text.__towrite_needs_stdio_exit	0x43034434	0x4	D:\4.0.3\armv7m-none-eabi\libc\lib/libc.a(__towrite.o)	#SHT_PROGBITS,SHF_ALLOC|SHF_EXECINSTR,2
	0x43034434		$t
	0x43034435		__towrite_needs_stdio_exit
.text.__uflow	0x43034438	0x2a	D:\4.0.3\armv7m-none-eabi\libc\lib/libc.a(__uflow.o)	#SHT_PROGBITS,SHF_ALLOC|SHF_EXECINSTR,2
	0x43034438		$t
	0x43034439		__uflow
.text.__lockfile	0x43034462	0x4	D:\4.0.3\armv7m-none-eabi\libc\lib/libc.a(__lockfile.o)	#SHT_PROGBITS,SHF_ALLOC|SHF_EXECINSTR,2
	0x43034462		$t
	0x43034463		__lockfile
.text.__unlockfile	0x43034466	0x2	D:\4.0.3\armv7m-none-eabi\libc\lib/libc.a(__lockfile.o)	#SHT_PROGBITS,SHF_ALLOC|SHF_EXECINSTR,2
	0x43034466		$t
	0x43034467		__unlockfile
.text.__stpcpy	0x43034468	0x3e	D:\4.0.3\armv7m-none-eabi\libc\lib/libc.a(stpcpy.o)	#SHT_PROGBITS,SHF_ALLOC|SHF_EXECINSTR,2
	0x43034468		$t
	0x43034469		__stpcpy
	0x43034469		stpcpy
.text.__stpncpy	0x430344a6	0x68	D:\4.0.3\armv7m-none-eabi\libc\lib/libc.a(stpncpy.o)	#SHT_PROGBITS,SHF_ALLOC|SHF_EXECINSTR,2
	0x430344a6		$t
	0x430344a7		__stpncpy
	0x430344a7		stpncpy
PADDING_ALIGNMENT	0x4303450e	0x2	0x0
.text.__brk	0x43034510	0x78	D:\4.0.3\armv7m-none-eabi\libc\lib/libc.a(__brk.o)	#SHT_PROGBITS,SHF_ALLOC|SHF_EXECINSTR,4
	0x43034510		$t
	0x43034511		__brk
	0x43034570		$d
.text.wcrtomb	0x43034588	0xb0	D:\4.0.3\armv7m-none-eabi\libc\lib/libc.a(wcrtomb.o)	#SHT_PROGBITS,SHF_ALLOC|SHF_EXECINSTR,2
	0x43034588		$t
	0x43034589		wcrtomb
.text.__stdio_exit	0x43034638	0x30	D:\4.0.3\armv7m-none-eabi\libc\lib/libc.a(__stdio_exit.o)	#SHT_PROGBITS,SHF_ALLOC|SHF_EXECINSTR,4
	0x43034638		$t
	0x43034639		__stdio_exit
	0x43034639		__stdio_exit_needed
	0x43034660		$d
.text.close_file	0x43034668	0x3c	D:\4.0.3\armv7m-none-eabi\libc\lib/libc.a(__stdio_exit.o)	#SHT_PROGBITS,SHF_ALLOC|SHF_EXECINSTR,2
	0x43034668		$t
	0x43034669		close_file
.text.__toread	0x430346a4	0x50	D:\4.0.3\armv7m-none-eabi\libc\lib/libc.a(__toread.o)	#SHT_PROGBITS,SHF_ALLOC|SHF_EXECINSTR,2
	0x430346a4		$t
	0x430346a5		__toread
.text.__toread_needs_stdio_exit	0x430346f4	0x4	D:\4.0.3\armv7m-none-eabi\libc\lib/libc.a(__toread.o)	#SHT_PROGBITS,SHF_ALLOC|SHF_EXECINSTR,2
	0x430346f4		$t
	0x430346f5		__toread_needs_stdio_exit
.text.__ofl_lock	0x430346f8	0x8	D:\4.0.3\armv7m-none-eabi\libc\lib/libc.a(ofl.o)	#SHT_PROGBITS,SHF_ALLOC|SHF_EXECINSTR,4
	0x430346f8		$t
	0x430346f9		__ofl_lock
	0x430346fc		$d
.text.__ofl_unlock	0x43034700	0x2	D:\4.0.3\armv7m-none-eabi\libc\lib/libc.a(ofl.o)	#SHT_PROGBITS,SHF_ALLOC|SHF_EXECINSTR,2
	0x43034700		$t
	0x43034701		__ofl_unlock
PADDING_ALIGNMENT	0x43034702	0x2	0x0
.text	0x43034704	0x14	D:\4.0.3\lib\clang\4.0.3\lib\baremetal/libclang_rt.builtins-armv7m.a(aeabi_uldivmod.S.obj)	#SHT_PROGBITS,SHF_ALLOC|SHF_EXECINSTR,4
	0x43034704		$t.0
	0x43034705		__aeabi_uldivmod
.text.__addsf3	0x43034718	0x180	D:\4.0.3\lib\clang\4.0.3\lib\baremetal/libclang_rt.builtins-armv7m.a(addsf3.c.obj)	#SHT_PROGBITS,SHF_ALLOC|SHF_EXECINSTR,4
	0x43034718		$t.0
	0x43034719		__addsf3
	0x43034719		__aeabi_fadd
	0x4303488c		$d.1
.text.fromRep	0x43034898	0x2	D:\4.0.3\lib\clang\4.0.3\lib\baremetal/libclang_rt.builtins-armv7m.a(addsf3.c.obj)	#SHT_PROGBITS,SHF_ALLOC|SHF_EXECINSTR,2
	0x43034898		$t.2
	0x43034899		fromRep
.text.normalize	0x4303489a	0x14	D:\4.0.3\lib\clang\4.0.3\lib\baremetal/libclang_rt.builtins-armv7m.a(addsf3.c.obj)	#SHT_PROGBITS,SHF_ALLOC|SHF_EXECINSTR,2
	0x4303489a		$t.3
	0x4303489b		normalize
.text.__divsf3	0x430348b0	0x16c	D:\4.0.3\lib\clang\4.0.3\lib\baremetal/libclang_rt.builtins-armv7m.a(divsf3.c.obj)	#SHT_PROGBITS,SHF_ALLOC|SHF_EXECINSTR,4
	0x430348b0		$t.0
	0x430348b1		__aeabi_fdiv
	0x430348b1		__divsf3
	0x43034a10		$d.1
.text.normalize	0x43034a1c	0x14	D:\4.0.3\lib\clang\4.0.3\lib\baremetal/libclang_rt.builtins-armv7m.a(divsf3.c.obj)	#SHT_PROGBITS,SHF_ALLOC|SHF_EXECINSTR,2
	0x43034a1c		$t.2
	0x43034a1d		normalize
.text.__fixdfsi	0x43034a30	0x68	D:\4.0.3\lib\clang\4.0.3\lib\baremetal/libclang_rt.builtins-armv7m.a(fixdfsi.c.obj)	#SHT_PROGBITS,SHF_ALLOC|SHF_EXECINSTR,4
	0x43034a30		$t.0
	0x43034a31		__aeabi_d2iz
	0x43034a31		__fixdfsi
	0x43034a90		$d.1
.text.__fixunssfsi	0x43034a98	0x40	D:\4.0.3\lib\clang\4.0.3\lib\baremetal/libclang_rt.builtins-armv7m.a(fixunssfsi.c.obj)	#SHT_PROGBITS,SHF_ALLOC|SHF_EXECINSTR,4
	0x43034a98		$t.0
	0x43034a99		__aeabi_f2uiz
	0x43034a99		__fixunssfsi
	0x43034ad4		$d.1
.text.__floatsisf	0x43034ad8	0x62	D:\4.0.3\lib\clang\4.0.3\lib\baremetal/libclang_rt.builtins-armv7m.a(floatsisf.c.obj)	#SHT_PROGBITS,SHF_ALLOC|SHF_EXECINSTR,2
	0x43034ad8		$t.0
	0x43034ad9		__aeabi_i2f
	0x43034ad9		__floatsisf
.text.__floatunsidf	0x43034b3c	0x46	D:\4.0.3\lib\clang\4.0.3\lib\baremetal/libclang_rt.builtins-armv7m.a(floatunsidf.c.obj)	#SHT_PROGBITS,SHF_ALLOC|SHF_EXECINSTR,2
	0x43034b3c		$t.0
	0x43034b3d		__aeabi_ui2d
	0x43034b3d		__floatunsidf
.text.__floatunsisf	0x43034b84	0x4e	D:\4.0.3\lib\clang\4.0.3\lib\baremetal/libclang_rt.builtins-armv7m.a(floatunsisf.c.obj)	#SHT_PROGBITS,SHF_ALLOC|SHF_EXECINSTR,2
	0x43034b84		$t.0
	0x43034b85		__aeabi_ui2f
	0x43034b85		__floatunsisf
.text.__muldf3	0x43034bd4	0x32c	D:\4.0.3\lib\clang\4.0.3\lib\baremetal/libclang_rt.builtins-armv7m.a(muldf3.c.obj)	#SHT_PROGBITS,SHF_ALLOC|SHF_EXECINSTR,4
	0x43034bd4		$t.0
	0x43034bd5		__aeabi_dmul
	0x43034bd5		__muldf3
	0x43034eec		$d.1
.text.normalize	0x43034f00	0x46	D:\4.0.3\lib\clang\4.0.3\lib\baremetal/libclang_rt.builtins-armv7m.a(muldf3.c.obj)	#SHT_PROGBITS,SHF_ALLOC|SHF_EXECINSTR,2
	0x43034f00		$t.2
	0x43034f01		normalize
.text.__mulsf3	0x43034f48	0x13c	D:\4.0.3\lib\clang\4.0.3\lib\baremetal/libclang_rt.builtins-armv7m.a(mulsf3.c.obj)	#SHT_PROGBITS,SHF_ALLOC|SHF_EXECINSTR,4
	0x43034f48		$t.0
	0x43034f49		__aeabi_fmul
	0x43034f49		__mulsf3
	0x4303507c		$d.1
.text.normalize	0x43035084	0x14	D:\4.0.3\lib\clang\4.0.3\lib\baremetal/libclang_rt.builtins-armv7m.a(mulsf3.c.obj)	#SHT_PROGBITS,SHF_ALLOC|SHF_EXECINSTR,2
	0x43035084		$t.2
	0x43035085		normalize
.text.__subsf3	0x43035098	0xc	D:\4.0.3\lib\clang\4.0.3\lib\baremetal/libclang_rt.builtins-armv7m.a(subsf3.c.obj)	#SHT_PROGBITS,SHF_ALLOC|SHF_EXECINSTR,2
	0x43035098		$t.0
	0x43035099		__aeabi_fsub
	0x43035099		__subsf3
.text.__udivmoddi4	0x430350a4	0x1d4	D:\4.0.3\lib\clang\4.0.3\lib\baremetal/libclang_rt.builtins-armv7m.a(udivmoddi4.c.obj)	#SHT_PROGBITS,SHF_ALLOC|SHF_EXECINSTR,2
	0x430350a4		$t.0
	0x430350a5		__udivmoddi4
*(Init )
*(.rodata .rodata.* )
.rodata	0x43035278	0x30	G:\TEMP\GoKit4_Demo\objs\common.o	#SHT_PROGBITS,SHF_ALLOC,8
.rodata.str1.1	0x430352a8	0x29	G:\TEMP\GoKit4_Demo\objs\gizwits_product.o	#SHT_PROGBITS,SHF_ALLOC|SHF_MERGE|SHF_STRINGS,1
	0x430352a8		.L.str
.rodata.str1.1	0x430352d1	0x1c	G:\TEMP\GoKit4_Demo\objs\gizwits_product.o	#SHT_PROGBITS,SHF_ALLOC|SHF_MERGE|SHF_STRINGS,1
	0x430352d1		.L.str.1
.rodata.str1.1	0x430352ed	0x1c	G:\TEMP\GoKit4_Demo\objs\gizwits_product.o	#SHT_PROGBITS,SHF_ALLOC|SHF_MERGE|SHF_STRINGS,1
	0x430352ed		.L.str.2
.rodata.str1.1	0x43035309	0x1d	G:\TEMP\GoKit4_Demo\objs\gizwits_product.o	#SHT_PROGBITS,SHF_ALLOC|SHF_MERGE|SHF_STRINGS,1
	0x43035309		.L.str.3
.rodata.str1.1	0x43035326	0x20	G:\TEMP\GoKit4_Demo\objs\gizwits_product.o	#SHT_PROGBITS,SHF_ALLOC|SHF_MERGE|SHF_STRINGS,1
	0x43035326		.L.str.4
.rodata.str1.1	0x43035346	0x1a	G:\TEMP\GoKit4_Demo\objs\gizwits_product.o	#SHT_PROGBITS,SHF_ALLOC|SHF_MERGE|SHF_STRINGS,1
	0x43035346		.L.str.5
.rodata.str1.1	0x43035360	0x1d	G:\TEMP\GoKit4_Demo\objs\gizwits_product.o	#SHT_PROGBITS,SHF_ALLOC|SHF_MERGE|SHF_STRINGS,1
	0x43035360		.L.str.6
.rodata.str1.1	0x4303537d	0x14	G:\TEMP\GoKit4_Demo\objs\gizwits_product.o	#SHT_PROGBITS,SHF_ALLOC|SHF_MERGE|SHF_STRINGS,1
	0x4303537d		.L.str.7
.rodata.str1.1	0x43035391	0x19	G:\TEMP\GoKit4_Demo\objs\gizwits_product.o	#SHT_PROGBITS,SHF_ALLOC|SHF_MERGE|SHF_STRINGS,1
	0x43035391		.L.str.8
.rodata.str1.1	0x430353aa	0x17	G:\TEMP\GoKit4_Demo\objs\gizwits_product.o	#SHT_PROGBITS,SHF_ALLOC|SHF_MERGE|SHF_STRINGS,1
	0x430353aa		.L.str.9
.rodata.str1.1	0x430353c1	0x41	G:\TEMP\GoKit4_Demo\objs\gizwits_product.o	#SHT_PROGBITS,SHF_ALLOC|SHF_MERGE|SHF_STRINGS,1
	0x430353c1		.L.str.10
.rodata.str1.1	0x43035402	0x36	G:\TEMP\GoKit4_Demo\objs\gizwits_product.o	#SHT_PROGBITS,SHF_ALLOC|SHF_MERGE|SHF_STRINGS,1
	0x43035402		.L.str.11
.rodata.str1.1	0x43035438	0x30	G:\TEMP\GoKit4_Demo\objs\gizwits_product.o	#SHT_PROGBITS,SHF_ALLOC|SHF_MERGE|SHF_STRINGS,1
	0x43035438		.L.str.12
.rodata.str1.1	0x43035468	0x22	G:\TEMP\GoKit4_Demo\objs\gizwits_product.o	#SHT_PROGBITS,SHF_ALLOC|SHF_MERGE|SHF_STRINGS,1
	0x43035468		.L.str.13
.rodata.str1.1	0x4303548a	0x2a	G:\TEMP\GoKit4_Demo\objs\gizwits_protocol.o	#SHT_PROGBITS,SHF_ALLOC|SHF_MERGE|SHF_STRINGS,1
	0x4303548a		.L.str
.rodata.str1.1	0x430354b4	0x2a	G:\TEMP\GoKit4_Demo\objs\gizwits_protocol.o	#SHT_PROGBITS,SHF_ALLOC|SHF_MERGE|SHF_STRINGS,1
	0x430354b4		.L.str.1
.rodata.str1.1	0x430354de	0x26	G:\TEMP\GoKit4_Demo\objs\gizwits_protocol.o	#SHT_PROGBITS,SHF_ALLOC|SHF_MERGE|SHF_STRINGS,1
	0x430354de		.L.str.2
.rodata.str1.1	0x43035504	0x3f	G:\TEMP\GoKit4_Demo\objs\gizwits_protocol.o	#SHT_PROGBITS,SHF_ALLOC|SHF_MERGE|SHF_STRINGS,1
	0x43035504		.L.str.3
.rodata.str1.1	0x43035543	0x27	G:\TEMP\GoKit4_Demo\objs\gizwits_protocol.o	#SHT_PROGBITS,SHF_ALLOC|SHF_MERGE|SHF_STRINGS,1
	0x43035543		.L.str.4
.rodata.str1.1	0x4303556a	0x21	G:\TEMP\GoKit4_Demo\objs\gizwits_protocol.o	#SHT_PROGBITS,SHF_ALLOC|SHF_MERGE|SHF_STRINGS,1
	0x4303556a		.L.str.5
.rodata.str1.1	0x4303558b	0x21	G:\TEMP\GoKit4_Demo\objs\gizwits_protocol.o	#SHT_PROGBITS,SHF_ALLOC|SHF_MERGE|SHF_STRINGS,1
	0x4303558b		.L.str.6
.rodata.str1.1	0x430355ac	0x25	G:\TEMP\GoKit4_Demo\objs\gizwits_protocol.o	#SHT_PROGBITS,SHF_ALLOC|SHF_MERGE|SHF_STRINGS,1
	0x430355ac		.L.str.7
.rodata.str1.1	0x430355d1	0x26	G:\TEMP\GoKit4_Demo\objs\gizwits_protocol.o	#SHT_PROGBITS,SHF_ALLOC|SHF_MERGE|SHF_STRINGS,1
	0x430355d1		.L.str.8
.rodata.str1.1	0x430355f7	0x26	G:\TEMP\GoKit4_Demo\objs\gizwits_protocol.o	#SHT_PROGBITS,SHF_ALLOC|SHF_MERGE|SHF_STRINGS,1
	0x430355f7		.L.str.9
.rodata.str1.1	0x4303561d	0x29	G:\TEMP\GoKit4_Demo\objs\gizwits_protocol.o	#SHT_PROGBITS,SHF_ALLOC|SHF_MERGE|SHF_STRINGS,1
	0x4303561d		.L.str.10
.rodata.str1.1	0x43035646	0x23	G:\TEMP\GoKit4_Demo\objs\gizwits_protocol.o	#SHT_PROGBITS,SHF_ALLOC|SHF_MERGE|SHF_STRINGS,1
	0x43035646		.L.str.11
.rodata.str1.1	0x43035669	0x26	G:\TEMP\GoKit4_Demo\objs\gizwits_protocol.o	#SHT_PROGBITS,SHF_ALLOC|SHF_MERGE|SHF_STRINGS,1
	0x43035669		.L.str.12
.rodata.str1.1	0x4303568f	0x21	G:\TEMP\GoKit4_Demo\objs\gizwits_protocol.o	#SHT_PROGBITS,SHF_ALLOC|SHF_MERGE|SHF_STRINGS,1
	0x4303568f		.L.str.13
.rodata.str1.1	0x430356b0	0x24	G:\TEMP\GoKit4_Demo\objs\gizwits_protocol.o	#SHT_PROGBITS,SHF_ALLOC|SHF_MERGE|SHF_STRINGS,1
	0x430356b0		.L.str.14
.rodata.str1.1	0x430356d4	0x22	G:\TEMP\GoKit4_Demo\objs\gizwits_protocol.o	#SHT_PROGBITS,SHF_ALLOC|SHF_MERGE|SHF_STRINGS,1
	0x430356d4		.L.str.15
.rodata.str1.1	0x430356f6	0x23	G:\TEMP\GoKit4_Demo\objs\gizwits_protocol.o	#SHT_PROGBITS,SHF_ALLOC|SHF_MERGE|SHF_STRINGS,1
	0x430356f6		.L.str.16
.rodata.str1.1	0x43035719	0x23	G:\TEMP\GoKit4_Demo\objs\gizwits_protocol.o	#SHT_PROGBITS,SHF_ALLOC|SHF_MERGE|SHF_STRINGS,1
	0x43035719		.L.str.17
.rodata.str1.1	0x4303573c	0x2a	G:\TEMP\GoKit4_Demo\objs\gizwits_protocol.o	#SHT_PROGBITS,SHF_ALLOC|SHF_MERGE|SHF_STRINGS,1
	0x4303573c		.L.str.18
.rodata.str1.1	0x43035766	0x23	G:\TEMP\GoKit4_Demo\objs\gizwits_protocol.o	#SHT_PROGBITS,SHF_ALLOC|SHF_MERGE|SHF_STRINGS,1
	0x43035766		.L.str.19
.rodata.str1.1	0x43035789	0xb	G:\TEMP\GoKit4_Demo\objs\gizwits_protocol.o	#SHT_PROGBITS,SHF_ALLOC|SHF_MERGE|SHF_STRINGS,1
	0x43035789		.L.str.20
.rodata.str1.1	0x43035794	0xf	G:\TEMP\GoKit4_Demo\objs\gizwits_protocol.o	#SHT_PROGBITS,SHF_ALLOC|SHF_MERGE|SHF_STRINGS,1
	0x43035794		.L.str.21
.rodata.str1.1	0x430357a3	0x10	G:\TEMP\GoKit4_Demo\objs\gizwits_protocol.o	#SHT_PROGBITS,SHF_ALLOC|SHF_MERGE|SHF_STRINGS,1
	0x430357a3		.L.str.22
.rodata.str1.1	0x430357b3	0x1c	G:\TEMP\GoKit4_Demo\objs\gizwits_protocol.o	#SHT_PROGBITS,SHF_ALLOC|SHF_MERGE|SHF_STRINGS,1
	0x430357b3		.L.str.23
.rodata.str1.1	0x430357cf	0x2c	G:\TEMP\GoKit4_Demo\objs\gizwits_protocol.o	#SHT_PROGBITS,SHF_ALLOC|SHF_MERGE|SHF_STRINGS,1
	0x430357cf		.L.str.24
.rodata.str1.1	0x430357fb	0x29	G:\TEMP\GoKit4_Demo\objs\gizwits_protocol.o	#SHT_PROGBITS,SHF_ALLOC|SHF_MERGE|SHF_STRINGS,1
	0x430357fb		.L.str.25
.rodata.str1.1	0x43035824	0x1e	G:\TEMP\GoKit4_Demo\objs\gizwits_protocol.o	#SHT_PROGBITS,SHF_ALLOC|SHF_MERGE|SHF_STRINGS,1
	0x43035824		.L.str.26
.rodata.str1.1	0x43035842	0x1f	G:\TEMP\GoKit4_Demo\objs\gizwits_protocol.o	#SHT_PROGBITS,SHF_ALLOC|SHF_MERGE|SHF_STRINGS,1
	0x43035842		.L.str.27
.rodata.str1.1	0x43035861	0x23	G:\TEMP\GoKit4_Demo\objs\gizwits_protocol.o	#SHT_PROGBITS,SHF_ALLOC|SHF_MERGE|SHF_STRINGS,1
	0x43035861		.L.str.29
.rodata.str1.1	0x43035884	0x16	G:\TEMP\GoKit4_Demo\objs\gizwits_protocol.o	#SHT_PROGBITS,SHF_ALLOC|SHF_MERGE|SHF_STRINGS,1
	0x43035884		.L.str.30
.rodata.str1.1	0x4303589a	0x28	G:\TEMP\GoKit4_Demo\objs\gizwits_protocol.o	#SHT_PROGBITS,SHF_ALLOC|SHF_MERGE|SHF_STRINGS,1
	0x4303589a		.L.str.31
.rodata.str1.1	0x430358c2	0x32	G:\TEMP\GoKit4_Demo\objs\gizwits_protocol.o	#SHT_PROGBITS,SHF_ALLOC|SHF_MERGE|SHF_STRINGS,1
	0x430358c2		.L.str.32
.rodata.str1.1	0x430358f4	0x8	G:\TEMP\GoKit4_Demo\objs\gizwits_protocol.o	#SHT_PROGBITS,SHF_ALLOC|SHF_MERGE|SHF_STRINGS,1
	0x430358f4		.L.str.33
.rodata.str1.1	0x430358fc	0x22	G:\TEMP\GoKit4_Demo\objs\gizwits_protocol.o	#SHT_PROGBITS,SHF_ALLOC|SHF_MERGE|SHF_STRINGS,1
	0x430358fc		.L.str.34
.rodata.str1.1	0x4303591e	0x2b	G:\TEMP\GoKit4_Demo\objs\gizwits_protocol.o	#SHT_PROGBITS,SHF_ALLOC|SHF_MERGE|SHF_STRINGS,1
	0x4303591e		.L.str.35
.rodata.str1.1	0x43035949	0x21	G:\TEMP\GoKit4_Demo\objs\gizwits_protocol.o	#SHT_PROGBITS,SHF_ALLOC|SHF_MERGE|SHF_STRINGS,1
	0x43035949		.L.str.36
.rodata.str1.1	0x4303596a	0x35	G:\TEMP\GoKit4_Demo\objs\gizwits_protocol.o	#SHT_PROGBITS,SHF_ALLOC|SHF_MERGE|SHF_STRINGS,1
	0x4303596a		.L.str.37
.rodata.str1.1	0x4303599f	0xe	G:\TEMP\GoKit4_Demo\objs\gizwits_protocol.o	#SHT_PROGBITS,SHF_ALLOC|SHF_MERGE|SHF_STRINGS,1
	0x4303599f		.L.str.38
.rodata.str1.1	0x430359ad	0x3b	G:\TEMP\GoKit4_Demo\objs\gizwits_protocol.o	#SHT_PROGBITS,SHF_ALLOC|SHF_MERGE|SHF_STRINGS,1
	0x430359ad		.L.str.39
.rodata.str1.1	0x430359e8	0x3c	G:\TEMP\GoKit4_Demo\objs\gizwits_protocol.o	#SHT_PROGBITS,SHF_ALLOC|SHF_MERGE|SHF_STRINGS,1
	0x430359e8		.L.str.40
.rodata.str1.1	0x43035a24	0x10	G:\TEMP\GoKit4_Demo\objs\gizwits_protocol.o	#SHT_PROGBITS,SHF_ALLOC|SHF_MERGE|SHF_STRINGS,1
	0x43035a24		.L.str.48
.rodata.str1.1	0x43035a34	0x10	G:\TEMP\GoKit4_Demo\objs\gizwits_protocol.o	#SHT_PROGBITS,SHF_ALLOC|SHF_MERGE|SHF_STRINGS,1
	0x43035a34		.L.str.49
.rodata.str1.1	0x43035a44	0x3	G:\TEMP\GoKit4_Demo\objs\gizwits_protocol.o	#SHT_PROGBITS,SHF_ALLOC|SHF_MERGE|SHF_STRINGS,1
	0x43035a44		.L.str.50
.rodata.str1.1	0x43035a47	0xc	G:\TEMP\GoKit4_Demo\objs\gizwits_protocol.o	#SHT_PROGBITS,SHF_ALLOC|SHF_MERGE|SHF_STRINGS,1
	0x43035a47		.L.str.51
.rodata.str1.1	0x43035a53	0xa	G:\TEMP\GoKit4_Demo\objs\gizwits_protocol.o	#SHT_PROGBITS,SHF_ALLOC|SHF_MERGE|SHF_STRINGS,1
	0x43035a53		.L.str.52
.rodata.str1.1	0x43035a5d	0x4	G:\TEMP\GoKit4_Demo\objs\gizwits_protocol.o	#SHT_PROGBITS,SHF_ALLOC|SHF_MERGE|SHF_STRINGS,1
	0x43035a5d		.L.str.53
.rodata.str1.1	0x43035a61	0x3	G:\TEMP\GoKit4_Demo\objs\gizwits_protocol.o	#SHT_PROGBITS,SHF_ALLOC|SHF_MERGE|SHF_STRINGS,1
	0x43035a61		.L.str.54
.rodata.str1.1	0x43035a64	0x4	G:\TEMP\GoKit4_Demo\objs\gizwits_protocol.o	#SHT_PROGBITS,SHF_ALLOC|SHF_MERGE|SHF_STRINGS,1
	0x43035a64		.L.str.55
.rodata.str1.1	0x43035a68	0x6	G:\TEMP\GoKit4_Demo\objs\gizwits_protocol.o	#SHT_PROGBITS,SHF_ALLOC|SHF_MERGE|SHF_STRINGS,1
	0x43035a68		.L.str.56
.rodata.str1.1	0x43035a6e	0x2	G:\TEMP\GoKit4_Demo\objs\gizwits_protocol.o	#SHT_PROGBITS,SHF_ALLOC|SHF_MERGE|SHF_STRINGS,1
	0x43035a6e		.L.str.57
.rodata.str1.1	0x43035a70	0x18	G:\TEMP\GoKit4_Demo\objs\gizwits_protocol.o	#SHT_PROGBITS,SHF_ALLOC|SHF_MERGE|SHF_STRINGS,1
	0x43035a70		.L.str.58
.rodata.str1.1	0x43035a88	0x20	G:\TEMP\GoKit4_Demo\objs\gizwits_protocol.o	#SHT_PROGBITS,SHF_ALLOC|SHF_MERGE|SHF_STRINGS,1
	0x43035a88		.L.str.59
.rodata.str1.1	0x43035aa8	0x1f	G:\TEMP\GoKit4_Demo\objs\gizwits_protocol.o	#SHT_PROGBITS,SHF_ALLOC|SHF_MERGE|SHF_STRINGS,1
	0x43035aa8		.L.str.60
.rodata.str1.1	0x43035ac7	0x39	G:\TEMP\GoKit4_Demo\objs\gizwits_protocol.o	#SHT_PROGBITS,SHF_ALLOC|SHF_MERGE|SHF_STRINGS,1
	0x43035ac7		.L.str.62
.rodata.str1.1	0x43035b00	0x1a	G:\TEMP\GoKit4_Demo\objs\gizwits_protocol.o	#SHT_PROGBITS,SHF_ALLOC|SHF_MERGE|SHF_STRINGS,1
	0x43035b00		.L.str.64
.rodata.str1.1	0x43035b1a	0x1c	G:\TEMP\GoKit4_Demo\objs\gizwits_protocol.o	#SHT_PROGBITS,SHF_ALLOC|SHF_MERGE|SHF_STRINGS,1
	0x43035b1a		.L.str.65
.rodata.str1.1	0x43035b36	0x18	G:\TEMP\GoKit4_Demo\objs\gizwits_protocol.o	#SHT_PROGBITS,SHF_ALLOC|SHF_MERGE|SHF_STRINGS,1
	0x43035b36		.L.str.66
.rodata.str1.1	0x43035b4e	0x1c	G:\TEMP\GoKit4_Demo\objs\gizwits_protocol.o	#SHT_PROGBITS,SHF_ALLOC|SHF_MERGE|SHF_STRINGS,1
	0x43035b4e		.L.str.67
.rodata.str1.1	0x43035b6a	0x19	G:\TEMP\GoKit4_Demo\objs\gizwits_protocol.o	#SHT_PROGBITS,SHF_ALLOC|SHF_MERGE|SHF_STRINGS,1
	0x43035b6a		.L.str.68
PADDING_ALIGNMENT	0x43035b83	0x5	0x0
.rodata.str1.8	0x43035b88	0x49	G:\TEMP\GoKit4_Demo\objs\gizwits_protocol.o	#SHT_PROGBITS,SHF_ALLOC|SHF_MERGE|SHF_STRINGS,8
	0x43035b88		.L.str.44
	0x43035bb0		.L.str.45
.rodata.str1.1	0x43035bd1	0x7	G:\TEMP\GoKit4_Demo\objs\gpio.o	#SHT_PROGBITS,SHF_ALLOC|SHF_MERGE|SHF_STRINGS,1
	0x43035bd1		.L.str
.rodata.str1.1	0x43035bd8	0x7	G:\TEMP\GoKit4_Demo\objs\gpio.o	#SHT_PROGBITS,SHF_ALLOC|SHF_MERGE|SHF_STRINGS,1
	0x43035bd8		.L.str.1
.rodata.str1.1	0x43035bdf	0x7	G:\TEMP\GoKit4_Demo\objs\gpio.o	#SHT_PROGBITS,SHF_ALLOC|SHF_MERGE|SHF_STRINGS,1
	0x43035bdf		.L.str.2
.rodata.str1.1	0x43035be6	0x7	G:\TEMP\GoKit4_Demo\objs\gpio.o	#SHT_PROGBITS,SHF_ALLOC|SHF_MERGE|SHF_STRINGS,1
	0x43035be6		.L.str.3
.rodata.str1.1	0x43035bed	0x7	G:\TEMP\GoKit4_Demo\objs\gpio.o	#SHT_PROGBITS,SHF_ALLOC|SHF_MERGE|SHF_STRINGS,1
	0x43035bed		.L.str.4
.rodata.str1.1	0x43035bf4	0x7	G:\TEMP\GoKit4_Demo\objs\gpio.o	#SHT_PROGBITS,SHF_ALLOC|SHF_MERGE|SHF_STRINGS,1
	0x43035bf4		.L.str.5
.rodata.str1.1	0x43035bfb	0x7	G:\TEMP\GoKit4_Demo\objs\gpio.o	#SHT_PROGBITS,SHF_ALLOC|SHF_MERGE|SHF_STRINGS,1
	0x43035bfb		.L.str.6
.rodata.str1.1	0x43035c02	0x7	G:\TEMP\GoKit4_Demo\objs\gpio.o	#SHT_PROGBITS,SHF_ALLOC|SHF_MERGE|SHF_STRINGS,1
	0x43035c02		.L.str.7
.rodata.str1.1	0x43035c09	0x7	G:\TEMP\GoKit4_Demo\objs\gpio.o	#SHT_PROGBITS,SHF_ALLOC|SHF_MERGE|SHF_STRINGS,1
	0x43035c09		.L.str.8
.rodata.str1.1	0x43035c10	0x7	G:\TEMP\GoKit4_Demo\objs\gpio.o	#SHT_PROGBITS,SHF_ALLOC|SHF_MERGE|SHF_STRINGS,1
	0x43035c10		.L.str.9
.rodata.str1.1	0x43035c17	0x7	G:\TEMP\GoKit4_Demo\objs\gpio.o	#SHT_PROGBITS,SHF_ALLOC|SHF_MERGE|SHF_STRINGS,1
	0x43035c17		.L.str.10
.rodata.str1.1	0x43035c1e	0x7	G:\TEMP\GoKit4_Demo\objs\gpio.o	#SHT_PROGBITS,SHF_ALLOC|SHF_MERGE|SHF_STRINGS,1
	0x43035c1e		.L.str.11
.rodata.str1.1	0x43035c25	0x7	G:\TEMP\GoKit4_Demo\objs\gpio.o	#SHT_PROGBITS,SHF_ALLOC|SHF_MERGE|SHF_STRINGS,1
	0x43035c25		.L.str.12
.rodata.str1.1	0x43035c2c	0x7	G:\TEMP\GoKit4_Demo\objs\gpio.o	#SHT_PROGBITS,SHF_ALLOC|SHF_MERGE|SHF_STRINGS,1
	0x43035c2c		.L.str.13
.rodata.str1.1	0x43035c33	0x27	G:\TEMP\GoKit4_Demo\objs\gpio.o	#SHT_PROGBITS,SHF_ALLOC|SHF_MERGE|SHF_STRINGS,1
	0x43035c33		.L.str.14
.rodata.str1.1	0x43035c5a	0x22	G:\TEMP\GoKit4_Demo\objs\gpio.o	#SHT_PROGBITS,SHF_ALLOC|SHF_MERGE|SHF_STRINGS,1
	0x43035c5a		.L.str.15
.rodata.str1.1	0x43035c7c	0x1c	G:\TEMP\GoKit4_Demo\objs\gpio.o	#SHT_PROGBITS,SHF_ALLOC|SHF_MERGE|SHF_STRINGS,1
	0x43035c7c		.L.str.16
.rodata.str1.1	0x43035c98	0x2b	G:\TEMP\GoKit4_Demo\objs\gpio.o	#SHT_PROGBITS,SHF_ALLOC|SHF_MERGE|SHF_STRINGS,1
	0x43035c98		.L.str.17
.rodata.str1.1	0x43035cc3	0x50	G:\TEMP\GoKit4_Demo\objs\task.o	#SHT_PROGBITS,SHF_ALLOC|SHF_MERGE|SHF_STRINGS,1
	0x43035cc3		.L.str
.rodata.str1.1	0x43035d13	0x16	G:\TEMP\GoKit4_Demo\objs\task.o	#SHT_PROGBITS,SHF_ALLOC|SHF_MERGE|SHF_STRINGS,1
	0x43035d13		.L.str.1
.rodata.str1.1	0x43035d29	0x49	G:\TEMP\GoKit4_Demo\objs\task.o	#SHT_PROGBITS,SHF_ALLOC|SHF_MERGE|SHF_STRINGS,1
	0x43035d29		.L.str.2
.rodata.str1.1	0x43035d72	0x48	G:\TEMP\GoKit4_Demo\objs\task.o	#SHT_PROGBITS,SHF_ALLOC|SHF_MERGE|SHF_STRINGS,1
	0x43035d72		.L.str.3
.rodata.str1.1	0x43035dba	0x39	G:\TEMP\GoKit4_Demo\objs\task.o	#SHT_PROGBITS,SHF_ALLOC|SHF_MERGE|SHF_STRINGS,1
	0x43035dba		.L.str.4
.rodata.str1.1	0x43035df3	0xc	G:\TEMP\GoKit4_Demo\objs\task.o	#SHT_PROGBITS,SHF_ALLOC|SHF_MERGE|SHF_STRINGS,1
	0x43035df3		.L.str.5
.rodata.str1.1	0x43035dff	0x35	G:\TEMP\GoKit4_Demo\objs\task.o	#SHT_PROGBITS,SHF_ALLOC|SHF_MERGE|SHF_STRINGS,1
	0x43035dff		.L.str.6
.rodata.str1.1	0x43035e34	0x36	G:\TEMP\GoKit4_Demo\objs\task.o	#SHT_PROGBITS,SHF_ALLOC|SHF_MERGE|SHF_STRINGS,1
	0x43035e34		.L.str.7
.rodata.str1.1	0x43035e6a	0x3c	G:\TEMP\GoKit4_Demo\objs\task.o	#SHT_PROGBITS,SHF_ALLOC|SHF_MERGE|SHF_STRINGS,1
	0x43035e6a		.L.str.8
.rodata.str1.1	0x43035ea6	0x34	G:\TEMP\GoKit4_Demo\objs\task.o	#SHT_PROGBITS,SHF_ALLOC|SHF_MERGE|SHF_STRINGS,1
	0x43035ea6		.L.str.9
.rodata.str1.1	0x43035eda	0x11	G:\TEMP\GoKit4_Demo\objs\task.o	#SHT_PROGBITS,SHF_ALLOC|SHF_MERGE|SHF_STRINGS,1
	0x43035eda		.L.str.10
.rodata.str1.1	0x43035eeb	0x11	G:\TEMP\GoKit4_Demo\objs\task.o	#SHT_PROGBITS,SHF_ALLOC|SHF_MERGE|SHF_STRINGS,1
	0x43035eeb		.L.str.11
.rodata.str1.1	0x43035efc	0x4c	G:\TEMP\GoKit4_Demo\objs\task.o	#SHT_PROGBITS,SHF_ALLOC|SHF_MERGE|SHF_STRINGS,1
	0x43035efc		.L.str.12
.rodata.str1.1	0x43035f48	0x4b	G:\TEMP\GoKit4_Demo\objs\task.o	#SHT_PROGBITS,SHF_ALLOC|SHF_MERGE|SHF_STRINGS,1
	0x43035f48		.L.str.13
.rodata.str1.1	0x43035f93	0x1b	G:\TEMP\GoKit4_Demo\objs\task.o	#SHT_PROGBITS,SHF_ALLOC|SHF_MERGE|SHF_STRINGS,1
	0x43035f93		.L.str.14
.rodata.str1.1	0x43035fae	0x2d	G:\TEMP\GoKit4_Demo\objs\task.o	#SHT_PROGBITS,SHF_ALLOC|SHF_MERGE|SHF_STRINGS,1
	0x43035fae		.L.str.15
.rodata.str1.1	0x43035fdb	0x2a	G:\TEMP\GoKit4_Demo\objs\timer.o	#SHT_PROGBITS,SHF_ALLOC|SHF_MERGE|SHF_STRINGS,1
	0x43035fdb		.L.str
.rodata.str1.1	0x43036005	0x28	G:\TEMP\GoKit4_Demo\objs\uart.o	#SHT_PROGBITS,SHF_ALLOC|SHF_MERGE|SHF_STRINGS,1
	0x43036005		.L.str
.rodata.str1.1	0x4303602d	0x2c	G:\TEMP\GoKit4_Demo\objs\uart.o	#SHT_PROGBITS,SHF_ALLOC|SHF_MERGE|SHF_STRINGS,1
	0x4303602d		.L.str.1
.rodata.str1.1	0x43036059	0x2c	G:\TEMP\GoKit4_Demo\objs\uart.o	#SHT_PROGBITS,SHF_ALLOC|SHF_MERGE|SHF_STRINGS,1
	0x43036059		.L.str.2
.rodata.str1.1	0x43036085	0x2c	G:\TEMP\GoKit4_Demo\objs\uart.o	#SHT_PROGBITS,SHF_ALLOC|SHF_MERGE|SHF_STRINGS,1
	0x43036085		.L.str.3
.rodata.str1.1	0x430360b1	0x2b	G:\TEMP\GoKit4_Demo\objs\uart.o	#SHT_PROGBITS,SHF_ALLOC|SHF_MERGE|SHF_STRINGS,1
	0x430360b1		.L.str.4
.rodata.str1.1	0x430360dc	0xa	G:\TEMP\GoKit4_Demo\gagent\libgagent.a(gagentThread.o)	#SHT_PROGBITS,SHF_ALLOC|SHF_MERGE|SHF_STRINGS,1
	0x430360dc		.L.str
.rodata.str1.1	0x430360e6	0x7	G:\TEMP\GoKit4_Demo\gagent\libgagent.a(gagentThread.o)	#SHT_PROGBITS,SHF_ALLOC|SHF_MERGE|SHF_STRINGS,1
	0x430360e6		.L.str.1
.rodata.str1.1	0x430360ed	0x12	G:\TEMP\GoKit4_Demo\gagent\libgagent.a(gagentThread.o)	#SHT_PROGBITS,SHF_ALLOC|SHF_MERGE|SHF_STRINGS,1
	0x430360ed		.L.str.2
.rodata.str1.1	0x430360ff	0xf	G:\TEMP\GoKit4_Demo\gagent\libgagent.a(gagentThread.o)	#SHT_PROGBITS,SHF_ALLOC|SHF_MERGE|SHF_STRINGS,1
	0x430360ff		.L__FUNCTION__.groudEntryInit
.rodata.str1.1	0x4303610e	0x27	G:\TEMP\GoKit4_Demo\gagent\libgagent.a(gagentThread.o)	#SHT_PROGBITS,SHF_ALLOC|SHF_MERGE|SHF_STRINGS,1
	0x4303610e		.L.str.3
.rodata.str1.1	0x43036135	0xc	G:\TEMP\GoKit4_Demo\gagent\libgagent.a(gagentThread.o)	#SHT_PROGBITS,SHF_ALLOC|SHF_MERGE|SHF_STRINGS,1
	0x43036135		.L.str.4
.rodata.str1.1	0x43036141	0x9	G:\TEMP\GoKit4_Demo\gagent\libgagent.a(gagentThread.o)	#SHT_PROGBITS,SHF_ALLOC|SHF_MERGE|SHF_STRINGS,1
	0x43036141		.L.str.5
.rodata.str1.1	0x4303614a	0xb	G:\TEMP\GoKit4_Demo\gagent\libgagent.a(gagentThread.o)	#SHT_PROGBITS,SHF_ALLOC|SHF_MERGE|SHF_STRINGS,1
	0x4303614a		.L.str.6
.rodata.str1.1	0x43036155	0x17	G:\TEMP\GoKit4_Demo\gagent\libgagent.a(gagentThread.o)	#SHT_PROGBITS,SHF_ALLOC|SHF_MERGE|SHF_STRINGS,1
	0x43036155		.L.str.7
.rodata.str1.1	0x4303616c	0xb	G:\TEMP\GoKit4_Demo\gagent\libgagent.a(gagentThread.o)	#SHT_PROGBITS,SHF_ALLOC|SHF_MERGE|SHF_STRINGS,1
	0x4303616c		.L__FUNCTION__.groudEvent
.rodata.str1.1	0x43036177	0x31	G:\TEMP\GoKit4_Demo\gagent\libgagent.a(gagentThread.o)	#SHT_PROGBITS,SHF_ALLOC|SHF_MERGE|SHF_STRINGS,1
	0x43036177		.L.str.8
.rodata.str1.1	0x430361a8	0x2e	G:\TEMP\GoKit4_Demo\gagent\libgagent.a(gagentThread.o)	#SHT_PROGBITS,SHF_ALLOC|SHF_MERGE|SHF_STRINGS,1
	0x430361a8		.L.str.9
.rodata.str1.1	0x430361d6	0x9	G:\TEMP\GoKit4_Demo\gagent\libgagent.a(gagentThread.o)	#SHT_PROGBITS,SHF_ALLOC|SHF_MERGE|SHF_STRINGS,1
	0x430361d6		.L.str.10
.rodata.str1.1	0x430361df	0x2e	G:\TEMP\GoKit4_Demo\gagent\libgagent.a(gagentThread.o)	#SHT_PROGBITS,SHF_ALLOC|SHF_MERGE|SHF_STRINGS,1
	0x430361df		.L.str.11
.rodata.str1.1	0x4303620d	0x9	G:\TEMP\GoKit4_Demo\gagent\libgagent.a(gagentThread.o)	#SHT_PROGBITS,SHF_ALLOC|SHF_MERGE|SHF_STRINGS,1
	0x4303620d		.L.str.12
.rodata.str1.1	0x43036216	0x15	G:\TEMP\GoKit4_Demo\gagent\libgagent.a(gagentThread.o)	#SHT_PROGBITS,SHF_ALLOC|SHF_MERGE|SHF_STRINGS,1
	0x43036216		.L__FUNCTION__.gagent_dam_app_start
.rodata.str1.1	0x4303622b	0x35	G:\TEMP\GoKit4_Demo\gagent\libgagent.a(gagentThread.o)	#SHT_PROGBITS,SHF_ALLOC|SHF_MERGE|SHF_STRINGS,1
	0x4303622b		.L.str.13
.rodata.str1.1	0x43036260	0x11	G:\TEMP\GoKit4_Demo\gagent\libgagent.a(gagentThread.o)	#SHT_PROGBITS,SHF_ALLOC|SHF_MERGE|SHF_STRINGS,1
	0x43036260		.L.str.14
.rodata.str1.1	0x43036271	0x2e	G:\TEMP\GoKit4_Demo\gagent\libgagent.a(gagentThread.o)	#SHT_PROGBITS,SHF_ALLOC|SHF_MERGE|SHF_STRINGS,1
	0x43036271		.L.str.15
.rodata.str1.1	0x4303629f	0x2b	G:\TEMP\GoKit4_Demo\gagent\libgagent.a(gagentThread.o)	#SHT_PROGBITS,SHF_ALLOC|SHF_MERGE|SHF_STRINGS,1
	0x4303629f		.L.str.16
.rodata.str1.1	0x430362ca	0x12	G:\TEMP\GoKit4_Demo\gagent\libgagent.a(gagentThread.o)	#SHT_PROGBITS,SHF_ALLOC|SHF_MERGE|SHF_STRINGS,1
	0x430362ca		.L.str.17
.rodata.str1.1	0x430362dc	0x2b	G:\TEMP\GoKit4_Demo\gagent\libgagent.a(gagentThread.o)	#SHT_PROGBITS,SHF_ALLOC|SHF_MERGE|SHF_STRINGS,1
	0x430362dc		.L.str.18
.rodata.str1.1	0x43036307	0xe	G:\TEMP\GoKit4_Demo\gagent\libgagent.a(gagentThread.o)	#SHT_PROGBITS,SHF_ALLOC|SHF_MERGE|SHF_STRINGS,1
	0x43036307		.L__FUNCTION__.gatMainThread
.rodata.str1.1	0x43036315	0x27	G:\TEMP\GoKit4_Demo\gagent\libgagent.a(gagentThread.o)	#SHT_PROGBITS,SHF_ALLOC|SHF_MERGE|SHF_STRINGS,1
	0x43036315		.L.str.19
.rodata.str1.1	0x4303633c	0x15	G:\TEMP\GoKit4_Demo\gagent\libgagent.a(gagentThread.o)	#SHT_PROGBITS,SHF_ALLOC|SHF_MERGE|SHF_STRINGS,1
	0x4303633c		.L__FUNCTION__.gatStartgagentThread
.rodata.str1.1	0x43036351	0x35	G:\TEMP\GoKit4_Demo\gagent\libgagent.a(gagentThread.o)	#SHT_PROGBITS,SHF_ALLOC|SHF_MERGE|SHF_STRINGS,1
	0x43036351		.L.str.20
.rodata.str1.1	0x43036386	0x16	G:\TEMP\GoKit4_Demo\gagent\libgagent.a(iofdev.o)	#SHT_PROGBITS,SHF_ALLOC|SHF_MERGE|SHF_STRINGS,1
	0x43036386		.L.str.2
.rodata.str1.1	0x4303639c	0xb	G:\TEMP\GoKit4_Demo\gagent\libgagent.a(iofdev.o)	#SHT_PROGBITS,SHF_ALLOC|SHF_MERGE|SHF_STRINGS,1
	0x4303639c		.L__FUNCTION__.devRestart
.rodata.str1.1	0x430363a7	0x10	G:\TEMP\GoKit4_Demo\gagent\libgagent.a(iofdev.o)	#SHT_PROGBITS,SHF_ALLOC|SHF_MERGE|SHF_STRINGS,1
	0x430363a7		.L.str.3
.rodata.str1.1	0x430363b7	0x12	G:\TEMP\GoKit4_Demo\gagent\libgagent.a(iofdev.o)	#SHT_PROGBITS,SHF_ALLOC|SHF_MERGE|SHF_STRINGS,1
	0x430363b7		.L__FUNCTION__.iofGatAuthKeyRead
.rodata.str1.1	0x430363c9	0x35	G:\TEMP\GoKit4_Demo\gagent\libgagent.a(iofdev.o)	#SHT_PROGBITS,SHF_ALLOC|SHF_MERGE|SHF_STRINGS,1
	0x430363c9		.L.str.4
.rodata.str1.1	0x430363fe	0x3	G:\TEMP\GoKit4_Demo\gagent\libgagent.a(iofdev.o)	#SHT_PROGBITS,SHF_ALLOC|SHF_MERGE|SHF_STRINGS,1
	0x430363fe		.L.str.5
.rodata.str1.1	0x43036401	0x6	G:\TEMP\GoKit4_Demo\gagent\libgagent.a(iofdev.o)	#SHT_PROGBITS,SHF_ALLOC|SHF_MERGE|SHF_STRINGS,1
	0x43036401		.L.str.6
.rodata.str1.1	0x43036407	0x5	G:\TEMP\GoKit4_Demo\gagent\libgagent.a(iofdev.o)	#SHT_PROGBITS,SHF_ALLOC|SHF_MERGE|SHF_STRINGS,1
	0x43036407		.L.str.7
.rodata.str1.1	0x4303640c	0x16	G:\TEMP\GoKit4_Demo\gagent\libgagent.a(iofdev.o)	#SHT_PROGBITS,SHF_ALLOC|SHF_MERGE|SHF_STRINGS,1
	0x4303640c		.L.str.8
.rodata.str1.1	0x43036422	0x2a	G:\TEMP\GoKit4_Demo\gagent\libgagent.a(iofdev.o)	#SHT_PROGBITS,SHF_ALLOC|SHF_MERGE|SHF_STRINGS,1
	0x43036422		.L.str.9
.rodata.str1.1	0x4303644c	0xe	G:\TEMP\GoKit4_Demo\gagent\libgagent.a(iofdev.o)	#SHT_PROGBITS,SHF_ALLOC|SHF_MERGE|SHF_STRINGS,1
	0x4303644c		.L__FUNCTION__.devOtaUpgrade
.rodata.str1.1	0x4303645a	0xc	G:\TEMP\GoKit4_Demo\gagent\libgagent.a(iofdev.o)	#SHT_PROGBITS,SHF_ALLOC|SHF_MERGE|SHF_STRINGS,1
	0x4303645a		.L.str.10
.rodata.str1.1	0x43036466	0x2a	G:\TEMP\GoKit4_Demo\gagent\libgagent.a(iofdev.o)	#SHT_PROGBITS,SHF_ALLOC|SHF_MERGE|SHF_STRINGS,1
	0x43036466		.L.str.11
.rodata.str1.1	0x43036490	0x13	G:\TEMP\GoKit4_Demo\gagent\libgagent.a(iofdev.o)	#SHT_PROGBITS,SHF_ALLOC|SHF_MERGE|SHF_STRINGS,1
	0x43036490		.L.str.12
.rodata.str1.1	0x430364a3	0xc	G:\TEMP\GoKit4_Demo\gagent\libgagent.a(iofipc.o)	#SHT_PROGBITS,SHF_ALLOC|SHF_MERGE|SHF_STRINGS,1
	0x430364a3		.L__FUNCTION__.iofMsgCreat
.rodata.str1.1	0x430364af	0x1f	G:\TEMP\GoKit4_Demo\gagent\libgagent.a(iofipc.o)	#SHT_PROGBITS,SHF_ALLOC|SHF_MERGE|SHF_STRINGS,1
	0x430364af		.L.str.2
.rodata.str1.1	0x430364ce	0x9	G:\TEMP\GoKit4_Demo\gagent\libgagent.a(iofipc.o)	#SHT_PROGBITS,SHF_ALLOC|SHF_MERGE|SHF_STRINGS,1
	0x430364ce		.L.str.3
.rodata.str1.1	0x430364d7	0x39	G:\TEMP\GoKit4_Demo\gagent\libgagent.a(iofipc.o)	#SHT_PROGBITS,SHF_ALLOC|SHF_MERGE|SHF_STRINGS,1
	0x430364d7		.L.str.4
.rodata.str1.1	0x43036510	0x16	G:\TEMP\GoKit4_Demo\gagent\libgagent.a(iofipc.o)	#SHT_PROGBITS,SHF_ALLOC|SHF_MERGE|SHF_STRINGS,1
	0x43036510		.L.str.5
.rodata.str1.1	0x43036526	0xb	G:\TEMP\GoKit4_Demo\gagent\libgagent.a(iofipc.o)	#SHT_PROGBITS,SHF_ALLOC|SHF_MERGE|SHF_STRINGS,1
	0x43036526		.L__FUNCTION__.iofSendSig
.rodata.str1.1	0x43036531	0x32	G:\TEMP\GoKit4_Demo\gagent\libgagent.a(iofipc.o)	#SHT_PROGBITS,SHF_ALLOC|SHF_MERGE|SHF_STRINGS,1
	0x43036531		.L.str.6
.rodata.str1.1	0x43036563	0x25	G:\TEMP\GoKit4_Demo\gagent\libgagent.a(iofipc.o)	#SHT_PROGBITS,SHF_ALLOC|SHF_MERGE|SHF_STRINGS,1
	0x43036563		.L.str.7
.rodata.str1.1	0x43036588	0x34	G:\TEMP\GoKit4_Demo\gagent\libgagent.a(iofipc.o)	#SHT_PROGBITS,SHF_ALLOC|SHF_MERGE|SHF_STRINGS,1
	0x43036588		.L.str.8
.rodata.str1.1	0x430365bc	0xe	G:\TEMP\GoKit4_Demo\gagent\libgagent.a(iofipc.o)	#SHT_PROGBITS,SHF_ALLOC|SHF_MERGE|SHF_STRINGS,1
	0x430365bc		.L.str.9
.rodata.str1.1	0x430365ca	0xc	G:\TEMP\GoKit4_Demo\gagent\libgagent.a(iofipc.o)	#SHT_PROGBITS,SHF_ALLOC|SHF_MERGE|SHF_STRINGS,1
	0x430365ca		.L__FUNCTION__.iofLockInit
.rodata.str1.1	0x430365d6	0x13	G:\TEMP\GoKit4_Demo\gagent\libgagent.a(iofpthread.o)	#SHT_PROGBITS,SHF_ALLOC|SHF_MERGE|SHF_STRINGS,1
	0x430365d6		.L.str
.rodata.str1.1	0x430365e9	0x15	G:\TEMP\GoKit4_Demo\gagent\libgagent.a(iofpthread.o)	#SHT_PROGBITS,SHF_ALLOC|SHF_MERGE|SHF_STRINGS,1
	0x430365e9		.L.str.1
.rodata.str1.1	0x430365fe	0x14	G:\TEMP\GoKit4_Demo\gagent\libgagent.a(iofpthread.o)	#SHT_PROGBITS,SHF_ALLOC|SHF_MERGE|SHF_STRINGS,1
	0x430365fe		.L.str.2
.rodata.str1.1	0x43036612	0x11	G:\TEMP\GoKit4_Demo\gagent\libgagent.a(iofpthread.o)	#SHT_PROGBITS,SHF_ALLOC|SHF_MERGE|SHF_STRINGS,1
	0x43036612		.L.str.3
.rodata.str1.1	0x43036623	0x10	G:\TEMP\GoKit4_Demo\gagent\libgagent.a(iofpthread.o)	#SHT_PROGBITS,SHF_ALLOC|SHF_MERGE|SHF_STRINGS,1
	0x43036623		.L.str.4
.rodata.str1.1	0x43036633	0x14	G:\TEMP\GoKit4_Demo\gagent\libgagent.a(iofpthread.o)	#SHT_PROGBITS,SHF_ALLOC|SHF_MERGE|SHF_STRINGS,1
	0x43036633		.L.str.5
.rodata.str1.1	0x43036647	0x13	G:\TEMP\GoKit4_Demo\gagent\libgagent.a(iofpthread.o)	#SHT_PROGBITS,SHF_ALLOC|SHF_MERGE|SHF_STRINGS,1
	0x43036647		.L.str.6
.rodata.str1.1	0x4303665a	0xd	G:\TEMP\GoKit4_Demo\gagent\libgagent.a(iofpthread.o)	#SHT_PROGBITS,SHF_ALLOC|SHF_MERGE|SHF_STRINGS,1
	0x4303665a		.L.str.7
.rodata.str1.1	0x43036667	0xd	G:\TEMP\GoKit4_Demo\gagent\libgagent.a(iofpthread.o)	#SHT_PROGBITS,SHF_ALLOC|SHF_MERGE|SHF_STRINGS,1
	0x43036667		.L.str.8
.rodata.str1.1	0x43036674	0x15	G:\TEMP\GoKit4_Demo\gagent\libgagent.a(iofpthread.o)	#SHT_PROGBITS,SHF_ALLOC|SHF_MERGE|SHF_STRINGS,1
	0x43036674		.L.str.9
.rodata.str1.1	0x43036689	0x11	G:\TEMP\GoKit4_Demo\gagent\libgagent.a(iofpthread.o)	#SHT_PROGBITS,SHF_ALLOC|SHF_MERGE|SHF_STRINGS,1
	0x43036689		.L__FUNCTION__.iofPthreadCreate
.rodata.str1.1	0x4303669a	0x22	G:\TEMP\GoKit4_Demo\gagent\libgagent.a(iofpthread.o)	#SHT_PROGBITS,SHF_ALLOC|SHF_MERGE|SHF_STRINGS,1
	0x4303669a		.L.str.12
.rodata.str1.1	0x430366bc	0x2f	G:\TEMP\GoKit4_Demo\gagent\libgagent.a(iofpthread.o)	#SHT_PROGBITS,SHF_ALLOC|SHF_MERGE|SHF_STRINGS,1
	0x430366bc		.L.str.13
.rodata.str1.1	0x430366eb	0x2c	G:\TEMP\GoKit4_Demo\gagent\libgagent.a(iofpthread.o)	#SHT_PROGBITS,SHF_ALLOC|SHF_MERGE|SHF_STRINGS,1
	0x430366eb		.L.str.14
.rodata.str1.1	0x43036717	0x30	G:\TEMP\GoKit4_Demo\gagent\libgagent.a(iofpthread.o)	#SHT_PROGBITS,SHF_ALLOC|SHF_MERGE|SHF_STRINGS,1
	0x43036717		.L.str.15
.rodata.str1.1	0x43036747	0x35	G:\TEMP\GoKit4_Demo\gagent\libgagent.a(iofpthread.o)	#SHT_PROGBITS,SHF_ALLOC|SHF_MERGE|SHF_STRINGS,1
	0x43036747		.L.str.16
.rodata.str1.1	0x4303677c	0x1f	G:\TEMP\GoKit4_Demo\gagent\libgagent.a(iofpthread.o)	#SHT_PROGBITS,SHF_ALLOC|SHF_MERGE|SHF_STRINGS,1
	0x4303677c		.L.str.17
.rodata.str1.1	0x4303679b	0x12	G:\TEMP\GoKit4_Demo\gagent\libgagent.a(iofpthread.o)	#SHT_PROGBITS,SHF_ALLOC|SHF_MERGE|SHF_STRINGS,1
	0x4303679b		.L__FUNCTION__.iofPthreadNameSet
.rodata.str1.1	0x430367ad	0x2a	G:\TEMP\GoKit4_Demo\gagent\libgagent.a(iofpthread.o)	#SHT_PROGBITS,SHF_ALLOC|SHF_MERGE|SHF_STRINGS,1
	0x430367ad		.L.str.18
.rodata.str1.1	0x430367d7	0x5	G:\TEMP\GoKit4_Demo\gagent\libgagent.a(iofpthread.o)	#SHT_PROGBITS,SHF_ALLOC|SHF_MERGE|SHF_STRINGS,1
	0x430367d7		.L.str.19
.rodata.str1.1	0x430367dc	0x5	G:\TEMP\GoKit4_Demo\gagent\libgagent.a(iofpthread.o)	#SHT_PROGBITS,SHF_ALLOC|SHF_MERGE|SHF_STRINGS,1
	0x430367dc		.L.str.20
.rodata.str1.1	0x430367e1	0x8	G:\TEMP\GoKit4_Demo\gagent\libgagent.a(iofpthread.o)	#SHT_PROGBITS,SHF_ALLOC|SHF_MERGE|SHF_STRINGS,1
	0x430367e1		.L.str.21
.rodata.str1.1	0x430367e9	0x2d	G:\TEMP\GoKit4_Demo\gagent\libgagent.a(iofpthread.o)	#SHT_PROGBITS,SHF_ALLOC|SHF_MERGE|SHF_STRINGS,1
	0x430367e9		.L.str.22
.rodata.str1.1	0x43036816	0x15	G:\TEMP\GoKit4_Demo\gagent\libgagent.a(iofpthread.o)	#SHT_PROGBITS,SHF_ALLOC|SHF_MERGE|SHF_STRINGS,1
	0x43036816		.L.str.23
.rodata.str1.1	0x4303682b	0x13	G:\TEMP\GoKit4_Demo\gagent\libgagent.a(iofpthread.o)	#SHT_PROGBITS,SHF_ALLOC|SHF_MERGE|SHF_STRINGS,1
	0x4303682b		.L.str.24
.rodata.str1.1	0x4303683e	0x10	G:\TEMP\GoKit4_Demo\gagent\libgagent.a(iofpthread.o)	#SHT_PROGBITS,SHF_ALLOC|SHF_MERGE|SHF_STRINGS,1
	0x4303683e		.L.str.25
.rodata.str1.1	0x4303684e	0x13	G:\TEMP\GoKit4_Demo\gagent\libgagent.a(iofpthread.o)	#SHT_PROGBITS,SHF_ALLOC|SHF_MERGE|SHF_STRINGS,1
	0x4303684e		.L.str.26
.rodata.str1.1	0x43036861	0x27	G:\TEMP\GoKit4_Demo\gagent\libgagent.a(iofstring.o)	#SHT_PROGBITS,SHF_ALLOC|SHF_MERGE|SHF_STRINGS,1
	0x43036861		.L.str.2
.rodata.str1.1	0x43036888	0x30	G:\TEMP\GoKit4_Demo\gagent\libgagent.a(iofstring.o)	#SHT_PROGBITS,SHF_ALLOC|SHF_MERGE|SHF_STRINGS,1
	0x43036888		.L.str.3
.rodata.str1.1	0x430368b8	0x2f	G:\TEMP\GoKit4_Demo\gagent\libgagent.a(iofstring.o)	#SHT_PROGBITS,SHF_ALLOC|SHF_MERGE|SHF_STRINGS,1
	0x430368b8		.L.str.4
.rodata.str1.1	0x430368e7	0x2b	G:\TEMP\GoKit4_Demo\gagent\libgagent.a(iofstring.o)	#SHT_PROGBITS,SHF_ALLOC|SHF_MERGE|SHF_STRINGS,1
	0x430368e7		.L.str.5
.rodata.str1.1	0x43036912	0x25	G:\TEMP\GoKit4_Demo\gagent\libgagent.a(iofstring.o)	#SHT_PROGBITS,SHF_ALLOC|SHF_MERGE|SHF_STRINGS,1
	0x43036912		.L.str.6
.rodata.str1.1	0x43036937	0x20	G:\TEMP\GoKit4_Demo\gagent\libgagent.a(iofstring.o)	#SHT_PROGBITS,SHF_ALLOC|SHF_MERGE|SHF_STRINGS,1
	0x43036937		.L.str.7
.rodata.str1.1	0x43036957	0x17	G:\TEMP\GoKit4_Demo\gagent\libgagent.a(iofstring.o)	#SHT_PROGBITS,SHF_ALLOC|SHF_MERGE|SHF_STRINGS,1
	0x43036957		.L.str.8
.rodata.str1.1	0x4303696e	0x18	G:\TEMP\GoKit4_Demo\gagent\libgagent.a(iofstring.o)	#SHT_PROGBITS,SHF_ALLOC|SHF_MERGE|SHF_STRINGS,1
	0x4303696e		.L.str.9
.rodata.str1.1	0x43036986	0x1f	G:\TEMP\GoKit4_Demo\gagent\libgagent.a(local.o)	#SHT_PROGBITS,SHF_ALLOC|SHF_MERGE|SHF_STRINGS,1
	0x43036986		.L.str.2
.rodata.str1.1	0x430369a5	0x3a	G:\TEMP\GoKit4_Demo\gagent\libgagent.a(local.o)	#SHT_PROGBITS,SHF_ALLOC|SHF_MERGE|SHF_STRINGS,1
	0x430369a5		.L.str.4
.rodata.str1.1	0x430369df	0x29	G:\TEMP\GoKit4_Demo\gagent\libgagent.a(local.o)	#SHT_PROGBITS,SHF_ALLOC|SHF_MERGE|SHF_STRINGS,1
	0x430369df		.L.str.5
.rodata.str1.1	0x43036a08	0x22	G:\TEMP\GoKit4_Demo\gagent\libgagent.a(local.o)	#SHT_PROGBITS,SHF_ALLOC|SHF_MERGE|SHF_STRINGS,1
	0x43036a08		.L.str.6
.rodata.str1.1	0x43036a2a	0x1b	G:\TEMP\GoKit4_Demo\gagent\libgagent.a(local.o)	#SHT_PROGBITS,SHF_ALLOC|SHF_MERGE|SHF_STRINGS,1
	0x43036a2a		.L.str.7
.rodata.str1.1	0x43036a45	0x2e	G:\TEMP\GoKit4_Demo\gagent\libgagent.a(local.o)	#SHT_PROGBITS,SHF_ALLOC|SHF_MERGE|SHF_STRINGS,1
	0x43036a45		.L.str.9
.rodata.str1.1	0x43036a73	0x27	G:\TEMP\GoKit4_Demo\gagent\libgagent.a(local.o)	#SHT_PROGBITS,SHF_ALLOC|SHF_MERGE|SHF_STRINGS,1
	0x43036a73		.L.str.10
.rodata.str1.1	0x43036a9a	0x27	G:\TEMP\GoKit4_Demo\gagent\libgagent.a(local.o)	#SHT_PROGBITS,SHF_ALLOC|SHF_MERGE|SHF_STRINGS,1
	0x43036a9a		.L.str.11
.rodata.str1.1	0x43036ac1	0x27	G:\TEMP\GoKit4_Demo\gagent\libgagent.a(local.o)	#SHT_PROGBITS,SHF_ALLOC|SHF_MERGE|SHF_STRINGS,1
	0x43036ac1		.L.str.12
.rodata.str1.1	0x43036ae8	0x27	G:\TEMP\GoKit4_Demo\gagent\libgagent.a(local.o)	#SHT_PROGBITS,SHF_ALLOC|SHF_MERGE|SHF_STRINGS,1
	0x43036ae8		.L.str.13
.rodata.str1.1	0x43036b0f	0x27	G:\TEMP\GoKit4_Demo\gagent\libgagent.a(local.o)	#SHT_PROGBITS,SHF_ALLOC|SHF_MERGE|SHF_STRINGS,1
	0x43036b0f		.L.str.14
.rodata.str1.1	0x43036b36	0x27	G:\TEMP\GoKit4_Demo\gagent\libgagent.a(local.o)	#SHT_PROGBITS,SHF_ALLOC|SHF_MERGE|SHF_STRINGS,1
	0x43036b36		.L.str.15
.rodata.str1.1	0x43036b5d	0x27	G:\TEMP\GoKit4_Demo\gagent\libgagent.a(local.o)	#SHT_PROGBITS,SHF_ALLOC|SHF_MERGE|SHF_STRINGS,1
	0x43036b5d		.L.str.16
.rodata.str1.1	0x43036b84	0x28	G:\TEMP\GoKit4_Demo\gagent\libgagent.a(local.o)	#SHT_PROGBITS,SHF_ALLOC|SHF_MERGE|SHF_STRINGS,1
	0x43036b84		.L.str.17
.rodata.str1.1	0x43036bac	0x8	G:\TEMP\GoKit4_Demo\gagent\libgagent.a(local.o)	#SHT_PROGBITS,SHF_ALLOC|SHF_MERGE|SHF_STRINGS,1
	0x43036bac		.L.str.22
.rodata.str1.1	0x43036bb4	0x9	G:\TEMP\GoKit4_Demo\gagent\libgagent.a(local.o)	#SHT_PROGBITS,SHF_ALLOC|SHF_MERGE|SHF_STRINGS,1
	0x43036bb4		.L.str.23
.rodata.str1.1	0x43036bbd	0x7	G:\TEMP\GoKit4_Demo\gagent\libgagent.a(local.o)	#SHT_PROGBITS,SHF_ALLOC|SHF_MERGE|SHF_STRINGS,1
	0x43036bbd		.L.str.24
.rodata.str1.1	0x43036bc4	0x5	G:\TEMP\GoKit4_Demo\gagent\libgagent.a(local.o)	#SHT_PROGBITS,SHF_ALLOC|SHF_MERGE|SHF_STRINGS,1
	0x43036bc4		.L.str.25
.rodata.str1.1	0x43036bc9	0x7	G:\TEMP\GoKit4_Demo\gagent\libgagent.a(local.o)	#SHT_PROGBITS,SHF_ALLOC|SHF_MERGE|SHF_STRINGS,1
	0x43036bc9		.L.str.26
.rodata.str1.1	0x43036bd0	0x8	G:\TEMP\GoKit4_Demo\gagent\libgagent.a(local.o)	#SHT_PROGBITS,SHF_ALLOC|SHF_MERGE|SHF_STRINGS,1
	0x43036bd0		.L.str.27
.rodata.str1.1	0x43036bd8	0x6	G:\TEMP\GoKit4_Demo\gagent\libgagent.a(local.o)	#SHT_PROGBITS,SHF_ALLOC|SHF_MERGE|SHF_STRINGS,1
	0x43036bd8		.L.str.28
.rodata.str1.1	0x43036bde	0xa	G:\TEMP\GoKit4_Demo\gagent\libgagent.a(local.o)	#SHT_PROGBITS,SHF_ALLOC|SHF_MERGE|SHF_STRINGS,1
	0x43036bde		.L.str.29
.rodata.str1.1	0x43036be8	0x6	G:\TEMP\GoKit4_Demo\gagent\libgagent.a(local.o)	#SHT_PROGBITS,SHF_ALLOC|SHF_MERGE|SHF_STRINGS,1
	0x43036be8		.L.str.30
.rodata.str1.1	0x43036bee	0x3	G:\TEMP\GoKit4_Demo\gagent\libgagent.a(local.o)	#SHT_PROGBITS,SHF_ALLOC|SHF_MERGE|SHF_STRINGS,1
	0x43036bee		.L.str.31
.rodata.str1.1	0x43036bf1	0x8	G:\TEMP\GoKit4_Demo\gagent\libgagent.a(local.o)	#SHT_PROGBITS,SHF_ALLOC|SHF_MERGE|SHF_STRINGS,1
	0x43036bf1		.L.str.32
.rodata.str1.1	0x43036bf9	0xa	G:\TEMP\GoKit4_Demo\gagent\libgagent.a(local.o)	#SHT_PROGBITS,SHF_ALLOC|SHF_MERGE|SHF_STRINGS,1
	0x43036bf9		.L.str.33
.rodata.str1.1	0x43036c03	0x8	G:\TEMP\GoKit4_Demo\gagent\libgagent.a(local.o)	#SHT_PROGBITS,SHF_ALLOC|SHF_MERGE|SHF_STRINGS,1
	0x43036c03		.L.str.34
.rodata.str1.1	0x43036c0b	0x10	G:\TEMP\GoKit4_Demo\gagent\libgagent.a(local.o)	#SHT_PROGBITS,SHF_ALLOC|SHF_MERGE|SHF_STRINGS,1
	0x43036c0b		.L.str.35
.rodata.str1.1	0x43036c1b	0x2b	G:\TEMP\GoKit4_Demo\gagent\libgagent.a(local.o)	#SHT_PROGBITS,SHF_ALLOC|SHF_MERGE|SHF_STRINGS,1
	0x43036c1b		.L.str.36
.rodata.str1.1	0x43036c46	0x11	G:\TEMP\GoKit4_Demo\gagent\libgagent.a(local.o)	#SHT_PROGBITS,SHF_ALLOC|SHF_MERGE|SHF_STRINGS,1
	0x43036c46		.L__FUNCTION__.gatAppData2Local
.rodata.str1.1	0x43036c57	0x3c	G:\TEMP\GoKit4_Demo\gagent\libgagent.a(local.o)	#SHT_PROGBITS,SHF_ALLOC|SHF_MERGE|SHF_STRINGS,1
	0x43036c57		.L.str.37
.rodata.str1.1	0x43036c93	0x2d	G:\TEMP\GoKit4_Demo\gagent\libgagent.a(local.o)	#SHT_PROGBITS,SHF_ALLOC|SHF_MERGE|SHF_STRINGS,1
	0x43036c93		.L.str.38
.rodata.str1.1	0x43036cc0	0xe	G:\TEMP\GoKit4_Demo\gagent\libgagent.a(local.o)	#SHT_PROGBITS,SHF_ALLOC|SHF_MERGE|SHF_STRINGS,1
	0x43036cc0		.L.str.39
.rodata.str1.1	0x43036cce	0x11	G:\TEMP\GoKit4_Demo\gagent\libgagent.a(local.o)	#SHT_PROGBITS,SHF_ALLOC|SHF_MERGE|SHF_STRINGS,1
	0x43036cce		.L.str.40
.rodata.str1.1	0x43036cdf	0x13	G:\TEMP\GoKit4_Demo\gagent\libgagent.a(local.o)	#SHT_PROGBITS,SHF_ALLOC|SHF_MERGE|SHF_STRINGS,1
	0x43036cdf		.L.str.41
.rodata.str1.1	0x43036cf2	0x1e	G:\TEMP\GoKit4_Demo\gagent\libgagent.a(local.o)	#SHT_PROGBITS,SHF_ALLOC|SHF_MERGE|SHF_STRINGS,1
	0x43036cf2		.L.str.42
.rodata.str1.1	0x43036d10	0xe	G:\TEMP\GoKit4_Demo\gagent\libgagent.a(local.o)	#SHT_PROGBITS,SHF_ALLOC|SHF_MERGE|SHF_STRINGS,1
	0x43036d10		.L__FUNCTION__.GAgentInfoGet
.rodata.str1.1	0x43036d1e	0x1c	G:\TEMP\GoKit4_Demo\gagent\libgagent.a(local.o)	#SHT_PROGBITS,SHF_ALLOC|SHF_MERGE|SHF_STRINGS,1
	0x43036d1e		.L.str.43
.rodata.str1.1	0x43036d3a	0x13	G:\TEMP\GoKit4_Demo\gagent\libgagent.a(local.o)	#SHT_PROGBITS,SHF_ALLOC|SHF_MERGE|SHF_STRINGS,1
	0x43036d3a		.L__FUNCTION__.gatLocalSendStatus
.rodata.str1.1	0x43036d4d	0x34	G:\TEMP\GoKit4_Demo\gagent\libgagent.a(local.o)	#SHT_PROGBITS,SHF_ALLOC|SHF_MERGE|SHF_STRINGS,1
	0x43036d4d		.L.str.44
.rodata.str1.1	0x43036d81	0x20	G:\TEMP\GoKit4_Demo\gagent\libgagent.a(local.o)	#SHT_PROGBITS,SHF_ALLOC|SHF_MERGE|SHF_STRINGS,1
	0x43036d81		.L.str.45
.rodata.str1.1	0x43036da1	0x19	G:\TEMP\GoKit4_Demo\gagent\libgagent.a(local.o)	#SHT_PROGBITS,SHF_ALLOC|SHF_MERGE|SHF_STRINGS,1
	0x43036da1		.L.str.46
.rodata.str1.1	0x43036dba	0x10	G:\TEMP\GoKit4_Demo\gagent\libgagent.a(local.o)	#SHT_PROGBITS,SHF_ALLOC|SHF_MERGE|SHF_STRINGS,1
	0x43036dba		.L.str.47
.rodata.str1.1	0x43036dca	0x13	G:\TEMP\GoKit4_Demo\gagent\libgagent.a(local.o)	#SHT_PROGBITS,SHF_ALLOC|SHF_MERGE|SHF_STRINGS,1
	0x43036dca		.L__FUNCTION__.gatLocalStatusSync
.rodata.str1.1	0x43036ddd	0x18	G:\TEMP\GoKit4_Demo\gagent\libgagent.a(localcomm.o)	#SHT_PROGBITS,SHF_ALLOC|SHF_MERGE|SHF_STRINGS,1
	0x43036ddd		.L.str.2
.rodata.str1.1	0x43036df5	0x13	G:\TEMP\GoKit4_Demo\gagent\libgagent.a(localcomm.o)	#SHT_PROGBITS,SHF_ALLOC|SHF_MERGE|SHF_STRINGS,1
	0x43036df5		.L__FUNCTION__.gatEnableBindStart
.rodata.str1.1	0x43036e08	0x12	G:\TEMP\GoKit4_Demo\gagent\libgagent.a(localcomm.o)	#SHT_PROGBITS,SHF_ALLOC|SHF_MERGE|SHF_STRINGS,1
	0x43036e08		.L.str.3
.rodata.str1.1	0x43036e1a	0x2c	G:\TEMP\GoKit4_Demo\gagent\libgagent.a(localcomm.o)	#SHT_PROGBITS,SHF_ALLOC|SHF_MERGE|SHF_STRINGS,1
	0x43036e1a		.L.str.4
.rodata.str1.1	0x43036e46	0xf	G:\TEMP\GoKit4_Demo\gagent\libgagent.a(localcomm.o)	#SHT_PROGBITS,SHF_ALLOC|SHF_MERGE|SHF_STRINGS,1
	0x43036e46		.L.str.5
.rodata.str1.1	0x43036e55	0xf	G:\TEMP\GoKit4_Demo\gagent\libgagent.a(localcomm.o)	#SHT_PROGBITS,SHF_ALLOC|SHF_MERGE|SHF_STRINGS,1
	0x43036e55		.L__FUNCTION__.gatFactoryMode
.rodata.str1.1	0x43036e64	0x26	G:\TEMP\GoKit4_Demo\gagent\libgagent.a(localcomm.o)	#SHT_PROGBITS,SHF_ALLOC|SHF_MERGE|SHF_STRINGS,1
	0x43036e64		.L.str.6
.rodata.str1.1	0x43036e8a	0xc	G:\TEMP\GoKit4_Demo\gagent\libgagent.a(localcomm.o)	#SHT_PROGBITS,SHF_ALLOC|SHF_MERGE|SHF_STRINGS,1
	0x43036e8a		.L.str.7
.rodata.str1.1	0x43036e96	0x5	G:\TEMP\GoKit4_Demo\gagent\libgagent.a(localcomm.o)	#SHT_PROGBITS,SHF_ALLOC|SHF_MERGE|SHF_STRINGS,1
	0x43036e96		.L.str.12
.rodata.str1.1	0x43036e9b	0x1a	G:\TEMP\GoKit4_Demo\gagent\libgagent.a(localcomm.o)	#SHT_PROGBITS,SHF_ALLOC|SHF_MERGE|SHF_STRINGS,1
	0x43036e9b		.L.str.13
.rodata.str1.1	0x43036eb5	0xc	G:\TEMP\GoKit4_Demo\gagent\libgagent.a(localcomm.o)	#SHT_PROGBITS,SHF_ALLOC|SHF_MERGE|SHF_STRINGS,1
	0x43036eb5		.L.str.14
.rodata.str1.1	0x43036ec1	0x35	G:\TEMP\GoKit4_Demo\gagent\libgagent.a(localcomm.o)	#SHT_PROGBITS,SHF_ALLOC|SHF_MERGE|SHF_STRINGS,1
	0x43036ec1		.L.str.15
.rodata.str1.1	0x43036ef6	0x9	G:\TEMP\GoKit4_Demo\gagent\libgagent.a(localcomm.o)	#SHT_PROGBITS,SHF_ALLOC|SHF_MERGE|SHF_STRINGS,1
	0x43036ef6		.L.str.18
.rodata.str1.1	0x43036eff	0x11	G:\TEMP\GoKit4_Demo\gagent\libgagent.a(localcomm.o)	#SHT_PROGBITS,SHF_ALLOC|SHF_MERGE|SHF_STRINGS,1
	0x43036eff		.L.str.19
.rodata.str1.1	0x43036f10	0xd	G:\TEMP\GoKit4_Demo\gagent\libgagent.a(localcomm.o)	#SHT_PROGBITS,SHF_ALLOC|SHF_MERGE|SHF_STRINGS,1
	0x43036f10		.L__FUNCTION__.gatEnterTest
.rodata.str1.1	0x43036f1d	0x16	G:\TEMP\GoKit4_Demo\gagent\libgagent.a(localcomm.o)	#SHT_PROGBITS,SHF_ALLOC|SHF_MERGE|SHF_STRINGS,1
	0x43036f1d		.L__FUNCTION__.gatLocalGAgentRestart
.rodata.str1.1	0x43036f33	0x10	G:\TEMP\GoKit4_Demo\gagent\libgagent.a(localcomm.o)	#SHT_PROGBITS,SHF_ALLOC|SHF_MERGE|SHF_STRINGS,1
	0x43036f33		.L.str.20
.rodata.str1.1	0x43036f43	0x1c	G:\TEMP\GoKit4_Demo\gagent\libgagent.a(localcomm.o)	#SHT_PROGBITS,SHF_ALLOC|SHF_MERGE|SHF_STRINGS,1
	0x43036f43		.L__FUNCTION__.gatLocalErrHandleAckTimeOut
.rodata.str1.1	0x43036f5f	0x3b	G:\TEMP\GoKit4_Demo\gagent\libgagent.a(localcomm.o)	#SHT_PROGBITS,SHF_ALLOC|SHF_MERGE|SHF_STRINGS,1
	0x43036f5f		.L.str.21
.rodata.str1.1	0x43036f9a	0x23	G:\TEMP\GoKit4_Demo\gagent\libgagent.a(localcomm.o)	#SHT_PROGBITS,SHF_ALLOC|SHF_MERGE|SHF_STRINGS,1
	0x43036f9a		.L.str.22
.rodata.str1.1	0x43036fbd	0x17	G:\TEMP\GoKit4_Demo\gagent\libgagent.a(localcomm.o)	#SHT_PROGBITS,SHF_ALLOC|SHF_MERGE|SHF_STRINGS,1
	0x43036fbd		.L.str.23
.rodata.str1.1	0x43036fd4	0xf	G:\TEMP\GoKit4_Demo\gagent\libgagent.a(localcomm.o)	#SHT_PROGBITS,SHF_ALLOC|SHF_MERGE|SHF_STRINGS,1
	0x43036fd4		.L__FUNCTION__.gatLocalHandle
.rodata.str1.1	0x43036fe3	0x12	G:\TEMP\GoKit4_Demo\gagent\libgagent.a(localcomm.o)	#SHT_PROGBITS,SHF_ALLOC|SHF_MERGE|SHF_STRINGS,1
	0x43036fe3		.L.str.26
.rodata.str1.1	0x43036ff5	0x18	G:\TEMP\GoKit4_Demo\gagent\libgagent.a(localcomm.o)	#SHT_PROGBITS,SHF_ALLOC|SHF_MERGE|SHF_STRINGS,1
	0x43036ff5		.L__FUNCTION__.gatLocalSignalCheckTick
.rodata.str1.1	0x4303700d	0x1b	G:\TEMP\GoKit4_Demo\gagent\libgagent.a(localcomm.o)	#SHT_PROGBITS,SHF_ALLOC|SHF_MERGE|SHF_STRINGS,1
	0x4303700d		.L.str.28
.rodata.str1.1	0x43037028	0x13	G:\TEMP\GoKit4_Demo\gagent\libgagent.a(localcomm.o)	#SHT_PROGBITS,SHF_ALLOC|SHF_MERGE|SHF_STRINGS,1
	0x43037028		.L.str.29
.rodata.str1.1	0x4303703b	0x1b	G:\TEMP\GoKit4_Demo\gagent\libgagent.a(localcomm.o)	#SHT_PROGBITS,SHF_ALLOC|SHF_MERGE|SHF_STRINGS,1
	0x4303703b		.L.str.30
.rodata.str1.1	0x43037056	0x15	G:\TEMP\GoKit4_Demo\gagent\libgagent.a(localcomm.o)	#SHT_PROGBITS,SHF_ALLOC|SHF_MERGE|SHF_STRINGS,1
	0x43037056		.L__FUNCTION__.gatEnableBindTimeOut
.rodata.str1.1	0x4303706b	0x14	G:\TEMP\GoKit4_Demo\gagent\libgagent.a(localio.o)	#SHT_PROGBITS,SHF_ALLOC|SHF_MERGE|SHF_STRINGS,1
	0x4303706b		.L__FUNCTION__.localChannelNodeGet
.rodata.str1.1	0x4303707f	0x19	G:\TEMP\GoKit4_Demo\gagent\libgagent.a(localio.o)	#SHT_PROGBITS,SHF_ALLOC|SHF_MERGE|SHF_STRINGS,1
	0x4303707f		.L.str
.rodata.str1.1	0x43037098	0x1a	G:\TEMP\GoKit4_Demo\gagent\libgagent.a(localio.o)	#SHT_PROGBITS,SHF_ALLOC|SHF_MERGE|SHF_STRINGS,1
	0x43037098		.L.str.3
.rodata.str1.1	0x430370b2	0xf	G:\TEMP\GoKit4_Demo\gagent\libgagent.a(localio.o)	#SHT_PROGBITS,SHF_ALLOC|SHF_MERGE|SHF_STRINGS,1
	0x430370b2		.L__FUNCTION__.gatLocalioInit
.rodata.str1.1	0x430370c1	0x10	G:\TEMP\GoKit4_Demo\gagent\libgagent.a(localio.o)	#SHT_PROGBITS,SHF_ALLOC|SHF_MERGE|SHF_STRINGS,1
	0x430370c1		.L.str.4
.rodata.str1.1	0x430370d1	0x15	G:\TEMP\GoKit4_Demo\gagent\libgagent.a(localio.o)	#SHT_PROGBITS,SHF_ALLOC|SHF_MERGE|SHF_STRINGS,1
	0x430370d1		.L.str.5
.rodata.str1.1	0x430370e6	0x15	G:\TEMP\GoKit4_Demo\gagent\libgagent.a(localio.o)	#SHT_PROGBITS,SHF_ALLOC|SHF_MERGE|SHF_STRINGS,1
	0x430370e6		.L.str.6
.rodata.str1.1	0x430370fb	0xd	G:\TEMP\GoKit4_Demo\gagent\libgagent.a(localio.o)	#SHT_PROGBITS,SHF_ALLOC|SHF_MERGE|SHF_STRINGS,1
	0x430370fb		.L.str.7
.rodata.str1.1	0x43037108	0x2	G:\TEMP\GoKit4_Demo\gagent\libgagent.a(localio.o)	#SHT_PROGBITS,SHF_ALLOC|SHF_MERGE|SHF_STRINGS,1
	0x43037108		.L.str.8
.rodata.str1.1	0x4303710a	0x18	G:\TEMP\GoKit4_Demo\gagent\libgagent.a(localio.o)	#SHT_PROGBITS,SHF_ALLOC|SHF_MERGE|SHF_STRINGS,1
	0x4303710a		.L.str.9
.rodata.str1.1	0x43037122	0x1a	G:\TEMP\GoKit4_Demo\gagent\libgagent.a(localio.o)	#SHT_PROGBITS,SHF_ALLOC|SHF_MERGE|SHF_STRINGS,1
	0x43037122		.L.str.10
.rodata.str1.1	0x4303713c	0x14	G:\TEMP\GoKit4_Demo\gagent\libgagent.a(localio.o)	#SHT_PROGBITS,SHF_ALLOC|SHF_MERGE|SHF_STRINGS,1
	0x4303713c		.L.str.11
.rodata.str1.1	0x43037150	0xf	G:\TEMP\GoKit4_Demo\gagent\libgagent.a(localio.o)	#SHT_PROGBITS,SHF_ALLOC|SHF_MERGE|SHF_STRINGS,1
	0x43037150		.L__FUNCTION__.localRecDataCb
.rodata.str1.1	0x4303715f	0x48	G:\TEMP\GoKit4_Demo\gagent\libgagent.a(localio.o)	#SHT_PROGBITS,SHF_ALLOC|SHF_MERGE|SHF_STRINGS,1
	0x4303715f		.L.str.17
.rodata.str1.1	0x430371a7	0x21	G:\TEMP\GoKit4_Demo\gagent\libgagent.a(localio.o)	#SHT_PROGBITS,SHF_ALLOC|SHF_MERGE|SHF_STRINGS,1
	0x430371a7		.L.str.18
.rodata.str1.1	0x430371c8	0x49	G:\TEMP\GoKit4_Demo\gagent\libgagent.a(localio.o)	#SHT_PROGBITS,SHF_ALLOC|SHF_MERGE|SHF_STRINGS,1
	0x430371c8		.L.str.21
.rodata.str1.1	0x43037211	0x22	G:\TEMP\GoKit4_Demo\gagent\libgagent.a(localio.o)	#SHT_PROGBITS,SHF_ALLOC|SHF_MERGE|SHF_STRINGS,1
	0x43037211		.L.str.22
.rodata.str1.1	0x43037233	0x2a	G:\TEMP\GoKit4_Demo\gagent\libgagent.a(localio.o)	#SHT_PROGBITS,SHF_ALLOC|SHF_MERGE|SHF_STRINGS,1
	0x43037233		.L.str.23
.rodata.str1.1	0x4303725d	0x24	G:\TEMP\GoKit4_Demo\gagent\libgagent.a(localio.o)	#SHT_PROGBITS,SHF_ALLOC|SHF_MERGE|SHF_STRINGS,1
	0x4303725d		.L.str.24
.rodata.str1.1	0x43037281	0x3e	G:\TEMP\GoKit4_Demo\gagent\libgagent.a(localio.o)	#SHT_PROGBITS,SHF_ALLOC|SHF_MERGE|SHF_STRINGS,1
	0x43037281		.L.str.25
.rodata.str1.1	0x430372bf	0xd	G:\TEMP\GoKit4_Demo\gagent\libgagent.a(localio.o)	#SHT_PROGBITS,SHF_ALLOC|SHF_MERGE|SHF_STRINGS,1
	0x430372bf		.L__FUNCTION__.gatLocalSend
.rodata.str1.1	0x430372cc	0x1d	G:\TEMP\GoKit4_Demo\gagent\libgagent.a(localio.o)	#SHT_PROGBITS,SHF_ALLOC|SHF_MERGE|SHF_STRINGS,1
	0x430372cc		.L.str.26
.rodata.str1.1	0x430372e9	0x21	G:\TEMP\GoKit4_Demo\gagent\libgagent.a(localio.o)	#SHT_PROGBITS,SHF_ALLOC|SHF_MERGE|SHF_STRINGS,1
	0x430372e9		.L.str.27
.rodata.str1.1	0x4303730a	0x25	G:\TEMP\GoKit4_Demo\gagent\libgagent.a(localio.o)	#SHT_PROGBITS,SHF_ALLOC|SHF_MERGE|SHF_STRINGS,1
	0x4303730a		.L.str.28
.rodata.str1.1	0x4303732f	0x24	G:\TEMP\GoKit4_Demo\gagent\libgagent.a(localio.o)	#SHT_PROGBITS,SHF_ALLOC|SHF_MERGE|SHF_STRINGS,1
	0x4303732f		.L.str.29
.rodata.str1.1	0x43037353	0x22	G:\TEMP\GoKit4_Demo\gagent\libgagent.a(localio.o)	#SHT_PROGBITS,SHF_ALLOC|SHF_MERGE|SHF_STRINGS,1
	0x43037353		.L.str.30
.rodata.str1.1	0x43037375	0x1c	G:\TEMP\GoKit4_Demo\gagent\libgagent.a(localio.o)	#SHT_PROGBITS,SHF_ALLOC|SHF_MERGE|SHF_STRINGS,1
	0x43037375		.L.str.31
.rodata.str1.1	0x43037391	0x14	G:\TEMP\GoKit4_Demo\gagent\libgagent.a(localio.o)	#SHT_PROGBITS,SHF_ALLOC|SHF_MERGE|SHF_STRINGS,1
	0x43037391		.L__FUNCTION__.gatSerialSendHandle
.rodata.str1.1	0x430373a5	0x3b	G:\TEMP\GoKit4_Demo\gagent\libgagent.a(localio.o)	#SHT_PROGBITS,SHF_ALLOC|SHF_MERGE|SHF_STRINGS,1
	0x430373a5		.L.str.32
.rodata.str1.1	0x430373e0	0x5	G:\TEMP\GoKit4_Demo\gagent\libgagent.a(localio.o)	#SHT_PROGBITS,SHF_ALLOC|SHF_MERGE|SHF_STRINGS,1
	0x430373e0		.L.str.33
.rodata.str1.1	0x430373e5	0x6	G:\TEMP\GoKit4_Demo\gagent\libgagent.a(localio.o)	#SHT_PROGBITS,SHF_ALLOC|SHF_MERGE|SHF_STRINGS,1
	0x430373e5		.L.str.34
.rodata.str1.1	0x430373eb	0x1f	G:\TEMP\GoKit4_Demo\gagent\libgagent.a(localio.o)	#SHT_PROGBITS,SHF_ALLOC|SHF_MERGE|SHF_STRINGS,1
	0x430373eb		.L.str.35
.rodata.str1.1	0x4303740a	0x23	G:\TEMP\GoKit4_Demo\gagent\libgagent.a(localio.o)	#SHT_PROGBITS,SHF_ALLOC|SHF_MERGE|SHF_STRINGS,1
	0x4303740a		.L.str.36
.rodata.str1.1	0x4303742d	0x39	G:\TEMP\GoKit4_Demo\gagent\libgagent.a(localio.o)	#SHT_PROGBITS,SHF_ALLOC|SHF_MERGE|SHF_STRINGS,1
	0x4303742d		.L.str.37
.rodata.str1.1	0x43037466	0x13	G:\TEMP\GoKit4_Demo\gagent\libgagent.a(localio.o)	#SHT_PROGBITS,SHF_ALLOC|SHF_MERGE|SHF_STRINGS,1
	0x43037466		.L.str.38
.rodata.str1.1	0x43037479	0x19	G:\TEMP\GoKit4_Demo\gagent\libgagent.a(localio.o)	#SHT_PROGBITS,SHF_ALLOC|SHF_MERGE|SHF_STRINGS,1
	0x43037479		.L.str.39
.rodata.str1.1	0x43037492	0x13	G:\TEMP\GoKit4_Demo\gagent\libgagent.a(localio.o)	#SHT_PROGBITS,SHF_ALLOC|SHF_MERGE|SHF_STRINGS,1
	0x43037492		.L__FUNCTION__.gatSerialRecHandle
.rodata.str1.1	0x430374a5	0x49	G:\TEMP\GoKit4_Demo\gagent\libgagent.a(localio.o)	#SHT_PROGBITS,SHF_ALLOC|SHF_MERGE|SHF_STRINGS,1
	0x430374a5		.L.str.40
.rodata.str1.1	0x430374ee	0x19	G:\TEMP\GoKit4_Demo\gagent\libgagent.a(localio.o)	#SHT_PROGBITS,SHF_ALLOC|SHF_MERGE|SHF_STRINGS,1
	0x430374ee		.L.str.41
.rodata.str1.1	0x43037507	0x1a	G:\TEMP\GoKit4_Demo\gagent\libgagent.a(localio.o)	#SHT_PROGBITS,SHF_ALLOC|SHF_MERGE|SHF_STRINGS,1
	0x43037507		.L__FUNCTION__.gatLocalRecTimerOutHandle
.rodata.str1.1	0x43037521	0x19	G:\TEMP\GoKit4_Demo\gagent\libgagent.a(localprotocol.o)	#SHT_PROGBITS,SHF_ALLOC|SHF_MERGE|SHF_STRINGS,1
	0x43037521		.L.str.2
.rodata.str1.1	0x4303753a	0xb	G:\TEMP\GoKit4_Demo\gagent\libgagent.a(localprotocol.o)	#SHT_PROGBITS,SHF_ALLOC|SHF_MERGE|SHF_STRINGS,1
	0x4303753a		.L__FUNCTION__.localWrite
.rodata.str1.1	0x43037545	0x1c	G:\TEMP\GoKit4_Demo\gagent\libgagent.a(localprotocol.o)	#SHT_PROGBITS,SHF_ALLOC|SHF_MERGE|SHF_STRINGS,1
	0x43037545		.L.str.3
.rodata.str1.1	0x43037561	0xa	G:\TEMP\GoKit4_Demo\gagent\libgagent.a(localprotocol.o)	#SHT_PROGBITS,SHF_ALLOC|SHF_MERGE|SHF_STRINGS,1
	0x43037561		.L.str.4
.rodata.str1.1	0x4303756b	0x3d	G:\TEMP\GoKit4_Demo\gagent\libgagent.a(localprotocol.o)	#SHT_PROGBITS,SHF_ALLOC|SHF_MERGE|SHF_STRINGS,1
	0x4303756b		.L.str.5
.rodata.str1.1	0x430375a8	0x13	G:\TEMP\GoKit4_Demo\gagent\libgagent.a(localprotocol.o)	#SHT_PROGBITS,SHF_ALLOC|SHF_MERGE|SHF_STRINGS,1
	0x430375a8		.L__FUNCTION__.localExtractPacket
.rodata.str1.1	0x430375bb	0x14	G:\TEMP\GoKit4_Demo\gagent\libgagent.a(nwk_manage.o)	#SHT_PROGBITS,SHF_ALLOC|SHF_MERGE|SHF_STRINGS,1
	0x430375bb		.L.str.2
.rodata.str1.1	0x430375cf	0xb	G:\TEMP\GoKit4_Demo\gagent\libgagent.a(nwk_manage.o)	#SHT_PROGBITS,SHF_ALLOC|SHF_MERGE|SHF_STRINGS,1
	0x430375cf		.L__FUNCTION__.gatNwkInit
.rodata.str1.1	0x430375da	0x26	G:\TEMP\GoKit4_Demo\gagent\libgagent.a(nwk_manage.o)	#SHT_PROGBITS,SHF_ALLOC|SHF_MERGE|SHF_STRINGS,1
	0x430375da		.L.str.3
.rodata.str1.1	0x43037600	0x14	G:\TEMP\GoKit4_Demo\gagent\libgagent.a(nwk_manage.o)	#SHT_PROGBITS,SHF_ALLOC|SHF_MERGE|SHF_STRINGS,1
	0x43037600		.L__FUNCTION__.gatNwkevtCbRegister
.rodata.str1.1	0x43037614	0x38	G:\TEMP\GoKit4_Demo\gagent\libgagent.a(nwk_manage.o)	#SHT_PROGBITS,SHF_ALLOC|SHF_MERGE|SHF_STRINGS,1
	0x43037614		.L.str.4
.rodata.str1.1	0x4303764c	0x25	G:\TEMP\GoKit4_Demo\gagent\libgagent.a(nwk_manage.o)	#SHT_PROGBITS,SHF_ALLOC|SHF_MERGE|SHF_STRINGS,1
	0x4303764c		.L.str.5
.rodata.str1.1	0x43037671	0x17	G:\TEMP\GoKit4_Demo\gagent\libgagent.a(nwk_manage.o)	#SHT_PROGBITS,SHF_ALLOC|SHF_MERGE|SHF_STRINGS,1
	0x43037671		.L.str.6
.rodata.str1.1	0x43037688	0x27	G:\TEMP\GoKit4_Demo\gagent\libgagent.a(nwk_manage.o)	#SHT_PROGBITS,SHF_ALLOC|SHF_MERGE|SHF_STRINGS,1
	0x43037688		.L.str.7
.rodata.str1.1	0x430376af	0x19	G:\TEMP\GoKit4_Demo\gagent\libgagent.a(nwk_manage.o)	#SHT_PROGBITS,SHF_ALLOC|SHF_MERGE|SHF_STRINGS,1
	0x430376af		.L.str.8
.rodata.str1.1	0x430376c8	0x26	G:\TEMP\GoKit4_Demo\gagent\libgagent.a(nwk_manage.o)	#SHT_PROGBITS,SHF_ALLOC|SHF_MERGE|SHF_STRINGS,1
	0x430376c8		.L.str.9
.rodata.str1.1	0x430376ee	0x18	G:\TEMP\GoKit4_Demo\gagent\libgagent.a(nwk_manage.o)	#SHT_PROGBITS,SHF_ALLOC|SHF_MERGE|SHF_STRINGS,1
	0x430376ee		.L.str.10
.rodata.str1.1	0x43037706	0x28	G:\TEMP\GoKit4_Demo\gagent\libgagent.a(nwk_manage.o)	#SHT_PROGBITS,SHF_ALLOC|SHF_MERGE|SHF_STRINGS,1
	0x43037706		.L.str.11
.rodata.str1.1	0x4303772e	0x1a	G:\TEMP\GoKit4_Demo\gagent\libgagent.a(nwk_manage.o)	#SHT_PROGBITS,SHF_ALLOC|SHF_MERGE|SHF_STRINGS,1
	0x4303772e		.L.str.12
.rodata.str1.1	0x43037748	0x2d	G:\TEMP\GoKit4_Demo\gagent\libgagent.a(nwk_manage.o)	#SHT_PROGBITS,SHF_ALLOC|SHF_MERGE|SHF_STRINGS,1
	0x43037748		.L.str.13
.rodata.str1.1	0x43037775	0x1f	G:\TEMP\GoKit4_Demo\gagent\libgagent.a(nwk_manage.o)	#SHT_PROGBITS,SHF_ALLOC|SHF_MERGE|SHF_STRINGS,1
	0x43037775		.L.str.14
.rodata.str1.1	0x43037794	0x30	G:\TEMP\GoKit4_Demo\gagent\libgagent.a(nwk_manage.o)	#SHT_PROGBITS,SHF_ALLOC|SHF_MERGE|SHF_STRINGS,1
	0x43037794		.L.str.15
.rodata.str1.1	0x430377c4	0x22	G:\TEMP\GoKit4_Demo\gagent\libgagent.a(nwk_manage.o)	#SHT_PROGBITS,SHF_ALLOC|SHF_MERGE|SHF_STRINGS,1
	0x430377c4		.L.str.16
.rodata.str1.1	0x430377e6	0x2c	G:\TEMP\GoKit4_Demo\gagent\libgagent.a(nwk_manage.o)	#SHT_PROGBITS,SHF_ALLOC|SHF_MERGE|SHF_STRINGS,1
	0x430377e6		.L.str.17
.rodata.str1.1	0x43037812	0x1f	G:\TEMP\GoKit4_Demo\gagent\libgagent.a(nwk_manage.o)	#SHT_PROGBITS,SHF_ALLOC|SHF_MERGE|SHF_STRINGS,1
	0x43037812		.L.str.18
.rodata.str1.1	0x43037831	0x2f	G:\TEMP\GoKit4_Demo\gagent\libgagent.a(nwk_manage.o)	#SHT_PROGBITS,SHF_ALLOC|SHF_MERGE|SHF_STRINGS,1
	0x43037831		.L.str.19
.rodata.str1.1	0x43037860	0x21	G:\TEMP\GoKit4_Demo\gagent\libgagent.a(nwk_manage.o)	#SHT_PROGBITS,SHF_ALLOC|SHF_MERGE|SHF_STRINGS,1
	0x43037860		.L.str.20
.rodata.str1.1	0x43037881	0x2a	G:\TEMP\GoKit4_Demo\gagent\libgagent.a(nwk_manage.o)	#SHT_PROGBITS,SHF_ALLOC|SHF_MERGE|SHF_STRINGS,1
	0x43037881		.L.str.21
.rodata.str1.1	0x430378ab	0x1c	G:\TEMP\GoKit4_Demo\gagent\libgagent.a(nwk_manage.o)	#SHT_PROGBITS,SHF_ALLOC|SHF_MERGE|SHF_STRINGS,1
	0x430378ab		.L.str.22
.rodata.str1.1	0x430378c7	0x2d	G:\TEMP\GoKit4_Demo\gagent\libgagent.a(nwk_manage.o)	#SHT_PROGBITS,SHF_ALLOC|SHF_MERGE|SHF_STRINGS,1
	0x430378c7		.L.str.23
.rodata.str1.1	0x430378f4	0x1f	G:\TEMP\GoKit4_Demo\gagent\libgagent.a(nwk_manage.o)	#SHT_PROGBITS,SHF_ALLOC|SHF_MERGE|SHF_STRINGS,1
	0x430378f4		.L.str.24
.rodata.str1.1	0x43037913	0x16	G:\TEMP\GoKit4_Demo\gagent\libgagent.a(nwk_manage.o)	#SHT_PROGBITS,SHF_ALLOC|SHF_MERGE|SHF_STRINGS,1
	0x43037913		.L.str.25
.rodata.str1.1	0x43037929	0x24	G:\TEMP\GoKit4_Demo\gagent\libgagent.a(nwk_manage.o)	#SHT_PROGBITS,SHF_ALLOC|SHF_MERGE|SHF_STRINGS,1
	0x43037929		.L.str.26
.rodata.str1.1	0x4303794d	0x18	G:\TEMP\GoKit4_Demo\gagent\libgagent.a(nwk_manage.o)	#SHT_PROGBITS,SHF_ALLOC|SHF_MERGE|SHF_STRINGS,1
	0x4303794d		.L.str.27
.rodata.str1.1	0x43037965	0x26	G:\TEMP\GoKit4_Demo\gagent\libgagent.a(nwk_manage.o)	#SHT_PROGBITS,SHF_ALLOC|SHF_MERGE|SHF_STRINGS,1
	0x43037965		.L.str.28
.rodata.str1.1	0x4303798b	0x1b	G:\TEMP\GoKit4_Demo\gagent\libgagent.a(nwk_manage.o)	#SHT_PROGBITS,SHF_ALLOC|SHF_MERGE|SHF_STRINGS,1
	0x4303798b		.L.str.29
.rodata.str1.1	0x430379a6	0x2e	G:\TEMP\GoKit4_Demo\gagent\libgagent.a(nwk_manage.o)	#SHT_PROGBITS,SHF_ALLOC|SHF_MERGE|SHF_STRINGS,1
	0x430379a6		.L.str.30
.rodata.str1.1	0x430379d4	0x1d	G:\TEMP\GoKit4_Demo\gagent\libgagent.a(nwk_manage.o)	#SHT_PROGBITS,SHF_ALLOC|SHF_MERGE|SHF_STRINGS,1
	0x430379d4		.L.str.31
.rodata.str1.1	0x430379f1	0x2b	G:\TEMP\GoKit4_Demo\gagent\libgagent.a(nwk_manage.o)	#SHT_PROGBITS,SHF_ALLOC|SHF_MERGE|SHF_STRINGS,1
	0x430379f1		.L.str.32
.rodata.str1.1	0x43037a1c	0x17	G:\TEMP\GoKit4_Demo\gagent\libgagent.a(nwk_manage.o)	#SHT_PROGBITS,SHF_ALLOC|SHF_MERGE|SHF_STRINGS,1
	0x43037a1c		.L.str.33
.rodata.str1.1	0x43037a33	0x1d	G:\TEMP\GoKit4_Demo\gagent\libgagent.a(nwk_manage.o)	#SHT_PROGBITS,SHF_ALLOC|SHF_MERGE|SHF_STRINGS,1
	0x43037a33		.L.str.34
.rodata.str1.1	0x43037a50	0x15	G:\TEMP\GoKit4_Demo\gagent\libgagent.a(nwk_manage.o)	#SHT_PROGBITS,SHF_ALLOC|SHF_MERGE|SHF_STRINGS,1
	0x43037a50		.L.str.35
.rodata.str1.1	0x43037a65	0x22	G:\TEMP\GoKit4_Demo\gagent\libgagent.a(nwk_manage.o)	#SHT_PROGBITS,SHF_ALLOC|SHF_MERGE|SHF_STRINGS,1
	0x43037a65		.L.str.36
.rodata.str1.1	0x43037a87	0x17	G:\TEMP\GoKit4_Demo\gagent\libgagent.a(nwk_manage.o)	#SHT_PROGBITS,SHF_ALLOC|SHF_MERGE|SHF_STRINGS,1
	0x43037a87		.L.str.37
.rodata.str1.1	0x43037a9e	0x24	G:\TEMP\GoKit4_Demo\gagent\libgagent.a(nwk_manage.o)	#SHT_PROGBITS,SHF_ALLOC|SHF_MERGE|SHF_STRINGS,1
	0x43037a9e		.L.str.38
.rodata.str1.1	0x43037ac2	0x1e	G:\TEMP\GoKit4_Demo\gagent\libgagent.a(nwk_manage.o)	#SHT_PROGBITS,SHF_ALLOC|SHF_MERGE|SHF_STRINGS,1
	0x43037ac2		.L.str.39
.rodata.str1.1	0x43037ae0	0xf	G:\TEMP\GoKit4_Demo\gagent\libgagent.a(nwk_manage.o)	#SHT_PROGBITS,SHF_ALLOC|SHF_MERGE|SHF_STRINGS,1
	0x43037ae0		.L__FUNCTION__.gatSetNwkEvent
.rodata.str1.1	0x43037aef	0x24	G:\TEMP\GoKit4_Demo\gagent\libgagent.a(nwk_manage.o)	#SHT_PROGBITS,SHF_ALLOC|SHF_MERGE|SHF_STRINGS,1
	0x43037aef		.L.str.40
.rodata.str1.1	0x43037b13	0x1e	G:\TEMP\GoKit4_Demo\gagent\libgagent.a(nwk_manage.o)	#SHT_PROGBITS,SHF_ALLOC|SHF_MERGE|SHF_STRINGS,1
	0x43037b13		.L.str.41
.rodata.str1.1	0x43037b31	0x12	G:\TEMP\GoKit4_Demo\gagent\libgagent.a(nwk_manage.o)	#SHT_PROGBITS,SHF_ALLOC|SHF_MERGE|SHF_STRINGS,1
	0x43037b31		.L__FUNCTION__.gatNwkEventHandle
.rodata.str1.1	0x43037b43	0x32	G:\TEMP\GoKit4_Demo\gagent\libgagent.a(nwk_manage.o)	#SHT_PROGBITS,SHF_ALLOC|SHF_MERGE|SHF_STRINGS,1
	0x43037b43		.L.str.42
.rodata.str1.1	0x43037b75	0x37	G:\TEMP\GoKit4_Demo\gagent\libgagent.a(productinfo.o)	#SHT_PROGBITS,SHF_ALLOC|SHF_MERGE|SHF_STRINGS,1
	0x43037b75		.L.str.2
.rodata.str1.1	0x43037bac	0x1c	G:\TEMP\GoKit4_Demo\gagent\libgagent.a(productinfo.o)	#SHT_PROGBITS,SHF_ALLOC|SHF_MERGE|SHF_STRINGS,1
	0x43037bac		.L__FUNCTION__.gatProductInfoUpdateFromEnv
.rodata.str1.1	0x43037bc8	0x19	G:\TEMP\GoKit4_Demo\gagent\libgagent.a(productinfo.o)	#SHT_PROGBITS,SHF_ALLOC|SHF_MERGE|SHF_STRINGS,1
	0x43037bc8		.L.str.3
.rodata.str1.1	0x43037be1	0x1f	G:\TEMP\GoKit4_Demo\gagent\libgagent.a(productinfo.o)	#SHT_PROGBITS,SHF_ALLOC|SHF_MERGE|SHF_STRINGS,1
	0x43037be1		.L.str.4
.rodata.str1.1	0x43037c00	0x22	G:\TEMP\GoKit4_Demo\gagent\libgagent.a(productinfo.o)	#SHT_PROGBITS,SHF_ALLOC|SHF_MERGE|SHF_STRINGS,1
	0x43037c00		.L.str.5
.rodata.str1.1	0x43037c22	0x46	G:\TEMP\GoKit4_Demo\gagent\libgagent.a(productinfo.o)	#SHT_PROGBITS,SHF_ALLOC|SHF_MERGE|SHF_STRINGS,1
	0x43037c22		.L.str.6
.rodata.str1.1	0x43037c68	0x15	G:\TEMP\GoKit4_Demo\gagent\libgagent.a(productinfo.o)	#SHT_PROGBITS,SHF_ALLOC|SHF_MERGE|SHF_STRINGS,1
	0x43037c68		.L.str.7
.rodata.str1.1	0x43037c7d	0x25	G:\TEMP\GoKit4_Demo\gagent\libgagent.a(productinfo.o)	#SHT_PROGBITS,SHF_ALLOC|SHF_MERGE|SHF_STRINGS,1
	0x43037c7d		.L.str.10
.rodata.str1.1	0x43037ca2	0x31	G:\TEMP\GoKit4_Demo\gagent\libgagent.a(productinfo.o)	#SHT_PROGBITS,SHF_ALLOC|SHF_MERGE|SHF_STRINGS,1
	0x43037ca2		.L.str.11
.rodata.str1.1	0x43037cd3	0x2f	G:\TEMP\GoKit4_Demo\gagent\libgagent.a(productinfo.o)	#SHT_PROGBITS,SHF_ALLOC|SHF_MERGE|SHF_STRINGS,1
	0x43037cd3		.L.str.12
.rodata.str1.1	0x43037d02	0x3	G:\TEMP\GoKit4_Demo\gagent\libgagent.a(productinfo.o)	#SHT_PROGBITS,SHF_ALLOC|SHF_MERGE|SHF_STRINGS,1
	0x43037d02		.L.str.13
.rodata.str1.1	0x43037d05	0x2f	G:\TEMP\GoKit4_Demo\gagent\libgagent.a(productinfo.o)	#SHT_PROGBITS,SHF_ALLOC|SHF_MERGE|SHF_STRINGS,1
	0x43037d05		.L.str.14
.rodata.str1.1	0x43037d34	0x22	G:\TEMP\GoKit4_Demo\gagent\libgagent.a(productinfo.o)	#SHT_PROGBITS,SHF_ALLOC|SHF_MERGE|SHF_STRINGS,1
	0x43037d34		.L.str.15
.rodata.str1.1	0x43037d56	0x40	G:\TEMP\GoKit4_Demo\gagent\libgagent.a(productinfo.o)	#SHT_PROGBITS,SHF_ALLOC|SHF_MERGE|SHF_STRINGS,1
	0x43037d56		.L.str.16
.rodata.str1.1	0x43037d96	0x40	G:\TEMP\GoKit4_Demo\gagent\libgagent.a(productinfo.o)	#SHT_PROGBITS,SHF_ALLOC|SHF_MERGE|SHF_STRINGS,1
	0x43037d96		.L.str.17
.rodata.str1.1	0x43037dd6	0xf	G:\TEMP\GoKit4_Demo\gagent\libgagent.a(productinfo.o)	#SHT_PROGBITS,SHF_ALLOC|SHF_MERGE|SHF_STRINGS,1
	0x43037dd6		.L__FUNCTION__.gatDumpEnvInfo
.rodata.str1.1	0x43037de5	0x1d	G:\TEMP\GoKit4_Demo\gagent\libgagent.a(productinfo.o)	#SHT_PROGBITS,SHF_ALLOC|SHF_MERGE|SHF_STRINGS,1
	0x43037de5		.L.str.18
.rodata.str1.1	0x43037e02	0x17	G:\TEMP\GoKit4_Demo\gagent\libgagent.a(productinfo.o)	#SHT_PROGBITS,SHF_ALLOC|SHF_MERGE|SHF_STRINGS,1
	0x43037e02		.L.str.19
.rodata.str1.1	0x43037e19	0xd	G:\TEMP\GoKit4_Demo\gagent\libgagent.a(productinfo.o)	#SHT_PROGBITS,SHF_ALLOC|SHF_MERGE|SHF_STRINGS,1
	0x43037e19		.L.str.20
.rodata.str1.1	0x43037e26	0x1e	G:\TEMP\GoKit4_Demo\gagent\libgagent.a(productinfo.o)	#SHT_PROGBITS,SHF_ALLOC|SHF_MERGE|SHF_STRINGS,1
	0x43037e26		.L.str.21
.rodata.str1.1	0x43037e44	0x9	G:\TEMP\GoKit4_Demo\gagent\libgagent.a(productinfo.o)	#SHT_PROGBITS,SHF_ALLOC|SHF_MERGE|SHF_STRINGS,1
	0x43037e44		.L.str.25
.rodata.str1.1	0x43037e4d	0x1f	G:\TEMP\GoKit4_Demo\gagent\libgagent.a(productinfo.o)	#SHT_PROGBITS,SHF_ALLOC|SHF_MERGE|SHF_STRINGS,1
	0x43037e4d		.L.str.26
.rodata.str1.1	0x43037e6c	0x2c	G:\TEMP\GoKit4_Demo\gagent\libgagent.a(productinfo.o)	#SHT_PROGBITS,SHF_ALLOC|SHF_MERGE|SHF_STRINGS,1
	0x43037e6c		.L.str.27
.rodata.str1.1	0x43037e98	0x2c	G:\TEMP\GoKit4_Demo\gagent\libgagent.a(productinfo.o)	#SHT_PROGBITS,SHF_ALLOC|SHF_MERGE|SHF_STRINGS,1
	0x43037e98		.L.str.29
.rodata.str1.1	0x43037ec4	0x2c	G:\TEMP\GoKit4_Demo\gagent\libgagent.a(productinfo.o)	#SHT_PROGBITS,SHF_ALLOC|SHF_MERGE|SHF_STRINGS,1
	0x43037ec4		.L.str.30
.rodata.str1.1	0x43037ef0	0x2c	G:\TEMP\GoKit4_Demo\gagent\libgagent.a(productinfo.o)	#SHT_PROGBITS,SHF_ALLOC|SHF_MERGE|SHF_STRINGS,1
	0x43037ef0		.L.str.31
.rodata.str1.1	0x43037f1c	0x2c	G:\TEMP\GoKit4_Demo\gagent\libgagent.a(productinfo.o)	#SHT_PROGBITS,SHF_ALLOC|SHF_MERGE|SHF_STRINGS,1
	0x43037f1c		.L.str.32
.rodata.str1.1	0x43037f48	0x2c	G:\TEMP\GoKit4_Demo\gagent\libgagent.a(productinfo.o)	#SHT_PROGBITS,SHF_ALLOC|SHF_MERGE|SHF_STRINGS,1
	0x43037f48		.L.str.33
.rodata.str1.1	0x43037f74	0x2c	G:\TEMP\GoKit4_Demo\gagent\libgagent.a(productinfo.o)	#SHT_PROGBITS,SHF_ALLOC|SHF_MERGE|SHF_STRINGS,1
	0x43037f74		.L.str.34
.rodata.str1.1	0x43037fa0	0x2c	G:\TEMP\GoKit4_Demo\gagent\libgagent.a(productinfo.o)	#SHT_PROGBITS,SHF_ALLOC|SHF_MERGE|SHF_STRINGS,1
	0x43037fa0		.L.str.35
.rodata.str1.1	0x43037fcc	0x2f	G:\TEMP\GoKit4_Demo\gagent\libgagent.a(productinfo.o)	#SHT_PROGBITS,SHF_ALLOC|SHF_MERGE|SHF_STRINGS,1
	0x43037fcc		.L.str.36
.rodata.str1.1	0x43037ffb	0x1f	G:\TEMP\GoKit4_Demo\gagent\libgagent.a(productinfo.o)	#SHT_PROGBITS,SHF_ALLOC|SHF_MERGE|SHF_STRINGS,1
	0x43037ffb		.L.str.37
.rodata.str1.1	0x4303801a	0x2c	G:\TEMP\GoKit4_Demo\gagent\libgagent.a(productinfo.o)	#SHT_PROGBITS,SHF_ALLOC|SHF_MERGE|SHF_STRINGS,1
	0x4303801a		.L.str.38
.rodata.str1.1	0x43038046	0x2c	G:\TEMP\GoKit4_Demo\gagent\libgagent.a(productinfo.o)	#SHT_PROGBITS,SHF_ALLOC|SHF_MERGE|SHF_STRINGS,1
	0x43038046		.L.str.39
.rodata.str1.1	0x43038072	0x2c	G:\TEMP\GoKit4_Demo\gagent\libgagent.a(productinfo.o)	#SHT_PROGBITS,SHF_ALLOC|SHF_MERGE|SHF_STRINGS,1
	0x43038072		.L.str.40
.rodata.str1.1	0x4303809e	0x2c	G:\TEMP\GoKit4_Demo\gagent\libgagent.a(productinfo.o)	#SHT_PROGBITS,SHF_ALLOC|SHF_MERGE|SHF_STRINGS,1
	0x4303809e		.L.str.41
.rodata.str1.1	0x430380ca	0x2c	G:\TEMP\GoKit4_Demo\gagent\libgagent.a(productinfo.o)	#SHT_PROGBITS,SHF_ALLOC|SHF_MERGE|SHF_STRINGS,1
	0x430380ca		.L.str.42
.rodata.str1.1	0x430380f6	0x2c	G:\TEMP\GoKit4_Demo\gagent\libgagent.a(productinfo.o)	#SHT_PROGBITS,SHF_ALLOC|SHF_MERGE|SHF_STRINGS,1
	0x430380f6		.L.str.43
.rodata.str1.1	0x43038122	0x2c	G:\TEMP\GoKit4_Demo\gagent\libgagent.a(productinfo.o)	#SHT_PROGBITS,SHF_ALLOC|SHF_MERGE|SHF_STRINGS,1
	0x43038122		.L.str.44
.rodata.str1.1	0x4303814e	0x2c	G:\TEMP\GoKit4_Demo\gagent\libgagent.a(productinfo.o)	#SHT_PROGBITS,SHF_ALLOC|SHF_MERGE|SHF_STRINGS,1
	0x4303814e		.L.str.45
.rodata.str1.1	0x4303817a	0x2c	G:\TEMP\GoKit4_Demo\gagent\libgagent.a(productinfo.o)	#SHT_PROGBITS,SHF_ALLOC|SHF_MERGE|SHF_STRINGS,1
	0x4303817a		.L.str.46
.rodata.str1.1	0x430381a6	0x2c	G:\TEMP\GoKit4_Demo\gagent\libgagent.a(productinfo.o)	#SHT_PROGBITS,SHF_ALLOC|SHF_MERGE|SHF_STRINGS,1
	0x430381a6		.L.str.47
.rodata.str1.1	0x430381d2	0x2c	G:\TEMP\GoKit4_Demo\gagent\libgagent.a(productinfo.o)	#SHT_PROGBITS,SHF_ALLOC|SHF_MERGE|SHF_STRINGS,1
	0x430381d2		.L.str.48
.rodata.str1.1	0x430381fe	0x12	G:\TEMP\GoKit4_Demo\gagent\libgagent.a(productinfo.o)	#SHT_PROGBITS,SHF_ALLOC|SHF_MERGE|SHF_STRINGS,1
	0x430381fe		.L__FUNCTION__.gatProductInfoGet
.rodata.str1.1	0x43038210	0x18	G:\TEMP\GoKit4_Demo\gagent\libgagent.a(productinfo.o)	#SHT_PROGBITS,SHF_ALLOC|SHF_MERGE|SHF_STRINGS,1
	0x43038210		.L__FUNCTION__.gatProductConfiInfoSave
.rodata.str1.1	0x43038228	0x14	G:\TEMP\GoKit4_Demo\gagent\libgagent.a(productinfo.o)	#SHT_PROGBITS,SHF_ALLOC|SHF_MERGE|SHF_STRINGS,1
	0x43038228		.L.str.49
.rodata.str1.1	0x4303823c	0x1c	G:\TEMP\GoKit4_Demo\gagent\libgagent.a(productinfo.o)	#SHT_PROGBITS,SHF_ALLOC|SHF_MERGE|SHF_STRINGS,1
	0x4303823c		.L.str.50
.rodata.str1.1	0x43038258	0x14	G:\TEMP\GoKit4_Demo\gagent\libgagent.a(productinfo.o)	#SHT_PROGBITS,SHF_ALLOC|SHF_MERGE|SHF_STRINGS,1
	0x43038258		.L__FUNCTION__.gatCreatNewPassCode
.rodata.str1.1	0x4303826c	0x15	G:\TEMP\GoKit4_Demo\gagent\libgagent.a(productinfo.o)	#SHT_PROGBITS,SHF_ALLOC|SHF_MERGE|SHF_STRINGS,1
	0x4303826c		.L.str.51
.rodata.str1.1	0x43038281	0x13	G:\TEMP\GoKit4_Demo\gagent\libgagent.a(productinfo.o)	#SHT_PROGBITS,SHF_ALLOC|SHF_MERGE|SHF_STRINGS,1
	0x43038281		.L__FUNCTION__.gatProductInfoInit
.rodata.str1.1	0x43038294	0x2d	G:\TEMP\GoKit4_Demo\gagent\libgagent.a(productinfo.o)	#SHT_PROGBITS,SHF_ALLOC|SHF_MERGE|SHF_STRINGS,1
	0x43038294		.L.str.52
.rodata.str1.1	0x430382c1	0x11	G:\TEMP\GoKit4_Demo\gagent\libgagent.a(productinfo.o)	#SHT_PROGBITS,SHF_ALLOC|SHF_MERGE|SHF_STRINGS,1
	0x430382c1		.L.str.53
.rodata.str1.1	0x430382d2	0x1b	G:\TEMP\GoKit4_Demo\gagent\libgagent.a(productinfo.o)	#SHT_PROGBITS,SHF_ALLOC|SHF_MERGE|SHF_STRINGS,1
	0x430382d2		.L__FUNCTION__.gatProductInfoSetGServerIp
.rodata.str1.1	0x430382ed	0x11	G:\TEMP\GoKit4_Demo\gagent\libgagent.a(productinfo.o)	#SHT_PROGBITS,SHF_ALLOC|SHF_MERGE|SHF_STRINGS,1
	0x430382ed		.L.str.54
.rodata.str1.1	0x430382fe	0x12	G:\TEMP\GoKit4_Demo\gagent\libgagent.a(productinfo.o)	#SHT_PROGBITS,SHF_ALLOC|SHF_MERGE|SHF_STRINGS,1
	0x430382fe		.L__FUNCTION__.gatTimeZoneSecSet
.rodata.str1.1	0x43038310	0xe	G:\TEMP\GoKit4_Demo\gagent\libgagent.a(productinfo.o)	#SHT_PROGBITS,SHF_ALLOC|SHF_MERGE|SHF_STRINGS,1
	0x43038310		.L__FUNCTION__.gatGprsApnSet
.rodata.str1.1	0x4303831e	0x5	G:\TEMP\GoKit4_Demo\gagent\libgagent.a(productinfo.o)	#SHT_PROGBITS,SHF_ALLOC|SHF_MERGE|SHF_STRINGS,1
	0x4303831e		.L.str.56
.rodata.str1.1	0x43038323	0x11	G:\TEMP\GoKit4_Demo\gagent\libgagent.a(productinfo.o)	#SHT_PROGBITS,SHF_ALLOC|SHF_MERGE|SHF_STRINGS,1
	0x43038323		.L__FUNCTION__.gatConfigFlagSet
.rodata.str1.1	0x43038334	0x11	G:\TEMP\GoKit4_Demo\gagent\libgagent.a(productinfo.o)	#SHT_PROGBITS,SHF_ALLOC|SHF_MERGE|SHF_STRINGS,1
	0x43038334		.L.str.57
.rodata.str1.1	0x43038345	0x14	G:\TEMP\GoKit4_Demo\gagent\libgagent.a(productinfo.o)	#SHT_PROGBITS,SHF_ALLOC|SHF_MERGE|SHF_STRINGS,1
	0x43038345		.L__FUNCTION__.gatSaveRebootReason
.rodata.str1.1	0x43038359	0x2c	G:\TEMP\GoKit4_Demo\gagent\libgagent.a(productinfo.o)	#SHT_PROGBITS,SHF_ALLOC|SHF_MERGE|SHF_STRINGS,1
	0x43038359		.L.str.63
.rodata.str1.1	0x43038385	0x14	G:\TEMP\GoKit4_Demo\gagent\libgagent.a(productinfo.o)	#SHT_PROGBITS,SHF_ALLOC|SHF_MERGE|SHF_STRINGS,1
	0x43038385		.L.str.76
.rodata.str1.1	0x43038399	0x19	G:\TEMP\GoKit4_Demo\gagent\libgagent.a(productinfo.o)	#SHT_PROGBITS,SHF_ALLOC|SHF_MERGE|SHF_STRINGS,1
	0x43038399		.L__FUNCTION__.gatProductDefaultInfoSet
.rodata.str1.1	0x430383b2	0x24	G:\TEMP\GoKit4_Demo\gagent\libgagent.a(productinfo.o)	#SHT_PROGBITS,SHF_ALLOC|SHF_MERGE|SHF_STRINGS,1
	0x430383b2		.L.str.78
.rodata.str1.1	0x430383d6	0x20	G:\TEMP\GoKit4_Demo\gagent\libgagent.a(productinfo.o)	#SHT_PROGBITS,SHF_ALLOC|SHF_MERGE|SHF_STRINGS,1
	0x430383d6		.L.str.79
.rodata.str1.1	0x430383f6	0x27	G:\TEMP\GoKit4_Demo\gagent\libgagent.a(productinfo.o)	#SHT_PROGBITS,SHF_ALLOC|SHF_MERGE|SHF_STRINGS,1
	0x430383f6		.L.str.80
.rodata.str1.1	0x4303841d	0x23	G:\TEMP\GoKit4_Demo\gagent\libgagent.a(productinfo.o)	#SHT_PROGBITS,SHF_ALLOC|SHF_MERGE|SHF_STRINGS,1
	0x4303841d		.L.str.81
.rodata.str1.1	0x43038440	0x1c	G:\TEMP\GoKit4_Demo\gagent\libgagent.a(productinfo.o)	#SHT_PROGBITS,SHF_ALLOC|SHF_MERGE|SHF_STRINGS,1
	0x43038440		.L.str.82
.rodata.str1.1	0x4303845c	0x21	G:\TEMP\GoKit4_Demo\gagent\libgagent.a(productinfo.o)	#SHT_PROGBITS,SHF_ALLOC|SHF_MERGE|SHF_STRINGS,1
	0x4303845c		.L.str.83
.rodata.str1.1	0x4303847d	0x18	G:\TEMP\GoKit4_Demo\gagent\libgagent.a(productinfo.o)	#SHT_PROGBITS,SHF_ALLOC|SHF_MERGE|SHF_STRINGS,1
	0x4303847d		.L.str.84
.rodata.str1.1	0x43038495	0x17	G:\TEMP\GoKit4_Demo\gagent\libgagent.a(productinfo.o)	#SHT_PROGBITS,SHF_ALLOC|SHF_MERGE|SHF_STRINGS,1
	0x43038495		.L__FUNCTION__.gatConfigInfoSaveToEnv
.rodata.str1.1	0x430384ac	0x1b	G:\TEMP\GoKit4_Demo\gagent\libgagent.a(productinfo.o)	#SHT_PROGBITS,SHF_ALLOC|SHF_MERGE|SHF_STRINGS,1
	0x430384ac		.L.str.85
.rodata.str1.1	0x430384c7	0x7	G:\TEMP\GoKit4_Demo\gagent\libgagent.a(productinfo.o)	#SHT_PROGBITS,SHF_ALLOC|SHF_MERGE|SHF_STRINGS,1
	0x430384c7		.L.str.86
.rodata.str1.1	0x430384ce	0x1e	G:\TEMP\GoKit4_Demo\gagent\libgagent.a(productinfo.o)	#SHT_PROGBITS,SHF_ALLOC|SHF_MERGE|SHF_STRINGS,1
	0x430384ce		.L.str.87
PADDING_ALIGNMENT	0x430384ec	0x4	0x0
.rodata.str1.8	0x430384f0	0x40	G:\TEMP\GoKit4_Demo\gagent\libgagent.a(productinfo.o)	#SHT_PROGBITS,SHF_ALLOC|SHF_MERGE|SHF_STRINGS,8
	0x430384f0		.L.str.58
	0x43038500		.L.str.59
	0x43038510		.L.str.60
	0x43038520		.L.str.61
.rodata.str1.1	0x43038530	0x25	G:\TEMP\GoKit4_Demo\gagent\libgagent.a(qlog.o)	#SHT_PROGBITS,SHF_ALLOC|SHF_MERGE|SHF_STRINGS,1
	0x43038530		.L.str
.rodata.str1.1	0x43038555	0x3	G:\TEMP\GoKit4_Demo\gagent\libgagent.a(qlog.o)	#SHT_PROGBITS,SHF_ALLOC|SHF_MERGE|SHF_STRINGS,1
	0x43038555		.L.str.1
.rodata.str1.1	0x43038558	0x46	G:\TEMP\GoKit4_Demo\gagent\libgagent.a(qlog.o)	#SHT_PROGBITS,SHF_ALLOC|SHF_MERGE|SHF_STRINGS,1
	0x43038558		.L.str.2
.rodata.str1.1	0x4303859e	0x22	G:\TEMP\GoKit4_Demo\gagent\libgagent.a(qlog.o)	#SHT_PROGBITS,SHF_ALLOC|SHF_MERGE|SHF_STRINGS,1
	0x4303859e		.L.str.3
.rodata.str1.1	0x430385c0	0x26	G:\TEMP\GoKit4_Demo\gagent\libgagent.a(qlog.o)	#SHT_PROGBITS,SHF_ALLOC|SHF_MERGE|SHF_STRINGS,1
	0x430385c0		.L.str.4
.rodata.str1.1	0x430385e6	0x26	G:\TEMP\GoKit4_Demo\gagent\libgagent.a(qlog.o)	#SHT_PROGBITS,SHF_ALLOC|SHF_MERGE|SHF_STRINGS,1
	0x430385e6		.L.str.6
.rodata.str1.1	0x4303860c	0x38	G:\TEMP\GoKit4_Demo\gagent\libgagent.a(qlog.o)	#SHT_PROGBITS,SHF_ALLOC|SHF_MERGE|SHF_STRINGS,1
	0x4303860c		.L.str.8
.rodata.str1.1	0x43038644	0x1d	G:\TEMP\GoKit4_Demo\gagent\libgagent.a(qlog.o)	#SHT_PROGBITS,SHF_ALLOC|SHF_MERGE|SHF_STRINGS,1
	0x43038644		.L.str.9
.rodata.str1.1	0x43038661	0x1a	G:\TEMP\GoKit4_Demo\gagent\libgagent.a(qlog.o)	#SHT_PROGBITS,SHF_ALLOC|SHF_MERGE|SHF_STRINGS,1
	0x43038661		.L.str.10
PADDING_ALIGNMENT	0x4303867b	0x1	0x0
.rodata	0x4303867c	0x70	G:\TEMP\GoKit4_Demo\gagent\libgagent.a(qlog.o)	#SHT_PROGBITS,SHF_ALLOC,4
	0x4303867c		uart_recv.xx_msg_const
	0x4303868c		uart_init.xx_msg_const
	0x4303869c		uart_init.xx_msg_const.5
	0x430386ac		uart_print.xx_msg_const
	0x430386bc		format_log_msg.xx_msg_const
	0x430386cc		uart_rx_cb.xx_msg_const
	0x430386dc		uart_tx_cb.xx_msg_const
.rodata.str1.1	0x430386ec	0xb	G:\TEMP\GoKit4_Demo\gagent\libgagent.a(semaph.o)	#SHT_PROGBITS,SHF_ALLOC|SHF_MERGE|SHF_STRINGS,1
	0x430386ec		.L__FUNCTION__.iofSemInit
.rodata.str1.1	0x430386f7	0x2b	G:\TEMP\GoKit4_Demo\gagent\libgagent.a(semaph.o)	#SHT_PROGBITS,SHF_ALLOC|SHF_MERGE|SHF_STRINGS,1
	0x430386f7		.L.str.2
.rodata.str1.1	0x43038722	0x4	G:\TEMP\GoKit4_Demo\gagent\libgagent.a(semaph.o)	#SHT_PROGBITS,SHF_ALLOC|SHF_MERGE|SHF_STRINGS,1
	0x43038722		.L.str.3
.rodata.str1.1	0x43038726	0x28	G:\TEMP\GoKit4_Demo\gagent\libgagent.a(semaph.o)	#SHT_PROGBITS,SHF_ALLOC|SHF_MERGE|SHF_STRINGS,1
	0x43038726		.L.str.4
.rodata.str1.1	0x4303874e	0x20	G:\TEMP\GoKit4_Demo\gagent\libgagent.a(semaph.o)	#SHT_PROGBITS,SHF_ALLOC|SHF_MERGE|SHF_STRINGS,1
	0x4303874e		.L.str.5
.rodata.str1.1	0x4303876e	0x1a	G:\TEMP\GoKit4_Demo\gagent\libgagent.a(semaph.o)	#SHT_PROGBITS,SHF_ALLOC|SHF_MERGE|SHF_STRINGS,1
	0x4303876e		.L.str.6
.rodata.str1.1	0x43038788	0x12	G:\TEMP\GoKit4_Demo\gagent\libgagent.a(semaph.o)	#SHT_PROGBITS,SHF_ALLOC|SHF_MERGE|SHF_STRINGS,1
	0x43038788		.L.str.7
.rodata.str1.1	0x4303879a	0x18	G:\TEMP\GoKit4_Demo\gagent\libgagent.a(semaph.o)	#SHT_PROGBITS,SHF_ALLOC|SHF_MERGE|SHF_STRINGS,1
	0x4303879a		.L.str.9
.rodata.str1.1	0x430387b2	0x18	G:\TEMP\GoKit4_Demo\gagent\libgagent.a(semaph.o)	#SHT_PROGBITS,SHF_ALLOC|SHF_MERGE|SHF_STRINGS,1
	0x430387b2		.L.str.10
.rodata.str1.1	0x430387ca	0x13	G:\TEMP\GoKit4_Demo\gagent\libgagent.a(simulatorcomm.o)	#SHT_PROGBITS,SHF_ALLOC|SHF_MERGE|SHF_STRINGS,1
	0x430387ca		.L.str.2
.rodata.str1.1	0x430387dd	0x1d	G:\TEMP\GoKit4_Demo\gagent\libgagent.a(simulatorcomm.o)	#SHT_PROGBITS,SHF_ALLOC|SHF_MERGE|SHF_STRINGS,1
	0x430387dd		.L__FUNCTION__.simulatorUploadDtatTimeOutCb
.rodata.str1.1	0x430387fa	0x28	G:\TEMP\GoKit4_Demo\gagent\libgagent.a(simulatorcomm.o)	#SHT_PROGBITS,SHF_ALLOC|SHF_MERGE|SHF_STRINGS,1
	0x430387fa		.L.str.3
.rodata.str1.1	0x43038822	0x14	G:\TEMP\GoKit4_Demo\gagent\libgagent.a(simulatorcomm.o)	#SHT_PROGBITS,SHF_ALLOC|SHF_MERGE|SHF_STRINGS,1
	0x43038822		.L.str.4
.rodata.str1.1	0x43038836	0x11	G:\TEMP\GoKit4_Demo\gagent\libgagent.a(simulatorcomm.o)	#SHT_PROGBITS,SHF_ALLOC|SHF_MERGE|SHF_STRINGS,1
	0x43038836		.L__FUNCTION__.gagentUploadData
.rodata.str1.1	0x43038847	0x20	G:\TEMP\GoKit4_Demo\gagent\libgagent.a(simulatorcomm.o)	#SHT_PROGBITS,SHF_ALLOC|SHF_MERGE|SHF_STRINGS,1
	0x43038847		.L.str.5
.rodata.str1.1	0x43038867	0x1d	G:\TEMP\GoKit4_Demo\gagent\libgagent.a(simulatorcomm.o)	#SHT_PROGBITS,SHF_ALLOC|SHF_MERGE|SHF_STRINGS,1
	0x43038867		.L.str.10
.rodata.str1.1	0x43038884	0x1e	G:\TEMP\GoKit4_Demo\gagent\libgagent.a(simulatorcomm.o)	#SHT_PROGBITS,SHF_ALLOC|SHF_MERGE|SHF_STRINGS,1
	0x43038884		.L.str.11
.rodata.str1.1	0x430388a2	0x1d	G:\TEMP\GoKit4_Demo\gagent\libgagent.a(simulatorcomm.o)	#SHT_PROGBITS,SHF_ALLOC|SHF_MERGE|SHF_STRINGS,1
	0x430388a2		.L.str.12
.rodata.str1.1	0x430388bf	0x3b	G:\TEMP\GoKit4_Demo\gagent\libgagent.a(simulatorcomm.o)	#SHT_PROGBITS,SHF_ALLOC|SHF_MERGE|SHF_STRINGS,1
	0x430388bf		.L.str.13
.rodata.str1.1	0x430388fa	0x2b	G:\TEMP\GoKit4_Demo\gagent\libgagent.a(simulatorcomm.o)	#SHT_PROGBITS,SHF_ALLOC|SHF_MERGE|SHF_STRINGS,1
	0x430388fa		.L.str.14
.rodata.str1.1	0x43038925	0x23	G:\TEMP\GoKit4_Demo\gagent\libgagent.a(simulatorcomm.o)	#SHT_PROGBITS,SHF_ALLOC|SHF_MERGE|SHF_STRINGS,1
	0x43038925		.L.str.15
.rodata.str1.1	0x43038948	0x3a	G:\TEMP\GoKit4_Demo\gagent\libgagent.a(simulatorcomm.o)	#SHT_PROGBITS,SHF_ALLOC|SHF_MERGE|SHF_STRINGS,1
	0x43038948		.L.str.16
.rodata.str1.1	0x43038982	0xb	G:\TEMP\GoKit4_Demo\gagent\libgagent.a(simulatorcomm.o)	#SHT_PROGBITS,SHF_ALLOC|SHF_MERGE|SHF_STRINGS,1
	0x43038982		.L.str.17
.rodata.str1.1	0x4303898d	0x28	G:\TEMP\GoKit4_Demo\gagent\libgagent.a(simulatorcomm.o)	#SHT_PROGBITS,SHF_ALLOC|SHF_MERGE|SHF_STRINGS,1
	0x4303898d		.L.str.18
.rodata.str1.1	0x430389b5	0x57	G:\TEMP\GoKit4_Demo\gagent\libgagent.a(simulatorcomm.o)	#SHT_PROGBITS,SHF_ALLOC|SHF_MERGE|SHF_STRINGS,1
	0x430389b5		.L.str.21
.rodata.str1.1	0x43038a0c	0x3a	G:\TEMP\GoKit4_Demo\gagent\libgagent.a(simulatorcomm.o)	#SHT_PROGBITS,SHF_ALLOC|SHF_MERGE|SHF_STRINGS,1
	0x43038a0c		.L.str.22
.rodata.str1.1	0x43038a46	0x15	G:\TEMP\GoKit4_Demo\gagent\libgagent.a(simulatorcomm.o)	#SHT_PROGBITS,SHF_ALLOC|SHF_MERGE|SHF_STRINGS,1
	0x43038a46		.L.str.23
.rodata.str1.1	0x43038a5b	0x19	G:\TEMP\GoKit4_Demo\gagent\libgagent.a(simulatorcomm.o)	#SHT_PROGBITS,SHF_ALLOC|SHF_MERGE|SHF_STRINGS,1
	0x43038a5b		.L.str.24
.rodata.str1.1	0x43038a74	0x18	G:\TEMP\GoKit4_Demo\gagent\libgagent.a(simulatorcomm.o)	#SHT_PROGBITS,SHF_ALLOC|SHF_MERGE|SHF_STRINGS,1
	0x43038a74		.L.str.25
.rodata.str1.1	0x43038a8c	0x34	G:\TEMP\GoKit4_Demo\gagent\libgagent.a(simulatorcomm.o)	#SHT_PROGBITS,SHF_ALLOC|SHF_MERGE|SHF_STRINGS,1
	0x43038a8c		.L.str.26
.rodata.str1.1	0x43038ac0	0x1e	G:\TEMP\GoKit4_Demo\gagent\libgagent.a(simulatorcomm.o)	#SHT_PROGBITS,SHF_ALLOC|SHF_MERGE|SHF_STRINGS,1
	0x43038ac0		.L.str.27
.rodata.str1.1	0x43038ade	0xe	G:\TEMP\GoKit4_Demo\gagent\libgagent.a(simulatorcomm.o)	#SHT_PROGBITS,SHF_ALLOC|SHF_MERGE|SHF_STRINGS,1
	0x43038ade		.L__FUNCTION__.gizWiFiStatus
.rodata.str1.1	0x43038aec	0x16	G:\TEMP\GoKit4_Demo\gagent\libgagent.a(simulatorcomm.o)	#SHT_PROGBITS,SHF_ALLOC|SHF_MERGE|SHF_STRINGS,1
	0x43038aec		.L__FUNCTION__.simulatorUploadDtatCb
.rodata.str1.1	0x43038b02	0x31	G:\TEMP\GoKit4_Demo\gagent\libgagent.a(simulatorcomm.o)	#SHT_PROGBITS,SHF_ALLOC|SHF_MERGE|SHF_STRINGS,1
	0x43038b02		.L.str.28
.rodata.str1.1	0x43038b33	0x1b	G:\TEMP\GoKit4_Demo\gagent\libgagent.a(simulatorcomm.o)	#SHT_PROGBITS,SHF_ALLOC|SHF_MERGE|SHF_STRINGS,1
	0x43038b33		.L.str.29
PADDING_ALIGNMENT	0x43038b4e	0x2	0x0
.rodata.str1.8	0x43038b50	0x11	G:\TEMP\GoKit4_Demo\gagent\libgagent.a(simulatorcomm.o)	#SHT_PROGBITS,SHF_ALLOC|SHF_MERGE|SHF_STRINGS,8
	0x43038b50		.L__FUNCTION__.gizIssuedProcess
.rodata.str1.1	0x43038b61	0x16	G:\TEMP\GoKit4_Demo\gagent\libgagent.a(tcp.o)	#SHT_PROGBITS,SHF_ALLOC|SHF_MERGE|SHF_STRINGS,1
	0x43038b61		.L.str
.rodata.str1.1	0x43038b77	0x16	G:\TEMP\GoKit4_Demo\gagent\libgagent.a(tcp.o)	#SHT_PROGBITS,SHF_ALLOC|SHF_MERGE|SHF_STRINGS,1
	0x43038b77		.L.str.1
.rodata.str1.1	0x43038b8d	0x16	G:\TEMP\GoKit4_Demo\gagent\libgagent.a(tcp.o)	#SHT_PROGBITS,SHF_ALLOC|SHF_MERGE|SHF_STRINGS,1
	0x43038b8d		.L.str.2
.rodata.str1.1	0x43038ba3	0x16	G:\TEMP\GoKit4_Demo\gagent\libgagent.a(tcp.o)	#SHT_PROGBITS,SHF_ALLOC|SHF_MERGE|SHF_STRINGS,1
	0x43038ba3		.L.str.3
.rodata.str1.1	0x43038bb9	0x1d	G:\TEMP\GoKit4_Demo\gagent\libgagent.a(tcp.o)	#SHT_PROGBITS,SHF_ALLOC|SHF_MERGE|SHF_STRINGS,1
	0x43038bb9		.L.str.6
.rodata.str1.1	0x43038bd6	0x14	G:\TEMP\GoKit4_Demo\gagent\libgagent.a(tcp.o)	#SHT_PROGBITS,SHF_ALLOC|SHF_MERGE|SHF_STRINGS,1
	0x43038bd6		.L__FUNCTION__.gatTcpReceiveHandle
.rodata.str1.1	0x43038bea	0x1f	G:\TEMP\GoKit4_Demo\gagent\libgagent.a(tcp.o)	#SHT_PROGBITS,SHF_ALLOC|SHF_MERGE|SHF_STRINGS,1
	0x43038bea		.L.str.7
.rodata.str1.1	0x43038c09	0x15	G:\TEMP\GoKit4_Demo\gagent\libgagent.a(tcp.o)	#SHT_PROGBITS,SHF_ALLOC|SHF_MERGE|SHF_STRINGS,1
	0x43038c09		.L.str.8
.rodata.str1.1	0x43038c1e	0x25	G:\TEMP\GoKit4_Demo\gagent\libgagent.a(tcp.o)	#SHT_PROGBITS,SHF_ALLOC|SHF_MERGE|SHF_STRINGS,1
	0x43038c1e		.L.str.9
.rodata.str1.1	0x43038c43	0x31	G:\TEMP\GoKit4_Demo\gagent\libgagent.a(tcp.o)	#SHT_PROGBITS,SHF_ALLOC|SHF_MERGE|SHF_STRINGS,1
	0x43038c43		.L.str.10
.rodata.str1.1	0x43038c74	0x13	G:\TEMP\GoKit4_Demo\gagent\libgagent.a(tcp.o)	#SHT_PROGBITS,SHF_ALLOC|SHF_MERGE|SHF_STRINGS,1
	0x43038c74		.L.str.11
.rodata.str1.1	0x43038c87	0x10	G:\TEMP\GoKit4_Demo\gagent\libgagent.a(tcp.o)	#SHT_PROGBITS,SHF_ALLOC|SHF_MERGE|SHF_STRINGS,1
	0x43038c87		.L__FUNCTION__.gatTcpDelChNode
.rodata.str1.1	0x43038c97	0x17	G:\TEMP\GoKit4_Demo\gagent\libgagent.a(tcp.o)	#SHT_PROGBITS,SHF_ALLOC|SHF_MERGE|SHF_STRINGS,1
	0x43038c97		.L.str.12
.rodata.str1.1	0x43038cae	0x32	G:\TEMP\GoKit4_Demo\gagent\libgagent.a(tcp.o)	#SHT_PROGBITS,SHF_ALLOC|SHF_MERGE|SHF_STRINGS,1
	0x43038cae		.L.str.15
.rodata.str1.1	0x43038ce0	0x19	G:\TEMP\GoKit4_Demo\gagent\libgagent.a(tcp.o)	#SHT_PROGBITS,SHF_ALLOC|SHF_MERGE|SHF_STRINGS,1
	0x43038ce0		.L.str.16
.rodata.str1.1	0x43038cf9	0x10	G:\TEMP\GoKit4_Demo\gagent\libgagent.a(tcp.o)	#SHT_PROGBITS,SHF_ALLOC|SHF_MERGE|SHF_STRINGS,1
	0x43038cf9		.L__FUNCTION__.gatTcpListenAdd
.rodata.str1.1	0x43038d09	0x26	G:\TEMP\GoKit4_Demo\gagent\libgagent.a(tcp.o)	#SHT_PROGBITS,SHF_ALLOC|SHF_MERGE|SHF_STRINGS,1
	0x43038d09		.L.str.18
.rodata.str1.1	0x43038d2f	0x2e	G:\TEMP\GoKit4_Demo\gagent\libgagent.a(tcp.o)	#SHT_PROGBITS,SHF_ALLOC|SHF_MERGE|SHF_STRINGS,1
	0x43038d2f		.L.str.19
.rodata.str1.1	0x43038d5d	0x2a	G:\TEMP\GoKit4_Demo\gagent\libgagent.a(tcp.o)	#SHT_PROGBITS,SHF_ALLOC|SHF_MERGE|SHF_STRINGS,1
	0x43038d5d		.L.str.20
.rodata.str1.1	0x43038d87	0x12	G:\TEMP\GoKit4_Demo\gagent\libgagent.a(tcp.o)	#SHT_PROGBITS,SHF_ALLOC|SHF_MERGE|SHF_STRINGS,1
	0x43038d87		.L__FUNCTION__.gatTcpReadRecData
.rodata.str1.1	0x43038d99	0x47	G:\TEMP\GoKit4_Demo\gagent\libgagent.a(tcp.o)	#SHT_PROGBITS,SHF_ALLOC|SHF_MERGE|SHF_STRINGS,1
	0x43038d99		.L.str.21
.rodata.str1.1	0x43038de0	0x20	G:\TEMP\GoKit4_Demo\gagent\libgagent.a(tcp.o)	#SHT_PROGBITS,SHF_ALLOC|SHF_MERGE|SHF_STRINGS,1
	0x43038de0		.L.str.22
.rodata.str1.1	0x43038e00	0x1f	G:\TEMP\GoKit4_Demo\gagent\libgagent.a(tcp.o)	#SHT_PROGBITS,SHF_ALLOC|SHF_MERGE|SHF_STRINGS,1
	0x43038e00		.L.str.23
.rodata.str1.1	0x43038e1f	0xb	G:\TEMP\GoKit4_Demo\gagent\libgagent.a(tcp.o)	#SHT_PROGBITS,SHF_ALLOC|SHF_MERGE|SHF_STRINGS,1
	0x43038e1f		.L__FUNCTION__.gatTcpRecv
.rodata.str1.1	0x43038e2a	0x51	G:\TEMP\GoKit4_Demo\gagent\libgagent.a(tcp.o)	#SHT_PROGBITS,SHF_ALLOC|SHF_MERGE|SHF_STRINGS,1
	0x43038e2a		.L.str.24
.rodata.str1.1	0x43038e7b	0x29	G:\TEMP\GoKit4_Demo\gagent\libgagent.a(tcp.o)	#SHT_PROGBITS,SHF_ALLOC|SHF_MERGE|SHF_STRINGS,1
	0x43038e7b		.L.str.25
.rodata.str1.1	0x43038ea4	0x1a	G:\TEMP\GoKit4_Demo\gagent\libgagent.a(tcp.o)	#SHT_PROGBITS,SHF_ALLOC|SHF_MERGE|SHF_STRINGS,1
	0x43038ea4		.L.str.26
.rodata.str1.1	0x43038ebe	0x29	G:\TEMP\GoKit4_Demo\gagent\libgagent.a(tcp.o)	#SHT_PROGBITS,SHF_ALLOC|SHF_MERGE|SHF_STRINGS,1
	0x43038ebe		.L.str.27
.rodata.str1.1	0x43038ee7	0x2a	G:\TEMP\GoKit4_Demo\gagent\libgagent.a(tcp.o)	#SHT_PROGBITS,SHF_ALLOC|SHF_MERGE|SHF_STRINGS,1
	0x43038ee7		.L.str.28
.rodata.str1.1	0x43038f11	0x14	G:\TEMP\GoKit4_Demo\gagent\libgagent.a(tcp.o)	#SHT_PROGBITS,SHF_ALLOC|SHF_MERGE|SHF_STRINGS,1
	0x43038f11		.L.str.29
.rodata.str1.1	0x43038f25	0x19	G:\TEMP\GoKit4_Demo\gagent\libgagent.a(tcp.o)	#SHT_PROGBITS,SHF_ALLOC|SHF_MERGE|SHF_STRINGS,1
	0x43038f25		.L.str.30
.rodata.str1.1	0x43038f3e	0x26	G:\TEMP\GoKit4_Demo\gagent\libgagent.a(tcp.o)	#SHT_PROGBITS,SHF_ALLOC|SHF_MERGE|SHF_STRINGS,1
	0x43038f3e		.L.str.31
.rodata.str1.1	0x43038f64	0x27	G:\TEMP\GoKit4_Demo\gagent\libgagent.a(tcp.o)	#SHT_PROGBITS,SHF_ALLOC|SHF_MERGE|SHF_STRINGS,1
	0x43038f64		.L.str.32
.rodata.str1.1	0x43038f8b	0x25	G:\TEMP\GoKit4_Demo\gagent\libgagent.a(tcp.o)	#SHT_PROGBITS,SHF_ALLOC|SHF_MERGE|SHF_STRINGS,1
	0x43038f8b		.L.str.33
.rodata.str1.1	0x43038fb0	0x13	G:\TEMP\GoKit4_Demo\gagent\libgagent.a(tcp.o)	#SHT_PROGBITS,SHF_ALLOC|SHF_MERGE|SHF_STRINGS,1
	0x43038fb0		.L.str.38
.rodata.str1.1	0x43038fc3	0xb	G:\TEMP\GoKit4_Demo\gagent\libgagent.a(tcp.o)	#SHT_PROGBITS,SHF_ALLOC|SHF_MERGE|SHF_STRINGS,1
	0x43038fc3		.L__FUNCTION__.gatTcpSend
.rodata.str1.1	0x43038fce	0x20	G:\TEMP\GoKit4_Demo\gagent\libgagent.a(tcp.o)	#SHT_PROGBITS,SHF_ALLOC|SHF_MERGE|SHF_STRINGS,1
	0x43038fce		.L.str.39
.rodata.str1.1	0x43038fee	0x28	G:\TEMP\GoKit4_Demo\gagent\libgagent.a(tcp.o)	#SHT_PROGBITS,SHF_ALLOC|SHF_MERGE|SHF_STRINGS,1
	0x43038fee		.L.str.40
.rodata.str1.1	0x43039016	0x28	G:\TEMP\GoKit4_Demo\gagent\libgagent.a(tcp.o)	#SHT_PROGBITS,SHF_ALLOC|SHF_MERGE|SHF_STRINGS,1
	0x43039016		.L.str.41
.rodata.str1.1	0x4303903e	0x21	G:\TEMP\GoKit4_Demo\gagent\libgagent.a(tcp.o)	#SHT_PROGBITS,SHF_ALLOC|SHF_MERGE|SHF_STRINGS,1
	0x4303903e		.L.str.42
.rodata.str1.1	0x4303905f	0xf	G:\TEMP\GoKit4_Demo\gagent\libgagent.a(tcp.o)	#SHT_PROGBITS,SHF_ALLOC|SHF_MERGE|SHF_STRINGS,1
	0x4303905f		.L__FUNCTION__.gatTcpSendTask
.rodata.str1.1	0x4303906e	0x2c	G:\TEMP\GoKit4_Demo\gagent\libgagent.a(tcp.o)	#SHT_PROGBITS,SHF_ALLOC|SHF_MERGE|SHF_STRINGS,1
	0x4303906e		.L.str.43
.rodata.str1.1	0x4303909a	0x16	G:\TEMP\GoKit4_Demo\gagent\libgagent.a(tcp.o)	#SHT_PROGBITS,SHF_ALLOC|SHF_MERGE|SHF_STRINGS,1
	0x4303909a		.L.str.44
.rodata.str1.1	0x430390b0	0x1a	G:\TEMP\GoKit4_Demo\gagent\libgagent.a(tcp.o)	#SHT_PROGBITS,SHF_ALLOC|SHF_MERGE|SHF_STRINGS,1
	0x430390b0		.L.str.45
.rodata.str1.1	0x430390ca	0x29	G:\TEMP\GoKit4_Demo\gagent\libgagent.a(tcp.o)	#SHT_PROGBITS,SHF_ALLOC|SHF_MERGE|SHF_STRINGS,1
	0x430390ca		.L.str.46
.rodata.str1.1	0x430390f3	0x22	G:\TEMP\GoKit4_Demo\gagent\libgagent.a(tcp.o)	#SHT_PROGBITS,SHF_ALLOC|SHF_MERGE|SHF_STRINGS,1
	0x430390f3		.L.str.47
.rodata.str1.1	0x43039115	0x1b	G:\TEMP\GoKit4_Demo\gagent\libgagent.a(tcp.o)	#SHT_PROGBITS,SHF_ALLOC|SHF_MERGE|SHF_STRINGS,1
	0x43039115		.L.str.48
.rodata.str1.1	0x43039130	0x2d	G:\TEMP\GoKit4_Demo\gagent\libgagent.a(tcp.o)	#SHT_PROGBITS,SHF_ALLOC|SHF_MERGE|SHF_STRINGS,1
	0x43039130		.L.str.49
.rodata.str1.1	0x4303915d	0x10	G:\TEMP\GoKit4_Demo\gagent\libgagent.a(tcp.o)	#SHT_PROGBITS,SHF_ALLOC|SHF_MERGE|SHF_STRINGS,1
	0x4303915d		.L__FUNCTION__.tcpSendCBHandle
.rodata.str1.1	0x4303916d	0x31	G:\TEMP\GoKit4_Demo\gagent\libgagent.a(tcp.o)	#SHT_PROGBITS,SHF_ALLOC|SHF_MERGE|SHF_STRINGS,1
	0x4303916d		.L.str.50
.rodata.str1.1	0x4303919e	0x2d	G:\TEMP\GoKit4_Demo\gagent\libgagent.a(tcp.o)	#SHT_PROGBITS,SHF_ALLOC|SHF_MERGE|SHF_STRINGS,1
	0x4303919e		.L.str.51
.rodata.str1.1	0x430391cb	0x1a	G:\TEMP\GoKit4_Demo\gagent\libgagent.a(tcp.o)	#SHT_PROGBITS,SHF_ALLOC|SHF_MERGE|SHF_STRINGS,1
	0x430391cb		.L.str.52
.rodata.str1.1	0x430391e5	0x10	G:\TEMP\GoKit4_Demo\gagent\libgagent.a(tcp.o)	#SHT_PROGBITS,SHF_ALLOC|SHF_MERGE|SHF_STRINGS,1
	0x430391e5		.L__FUNCTION__.gatTcpRecResult
.rodata.str1.1	0x430391f5	0x12	G:\TEMP\GoKit4_Demo\gagent\libgagent.a(tcp.o)	#SHT_PROGBITS,SHF_ALLOC|SHF_MERGE|SHF_STRINGS,1
	0x430391f5		.L__FUNCTION__.gatDelTcpDataNode
.rodata.str1.1	0x43039207	0xf	G:\TEMP\GoKit4_Demo\gagent\libgagent.a(tcp.o)	#SHT_PROGBITS,SHF_ALLOC|SHF_MERGE|SHF_STRINGS,1
	0x43039207		.L__FUNCTION__.tcpSendListAdd
.rodata.str1.1	0x43039216	0x12	G:\TEMP\GoKit4_Demo\gagent\libgagent.a(tcp.o)	#SHT_PROGBITS,SHF_ALLOC|SHF_MERGE|SHF_STRINGS,1
	0x43039216		.L__FUNCTION__.gatDelTcpSendNode
.rodata.str1.1	0x43039228	0x20	G:\TEMP\GoKit4_Demo\gagent\libgagent.a(tcp.o)	#SHT_PROGBITS,SHF_ALLOC|SHF_MERGE|SHF_STRINGS,1
	0x43039228		.L.str.53
.rodata.str1.1	0x43039248	0x10	G:\TEMP\GoKit4_Demo\gagent\libgagent.a(timer_subsystem.o)	#SHT_PROGBITS,SHF_ALLOC|SHF_MERGE|SHF_STRINGS,1
	0x43039248		.L.str
.rodata.str1.1	0x43039258	0x16	G:\TEMP\GoKit4_Demo\gagent\libgagent.a(timer_subsystem.o)	#SHT_PROGBITS,SHF_ALLOC|SHF_MERGE|SHF_STRINGS,1
	0x43039258		.L.str.3
.rodata.str1.1	0x4303926e	0x11	G:\TEMP\GoKit4_Demo\gagent\libgagent.a(timer_subsystem.o)	#SHT_PROGBITS,SHF_ALLOC|SHF_MERGE|SHF_STRINGS,1
	0x4303926e		.L__FUNCTION__.gatTimerCoreInit
.rodata.str1.1	0x4303927f	0xc	G:\TEMP\GoKit4_Demo\gagent\libgagent.a(timer_subsystem.o)	#SHT_PROGBITS,SHF_ALLOC|SHF_MERGE|SHF_STRINGS,1
	0x4303927f		.L__FUNCTION__.gatTimerAdd
.rodata.str1.1	0x4303928b	0x23	G:\TEMP\GoKit4_Demo\gagent\libgagent.a(timer_subsystem.o)	#SHT_PROGBITS,SHF_ALLOC|SHF_MERGE|SHF_STRINGS,1
	0x4303928b		.L.str.4
.rodata.str1.1	0x430392ae	0x1d	G:\TEMP\GoKit4_Demo\gagent\libgagent.a(timer_subsystem.o)	#SHT_PROGBITS,SHF_ALLOC|SHF_MERGE|SHF_STRINGS,1
	0x430392ae		.L.str.5
.rodata.str1.1	0x430392cb	0x2b	G:\TEMP\GoKit4_Demo\gagent\libgagent.a(timer_subsystem.o)	#SHT_PROGBITS,SHF_ALLOC|SHF_MERGE|SHF_STRINGS,1
	0x430392cb		.L.str.6
.rodata.str1.1	0x430392f6	0x1b	G:\TEMP\GoKit4_Demo\gagent\libgagent.a(timer_subsystem.o)	#SHT_PROGBITS,SHF_ALLOC|SHF_MERGE|SHF_STRINGS,1
	0x430392f6		.L.str.7
.rodata.str1.1	0x43039311	0xc	G:\TEMP\GoKit4_Demo\gagent\libgagent.a(timer_subsystem.o)	#SHT_PROGBITS,SHF_ALLOC|SHF_MERGE|SHF_STRINGS,1
	0x43039311		.L__FUNCTION__.gatTimerDel
.rodata.str1.1	0x4303931d	0x1a	G:\TEMP\GoKit4_Demo\gagent\libgagent.a(timer_subsystem.o)	#SHT_PROGBITS,SHF_ALLOC|SHF_MERGE|SHF_STRINGS,1
	0x4303931d		.L.str.8
.rodata.str1.1	0x43039337	0xd	G:\TEMP\GoKit4_Demo\gagent\libgagent.a(timer_subsystem.o)	#SHT_PROGBITS,SHF_ALLOC|SHF_MERGE|SHF_STRINGS,1
	0x43039337		.L__FUNCTION__.gatTimerTick
.rodata.str1.1	0x43039344	0x1a	G:\TEMP\GoKit4_Demo\gagent\libgagent.a(timer_subsystem.o)	#SHT_PROGBITS,SHF_ALLOC|SHF_MERGE|SHF_STRINGS,1
	0x43039344		.L.str.11
.rodata.str1.1	0x4303935e	0x14	G:\TEMP\GoKit4_Demo\gagent\libgagent.a(timer_subsystem.o)	#SHT_PROGBITS,SHF_ALLOC|SHF_MERGE|SHF_STRINGS,1
	0x4303935e		.L.str.12
.rodata.str1.1	0x43039372	0xf	G:\TEMP\GoKit4_Demo\gagent\libgagent.a(timer_subsystem.o)	#SHT_PROGBITS,SHF_ALLOC|SHF_MERGE|SHF_STRINGS,1
	0x43039372		.L__FUNCTION__.gatTimerHandle
.rodata.str1.1	0x43039381	0x1b	G:\TEMP\GoKit4_Demo\gagent\libgagent.a(timer_subsystem.o)	#SHT_PROGBITS,SHF_ALLOC|SHF_MERGE|SHF_STRINGS,1
	0x43039381		.L.str.13
.rodata.str1.1	0x4303939c	0x26	G:\TEMP\GoKit4_Demo\gagent\libgagent.a(timer_subsystem.o)	#SHT_PROGBITS,SHF_ALLOC|SHF_MERGE|SHF_STRINGS,1
	0x4303939c		.L.str.14
.rodata.str1.1	0x430393c2	0x12	G:\TEMP\GoKit4_Demo\gagent\libgagent.a(timer_subsystem.o)	#SHT_PROGBITS,SHF_ALLOC|SHF_MERGE|SHF_STRINGS,1
	0x430393c2		.L__FUNCTION__.gatTimerTraversal
.rodata.str1.1	0x430393d4	0x59	G:\TEMP\GoKit4_Demo\gagent\libgagent.a(timer_subsystem.o)	#SHT_PROGBITS,SHF_ALLOC|SHF_MERGE|SHF_STRINGS,1
	0x430393d4		.L.str.15
.rodata.str1.1	0x4303942d	0x6	G:\TEMP\GoKit4_Demo\gagent\libgagent.a(timer_subsystem.o)	#SHT_PROGBITS,SHF_ALLOC|SHF_MERGE|SHF_STRINGS,1
	0x4303942d		.L.str.16
.rodata.str1.1	0x43039433	0x6c	G:\TEMP\GoKit4_Demo\gagent\libgagent.a(timer_subsystem.o)	#SHT_PROGBITS,SHF_ALLOC|SHF_MERGE|SHF_STRINGS,1
	0x43039433		.L.str.17
.rodata.str1.1	0x4303949f	0x2e	G:\TEMP\GoKit4_Demo\gagent\libgagent.a(timer_subsystem.o)	#SHT_PROGBITS,SHF_ALLOC|SHF_MERGE|SHF_STRINGS,1
	0x4303949f		.L.str.18
.rodata.str1.1	0x430394cd	0x59	G:\TEMP\GoKit4_Demo\gagent\libgagent.a(timer_subsystem.o)	#SHT_PROGBITS,SHF_ALLOC|SHF_MERGE|SHF_STRINGS,1
	0x430394cd		.L.str.19
.rodata.str1.1	0x43039526	0x1b	G:\TEMP\GoKit4_Demo\gagent\libgagent.a(timer_subsystem.o)	#SHT_PROGBITS,SHF_ALLOC|SHF_MERGE|SHF_STRINGS,1
	0x43039526		.L.str.20
.rodata.str1.1	0x43039541	0x24	G:\TEMP\GoKit4_Demo\gagent\libgagent.a(timer_subsystem.o)	#SHT_PROGBITS,SHF_ALLOC|SHF_MERGE|SHF_STRINGS,1
	0x43039541		.L.str.21
.rodata.str1.1	0x43039565	0xc	G:\TEMP\GoKit4_Demo\gagent\libgagent.a(aes.o)	#SHT_PROGBITS,SHF_ALLOC|SHF_MERGE|SHF_STRINGS,1
	0x43039565		.L__FUNCTION__.invSboxInit
.rodata.str1.1	0x43039571	0x8	G:\TEMP\GoKit4_Demo\gagent\libgagent.a(aes.o)	#SHT_PROGBITS,SHF_ALLOC|SHF_MERGE|SHF_STRINGS,1
	0x43039571		.L__FUNCTION__.aesInit
.rodata.str1.1	0x43039579	0xb	G:\TEMP\GoKit4_Demo\gagent\libgagent.a(aes.o)	#SHT_PROGBITS,SHF_ALLOC|SHF_MERGE|SHF_STRINGS,1
	0x43039579		.L__FUNCTION__.aesDestroy
.rodata.str1.1	0x43039584	0x11	G:\TEMP\GoKit4_Demo\gagent\libgagent.a(aes.o)	#SHT_PROGBITS,SHF_ALLOC|SHF_MERGE|SHF_STRINGS,1
	0x43039584		.L__FUNCTION__.aesECB128Encrypt
.rodata.str1.1	0x43039595	0x11	G:\TEMP\GoKit4_Demo\gagent\libgagent.a(aes.o)	#SHT_PROGBITS,SHF_ALLOC|SHF_MERGE|SHF_STRINGS,1
	0x43039595		.L__FUNCTION__.aesECB128Decrypt
.rodata.str1.1	0x430395a6	0x14	G:\TEMP\GoKit4_Demo\gagent\libgagent.a(aes.o)	#SHT_PROGBITS,SHF_ALLOC|SHF_MERGE|SHF_STRINGS,1
	0x430395a6		.L__FUNCTION__.aesECB128DecryptRaw
.rodata.str1.1	0x430395ba	0x1d	G:\TEMP\GoKit4_Demo\gagent\libgagent.a(authorization.o)	#SHT_PROGBITS,SHF_ALLOC|SHF_MERGE|SHF_STRINGS,1
	0x430395ba		.L.str.2
.rodata.str1.1	0x430395d7	0x19	G:\TEMP\GoKit4_Demo\gagent\libgagent.a(authorization.o)	#SHT_PROGBITS,SHF_ALLOC|SHF_MERGE|SHF_STRINGS,1
	0x430395d7		.L.str.3
.rodata.str1.1	0x430395f0	0x25	G:\TEMP\GoKit4_Demo\gagent\libgagent.a(authorization.o)	#SHT_PROGBITS,SHF_ALLOC|SHF_MERGE|SHF_STRINGS,1
	0x430395f0		.L.str.4
.rodata.str1.1	0x43039615	0x10	G:\TEMP\GoKit4_Demo\gagent\libgagent.a(authorization.o)	#SHT_PROGBITS,SHF_ALLOC|SHF_MERGE|SHF_STRINGS,1
	0x43039615		.L.str.5
.rodata.str1.1	0x43039625	0xe	G:\TEMP\GoKit4_Demo\gagent\libgagent.a(authorization.o)	#SHT_PROGBITS,SHF_ALLOC|SHF_MERGE|SHF_STRINGS,1
	0x43039625		.L__FUNCTION__.gatRecAuthKey
.rodata.str1.1	0x43039633	0x32	G:\TEMP\GoKit4_Demo\gagent\libgagent.a(authorization.o)	#SHT_PROGBITS,SHF_ALLOC|SHF_MERGE|SHF_STRINGS,1
	0x43039633		.L.str.10
.rodata.str1.1	0x43039665	0x23	G:\TEMP\GoKit4_Demo\gagent\libgagent.a(authorization.o)	#SHT_PROGBITS,SHF_ALLOC|SHF_MERGE|SHF_STRINGS,1
	0x43039665		.L.str.11
.rodata.str1.1	0x43039688	0x23	G:\TEMP\GoKit4_Demo\gagent\libgagent.a(authorization.o)	#SHT_PROGBITS,SHF_ALLOC|SHF_MERGE|SHF_STRINGS,1
	0x43039688		.L.str.12
.rodata.str1.1	0x430396ab	0x2c	G:\TEMP\GoKit4_Demo\gagent\libgagent.a(authorization.o)	#SHT_PROGBITS,SHF_ALLOC|SHF_MERGE|SHF_STRINGS,1
	0x430396ab		.L.str.13
.rodata.str1.1	0x430396d7	0x39	G:\TEMP\GoKit4_Demo\gagent\libgagent.a(authorization.o)	#SHT_PROGBITS,SHF_ALLOC|SHF_MERGE|SHF_STRINGS,1
	0x430396d7		.L.str.14
.rodata.str1.1	0x43039710	0x2a	G:\TEMP\GoKit4_Demo\gagent\libgagent.a(authorization.o)	#SHT_PROGBITS,SHF_ALLOC|SHF_MERGE|SHF_STRINGS,1
	0x43039710		.L.str.15
.rodata.str1.1	0x4303973a	0x21	G:\TEMP\GoKit4_Demo\gagent\libgagent.a(authorization.o)	#SHT_PROGBITS,SHF_ALLOC|SHF_MERGE|SHF_STRINGS,1
	0x4303973a		.L.str.16
.rodata.str1.1	0x4303975b	0x2f	G:\TEMP\GoKit4_Demo\gagent\libgagent.a(authorization.o)	#SHT_PROGBITS,SHF_ALLOC|SHF_MERGE|SHF_STRINGS,1
	0x4303975b		.L.str.17
.rodata.str1.1	0x4303978a	0x34	G:\TEMP\GoKit4_Demo\gagent\libgagent.a(authorization.o)	#SHT_PROGBITS,SHF_ALLOC|SHF_MERGE|SHF_STRINGS,1
	0x4303978a		.L.str.18
.rodata.str1.1	0x430397be	0xa	G:\TEMP\GoKit4_Demo\gagent\libgagent.a(authorization.o)	#SHT_PROGBITS,SHF_ALLOC|SHF_MERGE|SHF_STRINGS,1
	0x430397be		.L.str.19
.rodata.str1.1	0x430397c8	0x2c	G:\TEMP\GoKit4_Demo\gagent\libgagent.a(authorization.o)	#SHT_PROGBITS,SHF_ALLOC|SHF_MERGE|SHF_STRINGS,1
	0x430397c8		.L.str.20
.rodata.str1.1	0x430397f4	0x21	G:\TEMP\GoKit4_Demo\gagent\libgagent.a(authorization.o)	#SHT_PROGBITS,SHF_ALLOC|SHF_MERGE|SHF_STRINGS,1
	0x430397f4		.L.str.21
.rodata.str1.1	0x43039815	0x11	G:\TEMP\GoKit4_Demo\gagent\libgagent.a(authorization.o)	#SHT_PROGBITS,SHF_ALLOC|SHF_MERGE|SHF_STRINGS,1
	0x43039815		.L__FUNCTION__.gatGetAuthReqAck
.rodata.str1.1	0x43039826	0x18	G:\TEMP\GoKit4_Demo\gagent\libgagent.a(authorization.o)	#SHT_PROGBITS,SHF_ALLOC|SHF_MERGE|SHF_STRINGS,1
	0x43039826		.L.str.22
.rodata.str1.1	0x4303983e	0xc	G:\TEMP\GoKit4_Demo\gagent\libgagent.a(authorization.o)	#SHT_PROGBITS,SHF_ALLOC|SHF_MERGE|SHF_STRINGS,1
	0x4303983e		.L__FUNCTION__.gatAuthInit
.rodata.str1.1	0x4303984a	0x25	G:\TEMP\GoKit4_Demo\gagent\libgagent.a(authorization.o)	#SHT_PROGBITS,SHF_ALLOC|SHF_MERGE|SHF_STRINGS,1
	0x4303984a		.L.str.23
.rodata.str1.1	0x4303986f	0xe	G:\TEMP\GoKit4_Demo\gagent\libgagent.a(authorization.o)	#SHT_PROGBITS,SHF_ALLOC|SHF_MERGE|SHF_STRINGS,1
	0x4303986f		.L__FUNCTION__.gatAuthKeySet
.rodata.str1.1	0x4303987d	0x25	G:\TEMP\GoKit4_Demo\gagent\libgagent.a(authorization.o)	#SHT_PROGBITS,SHF_ALLOC|SHF_MERGE|SHF_STRINGS,1
	0x4303987d		.L.str.24
.rodata.str1.1	0x430398a2	0x14	G:\TEMP\GoKit4_Demo\gagent\libgagent.a(authorization.o)	#SHT_PROGBITS,SHF_ALLOC|SHF_MERGE|SHF_STRINGS,1
	0x430398a2		.L__FUNCTION__.gatWaitAuthKeyTimer
.rodata.str1.1	0x430398b6	0x10	G:\TEMP\GoKit4_Demo\gagent\libgagent.a(authorization.o)	#SHT_PROGBITS,SHF_ALLOC|SHF_MERGE|SHF_STRINGS,1
	0x430398b6		.L.str.25
.rodata.str1.1	0x430398c6	0xe	G:\TEMP\GoKit4_Demo\gagent\libgagent.a(authorization.o)	#SHT_PROGBITS,SHF_ALLOC|SHF_MERGE|SHF_STRINGS,1
	0x430398c6		.L__FUNCTION__.gatReqAuthKey
.rodata.str1.1	0x430398d4	0x23	G:\TEMP\GoKit4_Demo\gagent\libgagent.a(authorization.o)	#SHT_PROGBITS,SHF_ALLOC|SHF_MERGE|SHF_STRINGS,1
	0x430398d4		.L.str.26
.rodata.str1.1	0x430398f7	0x1f	G:\TEMP\GoKit4_Demo\gagent\libgagent.a(authorization.o)	#SHT_PROGBITS,SHF_ALLOC|SHF_MERGE|SHF_STRINGS,1
	0x430398f7		.L.str.28
.rodata.str1.1	0x43039916	0x3a	G:\TEMP\GoKit4_Demo\gagent\libgagent.a(authorization.o)	#SHT_PROGBITS,SHF_ALLOC|SHF_MERGE|SHF_STRINGS,1
	0x43039916		.L.str.29
.rodata.str1.1	0x43039950	0x15	G:\TEMP\GoKit4_Demo\gagent\libgagent.a(authorization.o)	#SHT_PROGBITS,SHF_ALLOC|SHF_MERGE|SHF_STRINGS,1
	0x43039950		.L__FUNCTION__.gatReqAuthKeyTimeOut
.rodata.str1.1	0x43039965	0x34	G:\TEMP\GoKit4_Demo\gagent\libgagent.a(dp.o)	#SHT_PROGBITS,SHF_ALLOC|SHF_MERGE|SHF_STRINGS,1
	0x43039965		.L.str.2
.rodata.str1.1	0x43039999	0x35	G:\TEMP\GoKit4_Demo\gagent\libgagent.a(dp.o)	#SHT_PROGBITS,SHF_ALLOC|SHF_MERGE|SHF_STRINGS,1
	0x43039999		.L.str.3
.rodata.str1.1	0x430399ce	0x8	G:\TEMP\GoKit4_Demo\gagent\libgagent.a(dp.o)	#SHT_PROGBITS,SHF_ALLOC|SHF_MERGE|SHF_STRINGS,1
	0x430399ce		.L__FUNCTION__.dpTrans
.rodata.str1.1	0x430399d6	0x34	G:\TEMP\GoKit4_Demo\gagent\libgagent.a(dp.o)	#SHT_PROGBITS,SHF_ALLOC|SHF_MERGE|SHF_STRINGS,1
	0x430399d6		.L.str.4
.rodata.str1.1	0x43039a0a	0x28	G:\TEMP\GoKit4_Demo\gagent\libgagent.a(dp.o)	#SHT_PROGBITS,SHF_ALLOC|SHF_MERGE|SHF_STRINGS,1
	0x43039a0a		.L.str.5
.rodata.str1.1	0x43039a32	0xd	G:\TEMP\GoKit4_Demo\gagent\libgagent.a(dp.o)	#SHT_PROGBITS,SHF_ALLOC|SHF_MERGE|SHF_STRINGS,1
	0x43039a32		.L.str.6
.rodata.str1.1	0x43039a3f	0x9	G:\TEMP\GoKit4_Demo\gagent\libgagent.a(dp.o)	#SHT_PROGBITS,SHF_ALLOC|SHF_MERGE|SHF_STRINGS,1
	0x43039a3f		.L.str.7
.rodata.str1.1	0x43039a48	0xc	G:\TEMP\GoKit4_Demo\gagent\libgagent.a(dp.o)	#SHT_PROGBITS,SHF_ALLOC|SHF_MERGE|SHF_STRINGS,1
	0x43039a48		.L.str.8
.rodata.str1.1	0x43039a54	0x17	G:\TEMP\GoKit4_Demo\gagent\libgagent.a(dp.o)	#SHT_PROGBITS,SHF_ALLOC|SHF_MERGE|SHF_STRINGS,1
	0x43039a54		.L.str.9
.rodata.str1.1	0x43039a6b	0xa	G:\TEMP\GoKit4_Demo\gagent\libgagent.a(dp.o)	#SHT_PROGBITS,SHF_ALLOC|SHF_MERGE|SHF_STRINGS,1
	0x43039a6b		.L__FUNCTION__.getWanCmd
.rodata.str1.1	0x43039a75	0x9	G:\TEMP\GoKit4_Demo\gagent\libgagent.a(env.o)	#SHT_PROGBITS,SHF_ALLOC|SHF_MERGE|SHF_STRINGS,1
	0x43039a75		.L.str
.rodata.str1.1	0x43039a7e	0x29	G:\TEMP\GoKit4_Demo\gagent\libgagent.a(env.o)	#SHT_PROGBITS,SHF_ALLOC|SHF_MERGE|SHF_STRINGS,1
	0x43039a7e		.L.str.3
.rodata.str1.1	0x43039aa7	0xc	G:\TEMP\GoKit4_Demo\gagent\libgagent.a(env.o)	#SHT_PROGBITS,SHF_ALLOC|SHF_MERGE|SHF_STRINGS,1
	0x43039aa7		.L__FUNCTION__.getEnvErase
.rodata.str1.1	0x43039ab3	0x1a	G:\TEMP\GoKit4_Demo\gagent\libgagent.a(env.o)	#SHT_PROGBITS,SHF_ALLOC|SHF_MERGE|SHF_STRINGS,1
	0x43039ab3		.L.str.4
.rodata.str1.1	0x43039acd	0xc	G:\TEMP\GoKit4_Demo\gagent\libgagent.a(env.o)	#SHT_PROGBITS,SHF_ALLOC|SHF_MERGE|SHF_STRINGS,1
	0x43039acd		.L__FUNCTION__.gatEnvWrite
.rodata.str1.1	0x43039ad9	0x26	G:\TEMP\GoKit4_Demo\gagent\libgagent.a(env.o)	#SHT_PROGBITS,SHF_ALLOC|SHF_MERGE|SHF_STRINGS,1
	0x43039ad9		.L.str.5
.rodata.str1.1	0x43039aff	0x21	G:\TEMP\GoKit4_Demo\gagent\libgagent.a(env.o)	#SHT_PROGBITS,SHF_ALLOC|SHF_MERGE|SHF_STRINGS,1
	0x43039aff		.L.str.6
.rodata.str1.1	0x43039b20	0x15	G:\TEMP\GoKit4_Demo\gagent\libgagent.a(env.o)	#SHT_PROGBITS,SHF_ALLOC|SHF_MERGE|SHF_STRINGS,1
	0x43039b20		.L.str.7
.rodata.str1.1	0x43039b35	0x18	G:\TEMP\GoKit4_Demo\gagent\libgagent.a(env.o)	#SHT_PROGBITS,SHF_ALLOC|SHF_MERGE|SHF_STRINGS,1
	0x43039b35		.L.str.12
.rodata.str1.1	0x43039b4d	0x20	G:\TEMP\GoKit4_Demo\gagent\libgagent.a(env.o)	#SHT_PROGBITS,SHF_ALLOC|SHF_MERGE|SHF_STRINGS,1
	0x43039b4d		.L.str.13
.rodata.str1.1	0x43039b6d	0x26	G:\TEMP\GoKit4_Demo\gagent\libgagent.a(env.o)	#SHT_PROGBITS,SHF_ALLOC|SHF_MERGE|SHF_STRINGS,1
	0x43039b6d		.L.str.14
.rodata.str1.1	0x43039b93	0x26	G:\TEMP\GoKit4_Demo\gagent\libgagent.a(env.o)	#SHT_PROGBITS,SHF_ALLOC|SHF_MERGE|SHF_STRINGS,1
	0x43039b93		.L.str.15
.rodata.str1.1	0x43039bb9	0x1c	G:\TEMP\GoKit4_Demo\gagent\libgagent.a(env.o)	#SHT_PROGBITS,SHF_ALLOC|SHF_MERGE|SHF_STRINGS,1
	0x43039bb9		.L.str.16
.rodata.str1.1	0x43039bd5	0xb	G:\TEMP\GoKit4_Demo\gagent\libgagent.a(env.o)	#SHT_PROGBITS,SHF_ALLOC|SHF_MERGE|SHF_STRINGS,1
	0x43039bd5		.L__FUNCTION__.gatEnvRead
.rodata.str1.1	0x43039be0	0x20	G:\TEMP\GoKit4_Demo\gagent\libgagent.a(env.o)	#SHT_PROGBITS,SHF_ALLOC|SHF_MERGE|SHF_STRINGS,1
	0x43039be0		.L.str.17
.rodata.str1.1	0x43039c00	0x20	G:\TEMP\GoKit4_Demo\gagent\libgagent.a(env.o)	#SHT_PROGBITS,SHF_ALLOC|SHF_MERGE|SHF_STRINGS,1
	0x43039c00		.L.str.18
.rodata.str1.1	0x43039c20	0xc	G:\TEMP\GoKit4_Demo\gagent\libgagent.a(gagent.o)	#SHT_PROGBITS,SHF_ALLOC|SHF_MERGE|SHF_STRINGS,1
	0x43039c20		.L.str
.rodata.str1.1	0x43039c2c	0x20	G:\TEMP\GoKit4_Demo\gagent\libgagent.a(gagent.o)	#SHT_PROGBITS,SHF_ALLOC|SHF_MERGE|SHF_STRINGS,1
	0x43039c2c		.L.str.3
.rodata.str1.1	0x43039c4c	0x14	G:\TEMP\GoKit4_Demo\gagent\libgagent.a(gagent.o)	#SHT_PROGBITS,SHF_ALLOC|SHF_MERGE|SHF_STRINGS,1
	0x43039c4c		.L__FUNCTION__.gatReBootTimerStart
.rodata.str1.1	0x43039c60	0x14	G:\TEMP\GoKit4_Demo\gagent\libgagent.a(gagent.o)	#SHT_PROGBITS,SHF_ALLOC|SHF_MERGE|SHF_STRINGS,1
	0x43039c60		.L.str.4
.rodata.str1.1	0x43039c74	0xe	G:\TEMP\GoKit4_Demo\gagent\libgagent.a(gagent.o)	#SHT_PROGBITS,SHF_ALLOC|SHF_MERGE|SHF_STRINGS,1
	0x43039c74		.L__FUNCTION__.gatSetSoftVer
.rodata.str1.1	0x43039c82	0xe	G:\TEMP\GoKit4_Demo\gagent\libgagent.a(gagent.o)	#SHT_PROGBITS,SHF_ALLOC|SHF_MERGE|SHF_STRINGS,1
	0x43039c82		.L__FUNCTION__.gatGetSoftVer
.rodata.str1.1	0x43039c90	0x17	G:\TEMP\GoKit4_Demo\gagent\libgagent.a(gagent.o)	#SHT_PROGBITS,SHF_ALLOC|SHF_MERGE|SHF_STRINGS,1
	0x43039c90		.L.str.5
.rodata.str1.1	0x43039ca7	0x13	G:\TEMP\GoKit4_Demo\gagent\libgagent.a(gagent.o)	#SHT_PROGBITS,SHF_ALLOC|SHF_MERGE|SHF_STRINGS,1
	0x43039ca7		.L__FUNCTION__.gagentReBootHandle
.rodata.str1.1	0x43039cba	0x1c	G:\TEMP\GoKit4_Demo\gagent\libgagent.a(gagent.o)	#SHT_PROGBITS,SHF_ALLOC|SHF_MERGE|SHF_STRINGS,1
	0x43039cba		.L.str.6
.rodata.str1.1	0x43039cd6	0xa	G:\TEMP\GoKit4_Demo\gagent\libgagent.a(gagent.o)	#SHT_PROGBITS,SHF_ALLOC|SHF_MERGE|SHF_STRINGS,1
	0x43039cd6		.L__FUNCTION__.gatReBoot
.rodata.str1.1	0x43039ce0	0x22	G:\TEMP\GoKit4_Demo\gagent\libgagent.a(gagent.o)	#SHT_PROGBITS,SHF_ALLOC|SHF_MERGE|SHF_STRINGS,1
	0x43039ce0		.L.str.7
.rodata.str1.1	0x43039d02	0xb	G:\TEMP\GoKit4_Demo\gagent\libgagent.a(gagent.o)	#SHT_PROGBITS,SHF_ALLOC|SHF_MERGE|SHF_STRINGS,1
	0x43039d02		.L.str.8
.rodata.str1.1	0x43039d0d	0x15	G:\TEMP\GoKit4_Demo\gagent\libgagent.a(gagent.o)	#SHT_PROGBITS,SHF_ALLOC|SHF_MERGE|SHF_STRINGS,1
	0x43039d0d		.L__FUNCTION__.gatDealUserPayload90
.rodata.str1.1	0x43039d22	0x11	G:\TEMP\GoKit4_Demo\gagent\libgagent.a(gagent.o)	#SHT_PROGBITS,SHF_ALLOC|SHF_MERGE|SHF_STRINGS,1
	0x43039d22		.L.str.9
.rodata.str1.1	0x43039d33	0x5b	G:\TEMP\GoKit4_Demo\gagent\libgagent.a(gagent.o)	#SHT_PROGBITS,SHF_ALLOC|SHF_MERGE|SHF_STRINGS,1
	0x43039d33		.L.str.10
.rodata.str1.1	0x43039d8e	0x36	G:\TEMP\GoKit4_Demo\gagent\libgagent.a(gagent.o)	#SHT_PROGBITS,SHF_ALLOC|SHF_MERGE|SHF_STRINGS,1
	0x43039d8e		.L.str.11
.rodata.str1.1	0x43039dc4	0x1a	G:\TEMP\GoKit4_Demo\gagent\libgagent.a(gagent.o)	#SHT_PROGBITS,SHF_ALLOC|SHF_MERGE|SHF_STRINGS,1
	0x43039dc4		.L.str.12
.rodata.str1.1	0x43039dde	0xa	G:\TEMP\GoKit4_Demo\gagent\libgagent.a(gagent.o)	#SHT_PROGBITS,SHF_ALLOC|SHF_MERGE|SHF_STRINGS,1
	0x43039dde		.L.str.13
.rodata.str1.1	0x43039de8	0x15	G:\TEMP\GoKit4_Demo\gagent\libgagent.a(gagent.o)	#SHT_PROGBITS,SHF_ALLOC|SHF_MERGE|SHF_STRINGS,1
	0x43039de8		.L__FUNCTION__.gatDealUserPayload93
.rodata.str1.1	0x43039dfd	0x2b	G:\TEMP\GoKit4_Demo\gagent\libgagent.a(gagent.o)	#SHT_PROGBITS,SHF_ALLOC|SHF_MERGE|SHF_STRINGS,1
	0x43039dfd		.L.str.18
.rodata.str1.1	0x43039e28	0x61	G:\TEMP\GoKit4_Demo\gagent\libgagent.a(gagent.o)	#SHT_PROGBITS,SHF_ALLOC|SHF_MERGE|SHF_STRINGS,1
	0x43039e28		.L.str.19
.rodata.str1.1	0x43039e89	0x49	G:\TEMP\GoKit4_Demo\gagent\libgagent.a(gagent.o)	#SHT_PROGBITS,SHF_ALLOC|SHF_MERGE|SHF_STRINGS,1
	0x43039e89		.L.str.20
.rodata.str1.1	0x43039ed2	0x45	G:\TEMP\GoKit4_Demo\gagent\libgagent.a(gagent.o)	#SHT_PROGBITS,SHF_ALLOC|SHF_MERGE|SHF_STRINGS,1
	0x43039ed2		.L.str.21
.rodata.str1.1	0x43039f17	0x44	G:\TEMP\GoKit4_Demo\gagent\libgagent.a(gagent.o)	#SHT_PROGBITS,SHF_ALLOC|SHF_MERGE|SHF_STRINGS,1
	0x43039f17		.L.str.22
.rodata.str1.1	0x43039f5b	0x2a	G:\TEMP\GoKit4_Demo\gagent\libgagent.a(gagent.o)	#SHT_PROGBITS,SHF_ALLOC|SHF_MERGE|SHF_STRINGS,1
	0x43039f5b		.L.str.23
.rodata.str1.1	0x43039f85	0x23	G:\TEMP\GoKit4_Demo\gagent\libgagent.a(gagent.o)	#SHT_PROGBITS,SHF_ALLOC|SHF_MERGE|SHF_STRINGS,1
	0x43039f85		.L.str.24
.rodata.str1.1	0x43039fa8	0x30	G:\TEMP\GoKit4_Demo\gagent\libgagent.a(gagent.o)	#SHT_PROGBITS,SHF_ALLOC|SHF_MERGE|SHF_STRINGS,1
	0x43039fa8		.L.str.25
.rodata.str1.1	0x43039fd8	0x15	G:\TEMP\GoKit4_Demo\gagent\libgagent.a(gagent.o)	#SHT_PROGBITS,SHF_ALLOC|SHF_MERGE|SHF_STRINGS,1
	0x43039fd8		.L.str.26
.rodata.str1.1	0x43039fed	0xe	G:\TEMP\GoKit4_Demo\gagent\libgagent.a(gagent.o)	#SHT_PROGBITS,SHF_ALLOC|SHF_MERGE|SHF_STRINGS,1
	0x43039fed		.L__FUNCTION__.gatTaskHandle
.rodata.str1.1	0x43039ffb	0x10	G:\TEMP\GoKit4_Demo\gagent\libgagent.a(gagent.o)	#SHT_PROGBITS,SHF_ALLOC|SHF_MERGE|SHF_STRINGS,1
	0x43039ffb		.L.str.27
.rodata.str1.1	0x4303a00b	0x18	G:\TEMP\GoKit4_Demo\gagent\libgagent.a(gagent.o)	#SHT_PROGBITS,SHF_ALLOC|SHF_MERGE|SHF_STRINGS,1
	0x4303a00b		.L.str.28
.rodata.str1.1	0x4303a023	0x1a	G:\TEMP\GoKit4_Demo\gagent\libgagent.a(gagent.o)	#SHT_PROGBITS,SHF_ALLOC|SHF_MERGE|SHF_STRINGS,1
	0x4303a023		.L.str.29
.rodata.str1.1	0x4303a03d	0x1e	G:\TEMP\GoKit4_Demo\gagent\libgagent.a(gagent.o)	#SHT_PROGBITS,SHF_ALLOC|SHF_MERGE|SHF_STRINGS,1
	0x4303a03d		.L.str.30
.rodata.str1.1	0x4303a05b	0x1c	G:\TEMP\GoKit4_Demo\gagent\libgagent.a(gagent.o)	#SHT_PROGBITS,SHF_ALLOC|SHF_MERGE|SHF_STRINGS,1
	0x4303a05b		.L.str.31
.rodata.str1.1	0x4303a077	0x17	G:\TEMP\GoKit4_Demo\gagent\libgagent.a(gagent.o)	#SHT_PROGBITS,SHF_ALLOC|SHF_MERGE|SHF_STRINGS,1
	0x4303a077		.L.str.32
.rodata.str1.1	0x4303a08e	0x1f	G:\TEMP\GoKit4_Demo\gagent\libgagent.a(gagent.o)	#SHT_PROGBITS,SHF_ALLOC|SHF_MERGE|SHF_STRINGS,1
	0x4303a08e		.L.str.33
.rodata.str1.1	0x4303a0ad	0x1a	G:\TEMP\GoKit4_Demo\gagent\libgagent.a(gagent.o)	#SHT_PROGBITS,SHF_ALLOC|SHF_MERGE|SHF_STRINGS,1
	0x4303a0ad		.L.str.34
.rodata.str1.1	0x4303a0c7	0x27	G:\TEMP\GoKit4_Demo\gagent\libgagent.a(gagent.o)	#SHT_PROGBITS,SHF_ALLOC|SHF_MERGE|SHF_STRINGS,1
	0x4303a0c7		.L.str.35
.rodata.str1.1	0x4303a0ee	0x12	G:\TEMP\GoKit4_Demo\gagent\libgagent.a(gagent.o)	#SHT_PROGBITS,SHF_ALLOC|SHF_MERGE|SHF_STRINGS,1
	0x4303a0ee		.L.str.36
.rodata.str1.1	0x4303a100	0x26	G:\TEMP\GoKit4_Demo\gagent\libgagent.a(gagent.o)	#SHT_PROGBITS,SHF_ALLOC|SHF_MERGE|SHF_STRINGS,1
	0x4303a100		.L.str.37
.rodata.str1.1	0x4303a126	0xd	G:\TEMP\GoKit4_Demo\gagent\libgagent.a(gagent.o)	#SHT_PROGBITS,SHF_ALLOC|SHF_MERGE|SHF_STRINGS,1
	0x4303a126		.L__FUNCTION__.gatStatusSet
.rodata.str1.1	0x4303a133	0x1e	G:\TEMP\GoKit4_Demo\gagent\libgagent.a(gagent.o)	#SHT_PROGBITS,SHF_ALLOC|SHF_MERGE|SHF_STRINGS,1
	0x4303a133		.L.str.38
.rodata.str1.1	0x4303a151	0x13	G:\TEMP\GoKit4_Demo\gagent\libgagent.a(gagent.o)	#SHT_PROGBITS,SHF_ALLOC|SHF_MERGE|SHF_STRINGS,1
	0x4303a151		.L__FUNCTION__.gatCleanConfigData
.rodata.str1.1	0x4303a164	0x3d	G:\TEMP\GoKit4_Demo\gagent\libgagent.a(gagent.o)	#SHT_PROGBITS,SHF_ALLOC|SHF_MERGE|SHF_STRINGS,1
	0x4303a164		.L.str.40
.rodata.str1.1	0x4303a1a1	0x6d	G:\TEMP\GoKit4_Demo\gagent\libgagent.a(gagent.o)	#SHT_PROGBITS,SHF_ALLOC|SHF_MERGE|SHF_STRINGS,1
	0x4303a1a1		.L.str.41
.rodata.str1.1	0x4303a20e	0x80	G:\TEMP\GoKit4_Demo\gagent\libgagent.a(gagent.o)	#SHT_PROGBITS,SHF_ALLOC|SHF_MERGE|SHF_STRINGS,1
	0x4303a20e		.L.str.42
.rodata.str1.1	0x4303a28e	0x32	G:\TEMP\GoKit4_Demo\gagent\libgagent.a(gagent.o)	#SHT_PROGBITS,SHF_ALLOC|SHF_MERGE|SHF_STRINGS,1
	0x4303a28e		.L.str.43
.rodata.str1.1	0x4303a2c0	0x32	G:\TEMP\GoKit4_Demo\gagent\libgagent.a(gagent.o)	#SHT_PROGBITS,SHF_ALLOC|SHF_MERGE|SHF_STRINGS,1
	0x4303a2c0		.L.str.44
.rodata.str1.1	0x4303a2f2	0x35	G:\TEMP\GoKit4_Demo\gagent\libgagent.a(gagent.o)	#SHT_PROGBITS,SHF_ALLOC|SHF_MERGE|SHF_STRINGS,1
	0x4303a2f2		.L.str.45
.rodata.str1.1	0x4303a327	0xc	G:\TEMP\GoKit4_Demo\gagent\libgagent.a(gagent.o)	#SHT_PROGBITS,SHF_ALLOC|SHF_MERGE|SHF_STRINGS,1
	0x4303a327		.L__FUNCTION__.gatDataSend
.rodata.str1.1	0x4303a333	0x29	G:\TEMP\GoKit4_Demo\gagent\libgagent.a(gagent.o)	#SHT_PROGBITS,SHF_ALLOC|SHF_MERGE|SHF_STRINGS,1
	0x4303a333		.L.str.46
.rodata.str1.1	0x4303a35c	0x4	G:\TEMP\GoKit4_Demo\gagent\libgagent.a(gagent.o)	#SHT_PROGBITS,SHF_ALLOC|SHF_MERGE|SHF_STRINGS,1
	0x4303a35c		.L.str.47
.rodata.str1.1	0x4303a360	0x1f	G:\TEMP\GoKit4_Demo\gagent\libgagent.a(gagent.o)	#SHT_PROGBITS,SHF_ALLOC|SHF_MERGE|SHF_STRINGS,1
	0x4303a360		.L.str.48
.rodata.str1.1	0x4303a37f	0x2b	G:\TEMP\GoKit4_Demo\gagent\libgagent.a(gagent.o)	#SHT_PROGBITS,SHF_ALLOC|SHF_MERGE|SHF_STRINGS,1
	0x4303a37f		.L.str.49
.rodata.str1.1	0x4303a3aa	0xe	G:\TEMP\GoKit4_Demo\gagent\libgagent.a(gagent.o)	#SHT_PROGBITS,SHF_ALLOC|SHF_MERGE|SHF_STRINGS,1
	0x4303a3aa		.L.str.50
.rodata.str1.1	0x4303a3b8	0x1f	G:\TEMP\GoKit4_Demo\gagent\libgagent.a(gagent.o)	#SHT_PROGBITS,SHF_ALLOC|SHF_MERGE|SHF_STRINGS,1
	0x4303a3b8		.L.str.51
.rodata.str1.1	0x4303a3d7	0x2b	G:\TEMP\GoKit4_Demo\gagent\libgagent.a(gagent.o)	#SHT_PROGBITS,SHF_ALLOC|SHF_MERGE|SHF_STRINGS,1
	0x4303a3d7		.L.str.52
.rodata.str1.1	0x4303a402	0x33	G:\TEMP\GoKit4_Demo\gagent\libgagent.a(gagent.o)	#SHT_PROGBITS,SHF_ALLOC|SHF_MERGE|SHF_STRINGS,1
	0x4303a402		.L.str.54
.rodata.str1.1	0x4303a435	0x37	G:\TEMP\GoKit4_Demo\gagent\libgagent.a(gagent.o)	#SHT_PROGBITS,SHF_ALLOC|SHF_MERGE|SHF_STRINGS,1
	0x4303a435		.L.str.55
.rodata.str1.1	0x4303a46c	0x33	G:\TEMP\GoKit4_Demo\gagent\libgagent.a(gagent.o)	#SHT_PROGBITS,SHF_ALLOC|SHF_MERGE|SHF_STRINGS,1
	0x4303a46c		.L.str.56
.rodata.str1.1	0x4303a49f	0x37	G:\TEMP\GoKit4_Demo\gagent\libgagent.a(gagent.o)	#SHT_PROGBITS,SHF_ALLOC|SHF_MERGE|SHF_STRINGS,1
	0x4303a49f		.L.str.57
.rodata.str1.1	0x4303a4d6	0x37	G:\TEMP\GoKit4_Demo\gagent\libgagent.a(gagent.o)	#SHT_PROGBITS,SHF_ALLOC|SHF_MERGE|SHF_STRINGS,1
	0x4303a4d6		.L.str.58
.rodata.str1.1	0x4303a50d	0x3b	G:\TEMP\GoKit4_Demo\gagent\libgagent.a(gagent.o)	#SHT_PROGBITS,SHF_ALLOC|SHF_MERGE|SHF_STRINGS,1
	0x4303a50d		.L.str.59
.rodata.str1.1	0x4303a548	0x1d	G:\TEMP\GoKit4_Demo\gagent\libgagent.a(gagent.o)	#SHT_PROGBITS,SHF_ALLOC|SHF_MERGE|SHF_STRINGS,1
	0x4303a548		.L.str.60
.rodata.str1.1	0x4303a565	0x22	G:\TEMP\GoKit4_Demo\gagent\libgagent.a(gagent.o)	#SHT_PROGBITS,SHF_ALLOC|SHF_MERGE|SHF_STRINGS,1
	0x4303a565		.L.str.61
.rodata.str1.1	0x4303a587	0x17	G:\TEMP\GoKit4_Demo\gagent\libgagent.a(gagent.o)	#SHT_PROGBITS,SHF_ALLOC|SHF_MERGE|SHF_STRINGS,1
	0x4303a587		.L.str.62
.rodata.str1.1	0x4303a59e	0x13	G:\TEMP\GoKit4_Demo\gagent\libgagent.a(gagent.o)	#SHT_PROGBITS,SHF_ALLOC|SHF_MERGE|SHF_STRINGS,1
	0x4303a59e		.L__FUNCTION__.gatRunTimeDataInit
.rodata.str1.1	0x4303a5b1	0x4b	G:\TEMP\GoKit4_Demo\gagent\libgagent.a(gagent.o)	#SHT_PROGBITS,SHF_ALLOC|SHF_MERGE|SHF_STRINGS,1
	0x4303a5b1		.L.str.63
.rodata.str1.1	0x4303a5fc	0x9	G:\TEMP\GoKit4_Demo\gagent\libgagent.a(gagent.o)	#SHT_PROGBITS,SHF_ALLOC|SHF_MERGE|SHF_STRINGS,1
	0x4303a5fc		.L.str.65
.rodata.str1.1	0x4303a605	0xe	G:\TEMP\GoKit4_Demo\gagent\libgagent.a(gagent.o)	#SHT_PROGBITS,SHF_ALLOC|SHF_MERGE|SHF_STRINGS,1
	0x4303a605		.L.str.66
.rodata.str1.1	0x4303a613	0x1f	G:\TEMP\GoKit4_Demo\gagent\libgagent.a(gagent.o)	#SHT_PROGBITS,SHF_ALLOC|SHF_MERGE|SHF_STRINGS,1
	0x4303a613		.L.str.67
.rodata.str1.1	0x4303a632	0x8	G:\TEMP\GoKit4_Demo\gagent\libgagent.a(gagent.o)	#SHT_PROGBITS,SHF_ALLOC|SHF_MERGE|SHF_STRINGS,1
	0x4303a632		.L__FUNCTION__.gatInit
.rodata.str1.1	0x4303a63a	0x63	G:\TEMP\GoKit4_Demo\gagent\libgagent.a(gagent.o)	#SHT_PROGBITS,SHF_ALLOC|SHF_MERGE|SHF_STRINGS,1
	0x4303a63a		.L.str.68
.rodata.str1.1	0x4303a69d	0x26	G:\TEMP\GoKit4_Demo\gagent\libgagent.a(gagent.o)	#SHT_PROGBITS,SHF_ALLOC|SHF_MERGE|SHF_STRINGS,1
	0x4303a69d		.L.str.69
.rodata.str1.1	0x4303a6c3	0x27	G:\TEMP\GoKit4_Demo\gagent\libgagent.a(gagent.o)	#SHT_PROGBITS,SHF_ALLOC|SHF_MERGE|SHF_STRINGS,1
	0x4303a6c3		.L.str.70
.rodata.str1.1	0x4303a6ea	0x27	G:\TEMP\GoKit4_Demo\gagent\libgagent.a(gagent.o)	#SHT_PROGBITS,SHF_ALLOC|SHF_MERGE|SHF_STRINGS,1
	0x4303a6ea		.L.str.71
.rodata.str1.1	0x4303a711	0x27	G:\TEMP\GoKit4_Demo\gagent\libgagent.a(gagent.o)	#SHT_PROGBITS,SHF_ALLOC|SHF_MERGE|SHF_STRINGS,1
	0x4303a711		.L.str.72
.rodata.str1.1	0x4303a738	0x26	G:\TEMP\GoKit4_Demo\gagent\libgagent.a(gagent.o)	#SHT_PROGBITS,SHF_ALLOC|SHF_MERGE|SHF_STRINGS,1
	0x4303a738		.L.str.73
.rodata.str1.1	0x4303a75e	0x2a	G:\TEMP\GoKit4_Demo\gagent\libgagent.a(gagent.o)	#SHT_PROGBITS,SHF_ALLOC|SHF_MERGE|SHF_STRINGS,1
	0x4303a75e		.L.str.74
.rodata.str1.1	0x4303a788	0x2a	G:\TEMP\GoKit4_Demo\gagent\libgagent.a(gagent.o)	#SHT_PROGBITS,SHF_ALLOC|SHF_MERGE|SHF_STRINGS,1
	0x4303a788		.L.str.75
.rodata.str1.1	0x4303a7b2	0x2b	G:\TEMP\GoKit4_Demo\gagent\libgagent.a(gagent.o)	#SHT_PROGBITS,SHF_ALLOC|SHF_MERGE|SHF_STRINGS,1
	0x4303a7b2		.L.str.76
.rodata.str1.1	0x4303a7dd	0x2d	G:\TEMP\GoKit4_Demo\gagent\libgagent.a(gagent.o)	#SHT_PROGBITS,SHF_ALLOC|SHF_MERGE|SHF_STRINGS,1
	0x4303a7dd		.L.str.77
.rodata.str1.1	0x4303a80a	0x2b	G:\TEMP\GoKit4_Demo\gagent\libgagent.a(gagent.o)	#SHT_PROGBITS,SHF_ALLOC|SHF_MERGE|SHF_STRINGS,1
	0x4303a80a		.L.str.78
.rodata.str1.1	0x4303a835	0x2b	G:\TEMP\GoKit4_Demo\gagent\libgagent.a(gagent.o)	#SHT_PROGBITS,SHF_ALLOC|SHF_MERGE|SHF_STRINGS,1
	0x4303a835		.L.str.79
.rodata.str1.1	0x4303a860	0x2d	G:\TEMP\GoKit4_Demo\gagent\libgagent.a(gagent.o)	#SHT_PROGBITS,SHF_ALLOC|SHF_MERGE|SHF_STRINGS,1
	0x4303a860		.L.str.80
.rodata.str1.1	0x4303a88d	0x2e	G:\TEMP\GoKit4_Demo\gagent\libgagent.a(gagent.o)	#SHT_PROGBITS,SHF_ALLOC|SHF_MERGE|SHF_STRINGS,1
	0x4303a88d		.L.str.81
.rodata.str1.1	0x4303a8bb	0x2d	G:\TEMP\GoKit4_Demo\gagent\libgagent.a(gagent.o)	#SHT_PROGBITS,SHF_ALLOC|SHF_MERGE|SHF_STRINGS,1
	0x4303a8bb		.L.str.82
.rodata.str1.1	0x4303a8e8	0x34	G:\TEMP\GoKit4_Demo\gagent\libgagent.a(gagent.o)	#SHT_PROGBITS,SHF_ALLOC|SHF_MERGE|SHF_STRINGS,1
	0x4303a8e8		.L.str.83
.rodata.str1.1	0x4303a91c	0x31	G:\TEMP\GoKit4_Demo\gagent\libgagent.a(gagent.o)	#SHT_PROGBITS,SHF_ALLOC|SHF_MERGE|SHF_STRINGS,1
	0x4303a91c		.L.str.84
.rodata.str1.1	0x4303a94d	0x39	G:\TEMP\GoKit4_Demo\gagent\libgagent.a(gagent.o)	#SHT_PROGBITS,SHF_ALLOC|SHF_MERGE|SHF_STRINGS,1
	0x4303a94d		.L.str.85
.rodata.str1.1	0x4303a986	0x28	G:\TEMP\GoKit4_Demo\gagent\libgagent.a(gagent.o)	#SHT_PROGBITS,SHF_ALLOC|SHF_MERGE|SHF_STRINGS,1
	0x4303a986		.L.str.86
.rodata.str1.1	0x4303a9ae	0x39	G:\TEMP\GoKit4_Demo\gagent\libgagent.a(gagent.o)	#SHT_PROGBITS,SHF_ALLOC|SHF_MERGE|SHF_STRINGS,1
	0x4303a9ae		.L.str.87
.rodata.str1.1	0x4303a9e7	0x97	G:\TEMP\GoKit4_Demo\gagent\libgagent.a(gagent.o)	#SHT_PROGBITS,SHF_ALLOC|SHF_MERGE|SHF_STRINGS,1
	0x4303a9e7		.L.str.88
.rodata.str1.1	0x4303aa7e	0x11	G:\TEMP\GoKit4_Demo\gagent\libgagent.a(gagent.o)	#SHT_PROGBITS,SHF_ALLOC|SHF_MERGE|SHF_STRINGS,1
	0x4303aa7e		.L.str.90
.rodata.str1.1	0x4303aa8f	0x12	G:\TEMP\GoKit4_Demo\gagent\libgagent.a(gagent.o)	#SHT_PROGBITS,SHF_ALLOC|SHF_MERGE|SHF_STRINGS,1
	0x4303aa8f		.L__FUNCTION__.gagentRebootTimer
.rodata.str1.1	0x4303aaa1	0x10	G:\TEMP\GoKit4_Demo\gagent\libgagent.a(gagent.o)	#SHT_PROGBITS,SHF_ALLOC|SHF_MERGE|SHF_STRINGS,1
	0x4303aaa1		.L.str.91
.rodata.str1.1	0x4303aab1	0x13	G:\TEMP\GoKit4_Demo\gagent\libgagent.a(gagent.o)	#SHT_PROGBITS,SHF_ALLOC|SHF_MERGE|SHF_STRINGS,1
	0x4303aab1		.L.str.92
.rodata.str1.1	0x4303aac4	0x12	G:\TEMP\GoKit4_Demo\gagent\libgagent.a(gagent.o)	#SHT_PROGBITS,SHF_ALLOC|SHF_MERGE|SHF_STRINGS,1
	0x4303aac4		.L.str.93
.rodata.str1.1	0x4303aad6	0x17	G:\TEMP\GoKit4_Demo\gagent\libgagent.a(gagent.o)	#SHT_PROGBITS,SHF_ALLOC|SHF_MERGE|SHF_STRINGS,1
	0x4303aad6		.L.str.94
.rodata.str1.1	0x4303aaed	0x18	G:\TEMP\GoKit4_Demo\gagent\libgagent.a(gagent.o)	#SHT_PROGBITS,SHF_ALLOC|SHF_MERGE|SHF_STRINGS,1
	0x4303aaed		.L.str.95
.rodata.str1.1	0x4303ab05	0x11	G:\TEMP\GoKit4_Demo\gagent\libgagent.a(gagent.o)	#SHT_PROGBITS,SHF_ALLOC|SHF_MERGE|SHF_STRINGS,1
	0x4303ab05		.L.str.96
.rodata.str1.1	0x4303ab16	0x13	G:\TEMP\GoKit4_Demo\gagent\libgagent.a(gagent.o)	#SHT_PROGBITS,SHF_ALLOC|SHF_MERGE|SHF_STRINGS,1
	0x4303ab16		.L.str.97
.rodata.str1.1	0x4303ab29	0x1a	G:\TEMP\GoKit4_Demo\gagent\libgagent.a(gagent.o)	#SHT_PROGBITS,SHF_ALLOC|SHF_MERGE|SHF_STRINGS,1
	0x4303ab29		.L.str.98
.rodata.str1.1	0x4303ab43	0x1b	G:\TEMP\GoKit4_Demo\gagent\libgagent.a(gagent.o)	#SHT_PROGBITS,SHF_ALLOC|SHF_MERGE|SHF_STRINGS,1
	0x4303ab43		.L.str.99
.rodata.str1.1	0x4303ab5e	0x1a	G:\TEMP\GoKit4_Demo\gagent\libgagent.a(gagent.o)	#SHT_PROGBITS,SHF_ALLOC|SHF_MERGE|SHF_STRINGS,1
	0x4303ab5e		.L.str.100
.rodata.str1.1	0x4303ab78	0x15	G:\TEMP\GoKit4_Demo\gagent\libgagent.a(gagent.o)	#SHT_PROGBITS,SHF_ALLOC|SHF_MERGE|SHF_STRINGS,1
	0x4303ab78		.L.str.101
.rodata.str1.1	0x4303ab8d	0x15	G:\TEMP\GoKit4_Demo\gagent\libgagent.a(gagent.o)	#SHT_PROGBITS,SHF_ALLOC|SHF_MERGE|SHF_STRINGS,1
	0x4303ab8d		.L.str.102
.rodata.str1.1	0x4303aba2	0x12	G:\TEMP\GoKit4_Demo\gagent\libgagent.a(gagent.o)	#SHT_PROGBITS,SHF_ALLOC|SHF_MERGE|SHF_STRINGS,1
	0x4303aba2		.L.str.103
.rodata.str1.1	0x4303abb4	0xe	G:\TEMP\GoKit4_Demo\gagent\libgagent.a(gagent.o)	#SHT_PROGBITS,SHF_ALLOC|SHF_MERGE|SHF_STRINGS,1
	0x4303abb4		.L.str.104
.rodata.str1.1	0x4303abc2	0x2d	G:\TEMP\GoKit4_Demo\gagent\libgagent.a(gagent.o)	#SHT_PROGBITS,SHF_ALLOC|SHF_MERGE|SHF_STRINGS,1
	0x4303abc2		.L.str.105
.rodata.str1.1	0x4303abef	0xd	G:\TEMP\GoKit4_Demo\gagent\libgagent.a(gagent.o)	#SHT_PROGBITS,SHF_ALLOC|SHF_MERGE|SHF_STRINGS,1
	0x4303abef		.L__FUNCTION__.gatDataRecCb
.rodata.str1.1	0x4303abfc	0x3a	G:\TEMP\GoKit4_Demo\gagent\libgagent.a(gagent.o)	#SHT_PROGBITS,SHF_ALLOC|SHF_MERGE|SHF_STRINGS,1
	0x4303abfc		.L.str.106
.rodata.str1.1	0x4303ac36	0x14	G:\TEMP\GoKit4_Demo\gagent\libgagent.a(gagent.o)	#SHT_PROGBITS,SHF_ALLOC|SHF_MERGE|SHF_STRINGS,1
	0x4303ac36		.L.str.107
.rodata.str1.1	0x4303ac4a	0xe	G:\TEMP\GoKit4_Demo\gagent\libgagent.a(gagent.o)	#SHT_PROGBITS,SHF_ALLOC|SHF_MERGE|SHF_STRINGS,1
	0x4303ac4a		.L__FUNCTION__.gatDataSendCb
.rodata.str1.1	0x4303ac58	0x18	G:\TEMP\GoKit4_Demo\gagent\libgagent.a(gagent.o)	#SHT_PROGBITS,SHF_ALLOC|SHF_MERGE|SHF_STRINGS,1
	0x4303ac58		.L.str.108
.rodata.str1.1	0x4303ac70	0x33	G:\TEMP\GoKit4_Demo\gagent\libgagent.a(gagent.o)	#SHT_PROGBITS,SHF_ALLOC|SHF_MERGE|SHF_STRINGS,1
	0x4303ac70		.L.str.109
.rodata.str1.1	0x4303aca3	0x17	G:\TEMP\GoKit4_Demo\gagent\libgagent.a(gagent.o)	#SHT_PROGBITS,SHF_ALLOC|SHF_MERGE|SHF_STRINGS,1
	0x4303aca3		.L.str.110
.rodata.str1.1	0x4303acba	0x4	G:\TEMP\GoKit4_Demo\gagent\libgagent.a(gagent.o)	#SHT_PROGBITS,SHF_ALLOC|SHF_MERGE|SHF_STRINGS,1
	0x4303acba		.L.str.111
.rodata.str1.1	0x4303acbe	0x4	G:\TEMP\GoKit4_Demo\gagent\libgagent.a(gagent.o)	#SHT_PROGBITS,SHF_ALLOC|SHF_MERGE|SHF_STRINGS,1
	0x4303acbe		.L.str.112
.rodata.str1.1	0x4303acc2	0x8	G:\TEMP\GoKit4_Demo\gagent\libgagent.a(gagent.o)	#SHT_PROGBITS,SHF_ALLOC|SHF_MERGE|SHF_STRINGS,1
	0x4303acc2		.L.str.113
.rodata.str1.1	0x4303acca	0x2d	G:\TEMP\GoKit4_Demo\gagent\libgagent.a(gagent.o)	#SHT_PROGBITS,SHF_ALLOC|SHF_MERGE|SHF_STRINGS,1
	0x4303acca		.L.str.114
.rodata.str1.1	0x4303acf7	0x15	G:\TEMP\GoKit4_Demo\gagent\libgagent.a(gagent.o)	#SHT_PROGBITS,SHF_ALLOC|SHF_MERGE|SHF_STRINGS,1
	0x4303acf7		.L.str.117
.rodata	0x4303ad0c	0x58	G:\TEMP\GoKit4_Demo\gagent\libgagent.a(gagent.o)	#SHT_PROGBITS,SHF_ALLOC,4
.rodata.str1.1	0x4303ad64	0x12	G:\TEMP\GoKit4_Demo\gagent\libgagent.a(gatm2m.o)	#SHT_PROGBITS,SHF_ALLOC|SHF_MERGE|SHF_STRINGS,1
	0x4303ad64		.L.str.2
.rodata.str1.1	0x4303ad76	0xb	G:\TEMP\GoKit4_Demo\gagent\libgagent.a(gatm2m.o)	#SHT_PROGBITS,SHF_ALLOC|SHF_MERGE|SHF_STRINGS,1
	0x4303ad76		.L__FUNCTION__.m2mInfoSet
.rodata.str1.1	0x4303ad81	0x11	G:\TEMP\GoKit4_Demo\gagent\libgagent.a(gatm2m.o)	#SHT_PROGBITS,SHF_ALLOC|SHF_MERGE|SHF_STRINGS,1
	0x4303ad81		.L.str.3
.rodata.str1.1	0x4303ad92	0x11	G:\TEMP\GoKit4_Demo\gagent\libgagent.a(gatm2m.o)	#SHT_PROGBITS,SHF_ALLOC|SHF_MERGE|SHF_STRINGS,1
	0x4303ad92		.L.str.4
.rodata.str1.1	0x4303ada3	0x11	G:\TEMP\GoKit4_Demo\gagent\libgagent.a(gatm2m.o)	#SHT_PROGBITS,SHF_ALLOC|SHF_MERGE|SHF_STRINGS,1
	0x4303ada3		.L.str.5
.rodata.str1.1	0x4303adb4	0x1c	G:\TEMP\GoKit4_Demo\gagent\libgagent.a(gatm2m.o)	#SHT_PROGBITS,SHF_ALLOC|SHF_MERGE|SHF_STRINGS,1
	0x4303adb4		.L.str.6
.rodata.str1.1	0x4303add0	0x17	G:\TEMP\GoKit4_Demo\gagent\libgagent.a(gatm2m.o)	#SHT_PROGBITS,SHF_ALLOC|SHF_MERGE|SHF_STRINGS,1
	0x4303add0		.L.str.7
.rodata.str1.1	0x4303ade7	0x1d	G:\TEMP\GoKit4_Demo\gagent\libgagent.a(gatm2m.o)	#SHT_PROGBITS,SHF_ALLOC|SHF_MERGE|SHF_STRINGS,1
	0x4303ade7		.L.str.8
.rodata.str1.1	0x4303ae04	0x1b	G:\TEMP\GoKit4_Demo\gagent\libgagent.a(gatm2m.o)	#SHT_PROGBITS,SHF_ALLOC|SHF_MERGE|SHF_STRINGS,1
	0x4303ae04		.L.str.9
.rodata.str1.1	0x4303ae1f	0x1d	G:\TEMP\GoKit4_Demo\gagent\libgagent.a(gatm2m.o)	#SHT_PROGBITS,SHF_ALLOC|SHF_MERGE|SHF_STRINGS,1
	0x4303ae1f		.L.str.10
.rodata.str1.1	0x4303ae3c	0x1e	G:\TEMP\GoKit4_Demo\gagent\libgagent.a(gatm2m.o)	#SHT_PROGBITS,SHF_ALLOC|SHF_MERGE|SHF_STRINGS,1
	0x4303ae3c		.L.str.11
.rodata.str1.1	0x4303ae5a	0x19	G:\TEMP\GoKit4_Demo\gagent\libgagent.a(gatm2m.o)	#SHT_PROGBITS,SHF_ALLOC|SHF_MERGE|SHF_STRINGS,1
	0x4303ae5a		.L.str.12
.rodata.str1.1	0x4303ae73	0xc	G:\TEMP\GoKit4_Demo\gagent\libgagent.a(gatm2m.o)	#SHT_PROGBITS,SHF_ALLOC|SHF_MERGE|SHF_STRINGS,1
	0x4303ae73		.L__FUNCTION__.m2mSktRecCb
.rodata.str1.1	0x4303ae7f	0x23	G:\TEMP\GoKit4_Demo\gagent\libgagent.a(gatm2m.o)	#SHT_PROGBITS,SHF_ALLOC|SHF_MERGE|SHF_STRINGS,1
	0x4303ae7f		.L.str.13
.rodata.str1.1	0x4303aea2	0xd	G:\TEMP\GoKit4_Demo\gagent\libgagent.a(gatm2m.o)	#SHT_PROGBITS,SHF_ALLOC|SHF_MERGE|SHF_STRINGS,1
	0x4303aea2		.L.str.14
.rodata.str1.1	0x4303aeaf	0xd	G:\TEMP\GoKit4_Demo\gagent\libgagent.a(gatm2m.o)	#SHT_PROGBITS,SHF_ALLOC|SHF_MERGE|SHF_STRINGS,1
	0x4303aeaf		.L__FUNCTION__.m2mSktConnCb
.rodata.str1.1	0x4303aebc	0x2d	G:\TEMP\GoKit4_Demo\gagent\libgagent.a(gatm2m.o)	#SHT_PROGBITS,SHF_ALLOC|SHF_MERGE|SHF_STRINGS,1
	0x4303aebc		.L.str.15
.rodata.str1.1	0x4303aee9	0x29	G:\TEMP\GoKit4_Demo\gagent\libgagent.a(gatm2m.o)	#SHT_PROGBITS,SHF_ALLOC|SHF_MERGE|SHF_STRINGS,1
	0x4303aee9		.L.str.16
.rodata.str1.1	0x4303af12	0x38	G:\TEMP\GoKit4_Demo\gagent\libgagent.a(gatm2m.o)	#SHT_PROGBITS,SHF_ALLOC|SHF_MERGE|SHF_STRINGS,1
	0x4303af12		.L.str.17
.rodata.str1.1	0x4303af4a	0x35	G:\TEMP\GoKit4_Demo\gagent\libgagent.a(gatm2m.o)	#SHT_PROGBITS,SHF_ALLOC|SHF_MERGE|SHF_STRINGS,1
	0x4303af4a		.L.str.18
.rodata.str1.1	0x4303af7f	0xc	G:\TEMP\GoKit4_Demo\gagent\libgagent.a(gatm2m.o)	#SHT_PROGBITS,SHF_ALLOC|SHF_MERGE|SHF_STRINGS,1
	0x4303af7f		.L.str.19
.rodata.str1.1	0x4303af8b	0x2d	G:\TEMP\GoKit4_Demo\gagent\libgagent.a(gatm2m.o)	#SHT_PROGBITS,SHF_ALLOC|SHF_MERGE|SHF_STRINGS,1
	0x4303af8b		.L.str.20
.rodata.str1.1	0x4303afb8	0xe	G:\TEMP\GoKit4_Demo\gagent\libgagent.a(gatm2m.o)	#SHT_PROGBITS,SHF_ALLOC|SHF_MERGE|SHF_STRINGS,1
	0x4303afb8		.L.str.21
.rodata.str1.1	0x4303afc6	0x10	G:\TEMP\GoKit4_Demo\gagent\libgagent.a(gatm2m.o)	#SHT_PROGBITS,SHF_ALLOC|SHF_MERGE|SHF_STRINGS,1
	0x4303afc6		.L__FUNCTION__.gatSetM2MDomain
.rodata.str1.1	0x4303afd6	0xf	G:\TEMP\GoKit4_Demo\gagent\libgagent.a(gatm2m.o)	#SHT_PROGBITS,SHF_ALLOC|SHF_MERGE|SHF_STRINGS,1
	0x4303afd6		.L.str.22
.rodata.str1.1	0x4303afe5	0xe	G:\TEMP\GoKit4_Demo\gagent\libgagent.a(gatm2m.o)	#SHT_PROGBITS,SHF_ALLOC|SHF_MERGE|SHF_STRINGS,1
	0x4303afe5		.L__FUNCTION__.gatSetM2MPort
.rodata.str1.1	0x4303aff3	0x12	G:\TEMP\GoKit4_Demo\gagent\libgagent.a(gatm2m.o)	#SHT_PROGBITS,SHF_ALLOC|SHF_MERGE|SHF_STRINGS,1
	0x4303aff3		.L.str.23
.rodata.str1.1	0x4303b005	0x1a	G:\TEMP\GoKit4_Demo\gagent\libgagent.a(gatm2m.o)	#SHT_PROGBITS,SHF_ALLOC|SHF_MERGE|SHF_STRINGS,1
	0x4303b005		.L.str.24
.rodata.str1.1	0x4303b01f	0x15	G:\TEMP\GoKit4_Demo\gagent\libgagent.a(gatm2m.o)	#SHT_PROGBITS,SHF_ALLOC|SHF_MERGE|SHF_STRINGS,1
	0x4303b01f		.L.str.25
.rodata.str1.1	0x4303b034	0xd	G:\TEMP\GoKit4_Demo\gagent\libgagent.a(gatm2m.o)	#SHT_PROGBITS,SHF_ALLOC|SHF_MERGE|SHF_STRINGS,1
	0x4303b034		.L__FUNCTION__.onM2MLoginCb
.rodata.str1.1	0x4303b041	0x38	G:\TEMP\GoKit4_Demo\gagent\libgagent.a(gatm2m.o)	#SHT_PROGBITS,SHF_ALLOC|SHF_MERGE|SHF_STRINGS,1
	0x4303b041		.L.str.26
.rodata.str1.1	0x4303b079	0xf	G:\TEMP\GoKit4_Demo\gagent\libgagent.a(gatm2m.o)	#SHT_PROGBITS,SHF_ALLOC|SHF_MERGE|SHF_STRINGS,1
	0x4303b079		.L.str.27
.rodata.str1.1	0x4303b088	0xd	G:\TEMP\GoKit4_Demo\gagent\libgagent.a(gatm2m.o)	#SHT_PROGBITS,SHF_ALLOC|SHF_MERGE|SHF_STRINGS,1
	0x4303b088		.L.str.28
.rodata.str1.1	0x4303b095	0x1d	G:\TEMP\GoKit4_Demo\gagent\libgagent.a(gatm2m.o)	#SHT_PROGBITS,SHF_ALLOC|SHF_MERGE|SHF_STRINGS,1
	0x4303b095		.L.str.29
.rodata.str1.1	0x4303b0b2	0x20	G:\TEMP\GoKit4_Demo\gagent\libgagent.a(gatm2m.o)	#SHT_PROGBITS,SHF_ALLOC|SHF_MERGE|SHF_STRINGS,1
	0x4303b0b2		.L.str.30
.rodata.str1.1	0x4303b0d2	0x20	G:\TEMP\GoKit4_Demo\gagent\libgagent.a(gatm2m.o)	#SHT_PROGBITS,SHF_ALLOC|SHF_MERGE|SHF_STRINGS,1
	0x4303b0d2		.L.str.31
.rodata.str1.1	0x4303b0f2	0x10	G:\TEMP\GoKit4_Demo\gagent\libgagent.a(gatm2m.o)	#SHT_PROGBITS,SHF_ALLOC|SHF_MERGE|SHF_STRINGS,1
	0x4303b0f2		.L__FUNCTION__.onM2MSubTopicCb
.rodata.str1.1	0x4303b102	0x16	G:\TEMP\GoKit4_Demo\gagent\libgagent.a(gatm2m.o)	#SHT_PROGBITS,SHF_ALLOC|SHF_MERGE|SHF_STRINGS,1
	0x4303b102		.L.str.32
.rodata.str1.1	0x4303b118	0xe	G:\TEMP\GoKit4_Demo\gagent\libgagent.a(gatm2m.o)	#SHT_PROGBITS,SHF_ALLOC|SHF_MERGE|SHF_STRINGS,1
	0x4303b118		.L.str.33
.rodata.str1.1	0x4303b126	0x1f	G:\TEMP\GoKit4_Demo\gagent\libgagent.a(gatm2m.o)	#SHT_PROGBITS,SHF_ALLOC|SHF_MERGE|SHF_STRINGS,1
	0x4303b126		.L.str.37
.rodata.str1.1	0x4303b145	0x24	G:\TEMP\GoKit4_Demo\gagent\libgagent.a(gatm2m.o)	#SHT_PROGBITS,SHF_ALLOC|SHF_MERGE|SHF_STRINGS,1
	0x4303b145		.L.str.43
.rodata.str1.1	0x4303b169	0x13	G:\TEMP\GoKit4_Demo\gagent\libgagent.a(gatm2m.o)	#SHT_PROGBITS,SHF_ALLOC|SHF_MERGE|SHF_STRINGS,1
	0x4303b169		.L__FUNCTION__.onM2MUserDataRecCb
.rodata.str1.1	0x4303b17c	0x15	G:\TEMP\GoKit4_Demo\gagent\libgagent.a(gatm2m.o)	#SHT_PROGBITS,SHF_ALLOC|SHF_MERGE|SHF_STRINGS,1
	0x4303b17c		.L.str.44
.rodata.str1.1	0x4303b191	0xd	G:\TEMP\GoKit4_Demo\gagent\libgagent.a(gatm2m.o)	#SHT_PROGBITS,SHF_ALLOC|SHF_MERGE|SHF_STRINGS,1
	0x4303b191		.L.str.45
.rodata.str1.1	0x4303b19e	0x11	G:\TEMP\GoKit4_Demo\gagent\libgagent.a(gatm2m.o)	#SHT_PROGBITS,SHF_ALLOC|SHF_MERGE|SHF_STRINGS,1
	0x4303b19e		.L__FUNCTION__.onM2MHeartBeatCb
.rodata.str1.1	0x4303b1af	0x1f	G:\TEMP\GoKit4_Demo\gagent\libgagent.a(gatm2m.o)	#SHT_PROGBITS,SHF_ALLOC|SHF_MERGE|SHF_STRINGS,1
	0x4303b1af		.L.str.46
.rodata.str1.1	0x4303b1ce	0x11	G:\TEMP\GoKit4_Demo\gagent\libgagent.a(gatm2m.o)	#SHT_PROGBITS,SHF_ALLOC|SHF_MERGE|SHF_STRINGS,1
	0x4303b1ce		.L__FUNCTION__.onAppOnLineNumCb
.rodata.str1.1	0x4303b1df	0x28	G:\TEMP\GoKit4_Demo\gagent\libgagent.a(gatm2m.o)	#SHT_PROGBITS,SHF_ALLOC|SHF_MERGE|SHF_STRINGS,1
	0x4303b1df		.L.str.47
.rodata.str1.1	0x4303b207	0x20	G:\TEMP\GoKit4_Demo\gagent\libgagent.a(gatm2m.o)	#SHT_PROGBITS,SHF_ALLOC|SHF_MERGE|SHF_STRINGS,1
	0x4303b207		.L.str.48
.rodata.str1.1	0x4303b227	0x1e	G:\TEMP\GoKit4_Demo\gagent\libgagent.a(gatm2m.o)	#SHT_PROGBITS,SHF_ALLOC|SHF_MERGE|SHF_STRINGS,1
	0x4303b227		.L.str.49
.rodata.str1.1	0x4303b245	0x17	G:\TEMP\GoKit4_Demo\gagent\libgagent.a(gatm2m.o)	#SHT_PROGBITS,SHF_ALLOC|SHF_MERGE|SHF_STRINGS,1
	0x4303b245		.L.str.50
.rodata.str1.1	0x4303b25c	0x11	G:\TEMP\GoKit4_Demo\gagent\libgagent.a(gatm2m.o)	#SHT_PROGBITS,SHF_ALLOC|SHF_MERGE|SHF_STRINGS,1
	0x4303b25c		.L.str.51
.rodata.str1.1	0x4303b26d	0x14	G:\TEMP\GoKit4_Demo\gagent\libgagent.a(gatm2m.o)	#SHT_PROGBITS,SHF_ALLOC|SHF_MERGE|SHF_STRINGS,1
	0x4303b26d		.L__FUNCTION__.onOTA41EventNoticCb
.rodata.str1.1	0x4303b281	0x1e	G:\TEMP\GoKit4_Demo\gagent\libgagent.a(gatm2m.o)	#SHT_PROGBITS,SHF_ALLOC|SHF_MERGE|SHF_STRINGS,1
	0x4303b281		.L.str.52
.rodata.str1.1	0x4303b29f	0x30	G:\TEMP\GoKit4_Demo\gagent\libgagent.a(gatm2m.o)	#SHT_PROGBITS,SHF_ALLOC|SHF_MERGE|SHF_STRINGS,1
	0x4303b29f		.L.str.53
.rodata.str1.1	0x4303b2cf	0x1b	G:\TEMP\GoKit4_Demo\gagent\libgagent.a(gatm2m.o)	#SHT_PROGBITS,SHF_ALLOC|SHF_MERGE|SHF_STRINGS,1
	0x4303b2cf		.L.str.54
.rodata.str1.1	0x4303b2ea	0x1f	G:\TEMP\GoKit4_Demo\gagent\libgagent.a(gatm2m.o)	#SHT_PROGBITS,SHF_ALLOC|SHF_MERGE|SHF_STRINGS,1
	0x4303b2ea		.L.str.55
.rodata.str1.1	0x4303b309	0x20	G:\TEMP\GoKit4_Demo\gagent\libgagent.a(gatm2m.o)	#SHT_PROGBITS,SHF_ALLOC|SHF_MERGE|SHF_STRINGS,1
	0x4303b309		.L.str.56
.rodata.str1.1	0x4303b329	0x38	G:\TEMP\GoKit4_Demo\gagent\libgagent.a(gatm2m.o)	#SHT_PROGBITS,SHF_ALLOC|SHF_MERGE|SHF_STRINGS,1
	0x4303b329		.L.str.57
.rodata.str1.1	0x4303b361	0x7	G:\TEMP\GoKit4_Demo\gagent\libgagent.a(gatm2m.o)	#SHT_PROGBITS,SHF_ALLOC|SHF_MERGE|SHF_STRINGS,1
	0x4303b361		.L.str.58
.rodata.str1.1	0x4303b368	0x8	G:\TEMP\GoKit4_Demo\gagent\libgagent.a(gatm2m.o)	#SHT_PROGBITS,SHF_ALLOC|SHF_MERGE|SHF_STRINGS,1
	0x4303b368		.L.str.59
.rodata.str1.1	0x4303b370	0x6	G:\TEMP\GoKit4_Demo\gagent\libgagent.a(gatm2m.o)	#SHT_PROGBITS,SHF_ALLOC|SHF_MERGE|SHF_STRINGS,1
	0x4303b370		.L.str.60
.rodata.str1.1	0x4303b376	0x6	G:\TEMP\GoKit4_Demo\gagent\libgagent.a(gatm2m.o)	#SHT_PROGBITS,SHF_ALLOC|SHF_MERGE|SHF_STRINGS,1
	0x4303b376		.L.str.61
.rodata.str1.1	0x4303b37c	0x1f	G:\TEMP\GoKit4_Demo\gagent\libgagent.a(gatm2m.o)	#SHT_PROGBITS,SHF_ALLOC|SHF_MERGE|SHF_STRINGS,1
	0x4303b37c		.L.str.62
.rodata.str1.1	0x4303b39b	0x2f	G:\TEMP\GoKit4_Demo\gagent\libgagent.a(gatm2m.o)	#SHT_PROGBITS,SHF_ALLOC|SHF_MERGE|SHF_STRINGS,1
	0x4303b39b		.L.str.63
.rodata.str1.1	0x4303b3ca	0x13	G:\TEMP\GoKit4_Demo\gagent\libgagent.a(gatm2m.o)	#SHT_PROGBITS,SHF_ALLOC|SHF_MERGE|SHF_STRINGS,1
	0x4303b3ca		.L__FUNCTION__.onOTA4EventNoticCb
.rodata.str1.1	0x4303b3dd	0x1a	G:\TEMP\GoKit4_Demo\gagent\libgagent.a(gatm2m.o)	#SHT_PROGBITS,SHF_ALLOC|SHF_MERGE|SHF_STRINGS,1
	0x4303b3dd		.L.str.64
.rodata.str1.1	0x4303b3f7	0x10	G:\TEMP\GoKit4_Demo\gagent\libgagent.a(gatm2m.o)	#SHT_PROGBITS,SHF_ALLOC|SHF_MERGE|SHF_STRINGS,1
	0x4303b3f7		.L__FUNCTION__.cloudSendDataCb
.rodata.str1.1	0x4303b407	0x14	G:\TEMP\GoKit4_Demo\gagent\libgagent.a(gatm2m.o)	#SHT_PROGBITS,SHF_ALLOC|SHF_MERGE|SHF_STRINGS,1
	0x4303b407		.L.str.65
.rodata.str1.1	0x4303b41b	0xd	G:\TEMP\GoKit4_Demo\gagent\libgagent.a(gatm2m.o)	#SHT_PROGBITS,SHF_ALLOC|SHF_MERGE|SHF_STRINGS,1
	0x4303b41b		.L__FUNCTION__.gatM2MReInit
.rodata.str1.1	0x4303b428	0x24	G:\TEMP\GoKit4_Demo\gagent\libgagent.a(gatm2m.o)	#SHT_PROGBITS,SHF_ALLOC|SHF_MERGE|SHF_STRINGS,1
	0x4303b428		.L.str.66
.rodata.str1.1	0x4303b44c	0x10	G:\TEMP\GoKit4_Demo\gagent\libgagent.a(gatm2m.o)	#SHT_PROGBITS,SHF_ALLOC|SHF_MERGE|SHF_STRINGS,1
	0x4303b44c		.L.str.67
.rodata.str1.1	0x4303b45c	0xe	G:\TEMP\GoKit4_Demo\gagent\libgagent.a(gatm2m.o)	#SHT_PROGBITS,SHF_ALLOC|SHF_MERGE|SHF_STRINGS,1
	0x4303b45c		.L.str.68
.rodata.str1.1	0x4303b46a	0x11	G:\TEMP\GoKit4_Demo\gagent\libgagent.a(gatm2m.o)	#SHT_PROGBITS,SHF_ALLOC|SHF_MERGE|SHF_STRINGS,1
	0x4303b46a		.L__FUNCTION__.gatM2MServerStop
.rodata.str1.1	0x4303b47b	0x23	G:\TEMP\GoKit4_Demo\gagent\libgagent.a(gatm2m.o)	#SHT_PROGBITS,SHF_ALLOC|SHF_MERGE|SHF_STRINGS,1
	0x4303b47b		.L.str.69
.rodata.str1.1	0x4303b49e	0x14	G:\TEMP\GoKit4_Demo\gagent\libgagent.a(gatm2m.o)	#SHT_PROGBITS,SHF_ALLOC|SHF_MERGE|SHF_STRINGS,1
	0x4303b49e		.L__FUNCTION__.gatM2MReStartServer
.rodata.str1.1	0x4303b4b2	0x4d	G:\TEMP\GoKit4_Demo\gagent\libgagent.a(gatm2m.o)	#SHT_PROGBITS,SHF_ALLOC|SHF_MERGE|SHF_STRINGS,1
	0x4303b4b2		.L.str.70
.rodata.str1.1	0x4303b4ff	0x12	G:\TEMP\GoKit4_Demo\gagent\libgagent.a(gatm2m.o)	#SHT_PROGBITS,SHF_ALLOC|SHF_MERGE|SHF_STRINGS,1
	0x4303b4ff		.L.str.71
.rodata.str1.1	0x4303b511	0xd	G:\TEMP\GoKit4_Demo\gagent\libgagent.a(gatm2m.o)	#SHT_PROGBITS,SHF_ALLOC|SHF_MERGE|SHF_STRINGS,1
	0x4303b511		.L.str.72
.rodata.str1.1	0x4303b51e	0x10	G:\TEMP\GoKit4_Demo\gagent\libgagent.a(gatm2m.o)	#SHT_PROGBITS,SHF_ALLOC|SHF_MERGE|SHF_STRINGS,1
	0x4303b51e		.L__FUNCTION__.gatResCloudCtrl
.rodata.str1.1	0x4303b52e	0x12	G:\TEMP\GoKit4_Demo\gagent\libgagent.a(gatm2m.o)	#SHT_PROGBITS,SHF_ALLOC|SHF_MERGE|SHF_STRINGS,1
	0x4303b52e		.L.str.73
.rodata.str1.1	0x4303b540	0x10	G:\TEMP\GoKit4_Demo\gagent\libgagent.a(gatm2m.o)	#SHT_PROGBITS,SHF_ALLOC|SHF_MERGE|SHF_STRINGS,1
	0x4303b540		.L.str.74
.rodata.str1.1	0x4303b550	0x12	G:\TEMP\GoKit4_Demo\gagent\libgagent.a(gatm2m.o)	#SHT_PROGBITS,SHF_ALLOC|SHF_MERGE|SHF_STRINGS,1
	0x4303b550		.L.str.75
.rodata.str1.1	0x4303b562	0xf	G:\TEMP\GoKit4_Demo\gagent\libgagent.a(gatm2m.o)	#SHT_PROGBITS,SHF_ALLOC|SHF_MERGE|SHF_STRINGS,1
	0x4303b562		.L.str.76
.rodata.str1.1	0x4303b571	0xf	G:\TEMP\GoKit4_Demo\gagent\libgagent.a(gatm2m.o)	#SHT_PROGBITS,SHF_ALLOC|SHF_MERGE|SHF_STRINGS,1
	0x4303b571		.L.str.77
.rodata.str1.1	0x4303b580	0xe	G:\TEMP\GoKit4_Demo\gagent\libgagent.a(gatm2m.o)	#SHT_PROGBITS,SHF_ALLOC|SHF_MERGE|SHF_STRINGS,1
	0x4303b580		.L__FUNCTION__.gatM2MCommand
.rodata.str1.1	0x4303b58e	0x3b	G:\TEMP\GoKit4_Demo\gagent\libgagent.a(gatm2m.o)	#SHT_PROGBITS,SHF_ALLOC|SHF_MERGE|SHF_STRINGS,1
	0x4303b58e		.L.str.79
.rodata.str1.1	0x4303b5c9	0x38	G:\TEMP\GoKit4_Demo\gagent\libgagent.a(gatm2m.o)	#SHT_PROGBITS,SHF_ALLOC|SHF_MERGE|SHF_STRINGS,1
	0x4303b5c9		.L.str.80
.rodata.str1.1	0x4303b601	0x3b	G:\TEMP\GoKit4_Demo\gagent\libgagent.a(gatm2m.o)	#SHT_PROGBITS,SHF_ALLOC|SHF_MERGE|SHF_STRINGS,1
	0x4303b601		.L.str.81
.rodata.str1.1	0x4303b63c	0x3e	G:\TEMP\GoKit4_Demo\gagent\libgagent.a(gatm2m.o)	#SHT_PROGBITS,SHF_ALLOC|SHF_MERGE|SHF_STRINGS,1
	0x4303b63c		.L.str.82
.rodata.str1.1	0x4303b67a	0x2e	G:\TEMP\GoKit4_Demo\gagent\libgagent.a(gatm2m.o)	#SHT_PROGBITS,SHF_ALLOC|SHF_MERGE|SHF_STRINGS,1
	0x4303b67a		.L.str.83
.rodata.str1.1	0x4303b6a8	0x8	G:\TEMP\GoKit4_Demo\gagent\libgagent.a(gatm2m.o)	#SHT_PROGBITS,SHF_ALLOC|SHF_MERGE|SHF_STRINGS,1
	0x4303b6a8		.L__FUNCTION__.m2mSend
.rodata.str1.1	0x4303b6b0	0x25	G:\TEMP\GoKit4_Demo\gagent\libgagent.a(gatm2m.o)	#SHT_PROGBITS,SHF_ALLOC|SHF_MERGE|SHF_STRINGS,1
	0x4303b6b0		.L.str.84
.rodata.str1.1	0x4303b6d5	0x16	G:\TEMP\GoKit4_Demo\gagent\libgagent.a(gatm2m.o)	#SHT_PROGBITS,SHF_ALLOC|SHF_MERGE|SHF_STRINGS,1
	0x4303b6d5		.L__FUNCTION__.gatM2MHandleGatStatus
.rodata.str1.1	0x4303b6eb	0x22	G:\TEMP\GoKit4_Demo\gagent\libgagent.a(gatm2m.o)	#SHT_PROGBITS,SHF_ALLOC|SHF_MERGE|SHF_STRINGS,1
	0x4303b6eb		.L.str.85
.rodata.str1.1	0x4303b70d	0x1e	G:\TEMP\GoKit4_Demo\gagent\libgagent.a(gatm2m.o)	#SHT_PROGBITS,SHF_ALLOC|SHF_MERGE|SHF_STRINGS,1
	0x4303b70d		.L.str.86
.rodata.str1.1	0x4303b72b	0x21	G:\TEMP\GoKit4_Demo\gagent\libgagent.a(gatm2m.o)	#SHT_PROGBITS,SHF_ALLOC|SHF_MERGE|SHF_STRINGS,1
	0x4303b72b		.L.str.87
.rodata.str1.1	0x4303b74c	0xc	G:\TEMP\GoKit4_Demo\gagent\libgagent.a(gatm2m.o)	#SHT_PROGBITS,SHF_ALLOC|SHF_MERGE|SHF_STRINGS,1
	0x4303b74c		.L__FUNCTION__.gatm2mDnsCb
.rodata.str1.1	0x4303b758	0x25	G:\TEMP\GoKit4_Demo\gagent\libgagent.a(gatm2m.o)	#SHT_PROGBITS,SHF_ALLOC|SHF_MERGE|SHF_STRINGS,1
	0x4303b758		.L.str.88
.rodata.str1.1	0x4303b77d	0x33	G:\TEMP\GoKit4_Demo\gagent\libgagent.a(gatm2m.o)	#SHT_PROGBITS,SHF_ALLOC|SHF_MERGE|SHF_STRINGS,1
	0x4303b77d		.L.str.89
.rodata.str1.1	0x4303b7b0	0x38	G:\TEMP\GoKit4_Demo\gagent\libgagent.a(gatnet.o)	#SHT_PROGBITS,SHF_ALLOC|SHF_MERGE|SHF_STRINGS,1
	0x4303b7b0		.L.str.2
.rodata.str1.1	0x4303b7e8	0x15	G:\TEMP\GoKit4_Demo\gagent\libgagent.a(gatnet.o)	#SHT_PROGBITS,SHF_ALLOC|SHF_MERGE|SHF_STRINGS,1
	0x4303b7e8		.L__FUNCTION__.gatRouterConnTimeout
.rodata.str1.1	0x4303b7fd	0x17	G:\TEMP\GoKit4_Demo\gagent\libgagent.a(gatnet.o)	#SHT_PROGBITS,SHF_ALLOC|SHF_MERGE|SHF_STRINGS,1
	0x4303b7fd		.L.str.3
.rodata.str1.1	0x4303b814	0x2	G:\TEMP\GoKit4_Demo\gagent\libgagent.a(gatnet.o)	#SHT_PROGBITS,SHF_ALLOC|SHF_MERGE|SHF_STRINGS,1
	0x4303b814		.L.str.4
.rodata.str1.1	0x4303b816	0x27	G:\TEMP\GoKit4_Demo\gagent\libgagent.a(gatnet.o)	#SHT_PROGBITS,SHF_ALLOC|SHF_MERGE|SHF_STRINGS,1
	0x4303b816		.L.str.5
.rodata.str1.1	0x4303b83d	0x2	G:\TEMP\GoKit4_Demo\gagent\libgagent.a(gatnet.o)	#SHT_PROGBITS,SHF_ALLOC|SHF_MERGE|SHF_STRINGS,1
	0x4303b83d		.L.str.6
.rodata.str1.1	0x4303b83f	0x29	G:\TEMP\GoKit4_Demo\gagent\libgagent.a(gatnet.o)	#SHT_PROGBITS,SHF_ALLOC|SHF_MERGE|SHF_STRINGS,1
	0x4303b83f		.L.str.7
.rodata.str1.1	0x4303b868	0x24	G:\TEMP\GoKit4_Demo\gagent\libgagent.a(gatnet.o)	#SHT_PROGBITS,SHF_ALLOC|SHF_MERGE|SHF_STRINGS,1
	0x4303b868		.L.str.8
.rodata.str1.1	0x4303b88c	0x2b	G:\TEMP\GoKit4_Demo\gagent\libgagent.a(gatnet.o)	#SHT_PROGBITS,SHF_ALLOC|SHF_MERGE|SHF_STRINGS,1
	0x4303b88c		.L.str.9
.rodata.str1.1	0x4303b8b7	0x12	G:\TEMP\GoKit4_Demo\gagent\libgagent.a(gatnet.o)	#SHT_PROGBITS,SHF_ALLOC|SHF_MERGE|SHF_STRINGS,1
	0x4303b8b7		.L__FUNCTION__.gatNetEventHandle
.rodata.str1.1	0x4303b8c9	0xc	G:\TEMP\GoKit4_Demo\gagent\libgagent.a(gatnet.o)	#SHT_PROGBITS,SHF_ALLOC|SHF_MERGE|SHF_STRINGS,1
	0x4303b8c9		.L.str.10
.rodata.str1.1	0x4303b8d5	0x30	G:\TEMP\GoKit4_Demo\gagent\libgagent.a(gatnet.o)	#SHT_PROGBITS,SHF_ALLOC|SHF_MERGE|SHF_STRINGS,1
	0x4303b8d5		.L.str.11
.rodata.str1.1	0x4303b905	0x31	G:\TEMP\GoKit4_Demo\gagent\libgagent.a(gatnet.o)	#SHT_PROGBITS,SHF_ALLOC|SHF_MERGE|SHF_STRINGS,1
	0x4303b905		.L.str.12
.rodata.str1.1	0x4303b936	0x1e	G:\TEMP\GoKit4_Demo\gagent\libgagent.a(gatnet.o)	#SHT_PROGBITS,SHF_ALLOC|SHF_MERGE|SHF_STRINGS,1
	0x4303b936		.L.str.13
.rodata.str1.1	0x4303b954	0xb	G:\TEMP\GoKit4_Demo\gagent\libgagent.a(gatnet.o)	#SHT_PROGBITS,SHF_ALLOC|SHF_MERGE|SHF_STRINGS,1
	0x4303b954		.L__FUNCTION__.gatNetInit
.rodata.str1.1	0x4303b95f	0x3c	G:\TEMP\GoKit4_Demo\gagent\libgagent.a(gatnet.o)	#SHT_PROGBITS,SHF_ALLOC|SHF_MERGE|SHF_STRINGS,1
	0x4303b95f		.L.str.15
.rodata.str1.1	0x4303b99b	0x1b	G:\TEMP\GoKit4_Demo\gagent\libgagent.a(gatnet.o)	#SHT_PROGBITS,SHF_ALLOC|SHF_MERGE|SHF_STRINGS,1
	0x4303b99b		.L.str.16
.rodata.str1.1	0x4303b9b6	0x27	G:\TEMP\GoKit4_Demo\gagent\libgagent.a(gatnet.o)	#SHT_PROGBITS,SHF_ALLOC|SHF_MERGE|SHF_STRINGS,1
	0x4303b9b6		.L.str.17
.rodata.str1.1	0x4303b9dd	0xd	G:\TEMP\GoKit4_Demo\gagent\libgagent.a(gatnet.o)	#SHT_PROGBITS,SHF_ALLOC|SHF_MERGE|SHF_STRINGS,1
	0x4303b9dd		.L__FUNCTION__.gatAirlinkCb
.rodata.str1.1	0x4303b9ea	0x1d	G:\TEMP\GoKit4_Demo\gagent\libgagent.a(gatnet.o)	#SHT_PROGBITS,SHF_ALLOC|SHF_MERGE|SHF_STRINGS,1
	0x4303b9ea		.L.str.19
.rodata.str1.1	0x4303ba07	0xd	G:\TEMP\GoKit4_Demo\gagent\libgagent.a(gatnet.o)	#SHT_PROGBITS,SHF_ALLOC|SHF_MERGE|SHF_STRINGS,1
	0x4303ba07		.L__FUNCTION__.gatNetConfig
.rodata.str1.1	0x4303ba14	0xe	G:\TEMP\GoKit4_Demo\gagent\libgagent.a(gatnet.o)	#SHT_PROGBITS,SHF_ALLOC|SHF_MERGE|SHF_STRINGS,1
	0x4303ba14		.L.str.20
.rodata.str1.1	0x4303ba22	0xe	G:\TEMP\GoKit4_Demo\gagent\libgagent.a(gatnet.o)	#SHT_PROGBITS,SHF_ALLOC|SHF_MERGE|SHF_STRINGS,1
	0x4303ba22		.L.str.21
.rodata.str1.1	0x4303ba30	0x1e	G:\TEMP\GoKit4_Demo\gagent\libgagent.a(gatnet.o)	#SHT_PROGBITS,SHF_ALLOC|SHF_MERGE|SHF_STRINGS,1
	0x4303ba30		.L.str.22
.rodata.str1.1	0x4303ba4e	0x21	G:\TEMP\GoKit4_Demo\gagent\libgagent.a(gatnet.o)	#SHT_PROGBITS,SHF_ALLOC|SHF_MERGE|SHF_STRINGS,1
	0x4303ba4e		.L.str.23
.rodata.str1.1	0x4303ba6f	0x12	G:\TEMP\GoKit4_Demo\gagent\libgagent.a(gatnet.o)	#SHT_PROGBITS,SHF_ALLOC|SHF_MERGE|SHF_STRINGS,1
	0x4303ba6f		.L__FUNCTION__.gatNetWriteConfig
.rodata.str1.1	0x4303ba81	0x1b	G:\TEMP\GoKit4_Demo\gagent\libgagent.a(gatnet.o)	#SHT_PROGBITS,SHF_ALLOC|SHF_MERGE|SHF_STRINGS,1
	0x4303ba81		.L.str.24
.rodata.str1.1	0x4303ba9c	0x1e	G:\TEMP\GoKit4_Demo\gagent\libgagent.a(gatnet.o)	#SHT_PROGBITS,SHF_ALLOC|SHF_MERGE|SHF_STRINGS,1
	0x4303ba9c		.L.str.25
.rodata.str1.1	0x4303baba	0x29	G:\TEMP\GoKit4_Demo\gagent\libgagent.a(gatnet.o)	#SHT_PROGBITS,SHF_ALLOC|SHF_MERGE|SHF_STRINGS,1
	0x4303baba		.L.str.26
.rodata.str1.1	0x4303bae3	0x26	G:\TEMP\GoKit4_Demo\gagent\libgagent.a(gatnet.o)	#SHT_PROGBITS,SHF_ALLOC|SHF_MERGE|SHF_STRINGS,1
	0x4303bae3		.L.str.27
.rodata.str1.1	0x4303bb09	0x2d	G:\TEMP\GoKit4_Demo\gagent\libgagent.a(gatnet.o)	#SHT_PROGBITS,SHF_ALLOC|SHF_MERGE|SHF_STRINGS,1
	0x4303bb09		.L.str.28
.rodata.str1.1	0x4303bb36	0x1e	G:\TEMP\GoKit4_Demo\gagent\libgagent.a(gatnet.o)	#SHT_PROGBITS,SHF_ALLOC|SHF_MERGE|SHF_STRINGS,1
	0x4303bb36		.L.str.29
.rodata.str1.1	0x4303bb54	0xd	G:\TEMP\GoKit4_Demo\gagent\libgagent.a(gatnet.o)	#SHT_PROGBITS,SHF_ALLOC|SHF_MERGE|SHF_STRINGS,1
	0x4303bb54		.L.str.30
.rodata.str1.1	0x4303bb61	0x22	G:\TEMP\GoKit4_Demo\gagent\libgagent.a(gatnet.o)	#SHT_PROGBITS,SHF_ALLOC|SHF_MERGE|SHF_STRINGS,1
	0x4303bb61		.L.str.31
.rodata.str1.1	0x4303bb83	0x20	G:\TEMP\GoKit4_Demo\gagent\libgagent.a(gatnet.o)	#SHT_PROGBITS,SHF_ALLOC|SHF_MERGE|SHF_STRINGS,1
	0x4303bb83		.L.str.32
.rodata.str1.1	0x4303bba3	0x35	G:\TEMP\GoKit4_Demo\gagent\libgagent.a(gatnet.o)	#SHT_PROGBITS,SHF_ALLOC|SHF_MERGE|SHF_STRINGS,1
	0x4303bba3		.L.str.33
.rodata.str1.1	0x4303bbd8	0x10	G:\TEMP\GoKit4_Demo\gagent\libgagent.a(gatnet.o)	#SHT_PROGBITS,SHF_ALLOC|SHF_MERGE|SHF_STRINGS,1
	0x4303bbd8		.L__FUNCTION__.gatTestModeTick
.rodata.str1.1	0x4303bbe8	0xf	G:\TEMP\GoKit4_Demo\gagent\libgagent.a(gatnet.o)	#SHT_PROGBITS,SHF_ALLOC|SHF_MERGE|SHF_STRINGS,1
	0x4303bbe8		.L.str.34
.rodata.str1.1	0x4303bbf7	0x12	G:\TEMP\GoKit4_Demo\gagent\libgagent.a(gatnet.o)	#SHT_PROGBITS,SHF_ALLOC|SHF_MERGE|SHF_STRINGS,1
	0x4303bbf7		.L.str.35
.rodata.str1.1	0x4303bc09	0x1d	G:\TEMP\GoKit4_Demo\gagent\libgagent.a(gatnet.o)	#SHT_PROGBITS,SHF_ALLOC|SHF_MERGE|SHF_STRINGS,1
	0x4303bc09		.L.str.36
.rodata.str1.1	0x4303bc26	0x13	G:\TEMP\GoKit4_Demo\gagent\libgagent.a(gatnet.o)	#SHT_PROGBITS,SHF_ALLOC|SHF_MERGE|SHF_STRINGS,1
	0x4303bc26		.L__FUNCTION__.gatConfigDataParse
.rodata.str1.1	0x4303bc39	0x1a	G:\TEMP\GoKit4_Demo\gagent\libgagent.a(gatnet.o)	#SHT_PROGBITS,SHF_ALLOC|SHF_MERGE|SHF_STRINGS,1
	0x4303bc39		.L.str.37
.rodata.str1.1	0x4303bc53	0x12	G:\TEMP\GoKit4_Demo\gagent\libgagent.a(gatnet.o)	#SHT_PROGBITS,SHF_ALLOC|SHF_MERGE|SHF_STRINGS,1
	0x4303bc53		.L.str.42
.rodata.str1.1	0x4303bc65	0x12	G:\TEMP\GoKit4_Demo\gagent\libgagent.a(gatnet.o)	#SHT_PROGBITS,SHF_ALLOC|SHF_MERGE|SHF_STRINGS,1
	0x4303bc65		.L.str.43
.rodata.str1.1	0x4303bc77	0x1d	G:\TEMP\GoKit4_Demo\gagent\libgagent.a(gatnet.o)	#SHT_PROGBITS,SHF_ALLOC|SHF_MERGE|SHF_STRINGS,1
	0x4303bc77		.L.str.44
.rodata.str1.1	0x4303bc94	0x1d	G:\TEMP\GoKit4_Demo\gagent\libgagent.a(gatnet.o)	#SHT_PROGBITS,SHF_ALLOC|SHF_MERGE|SHF_STRINGS,1
	0x4303bc94		.L.str.45
.rodata.str1.1	0x4303bcb1	0x27	G:\TEMP\GoKit4_Demo\gagent\libgagent.a(gatnet.o)	#SHT_PROGBITS,SHF_ALLOC|SHF_MERGE|SHF_STRINGS,1
	0x4303bcb1		.L.str.46
.rodata.str1.1	0x4303bcd8	0x13	G:\TEMP\GoKit4_Demo\gagent\libgagent.a(gatnet.o)	#SHT_PROGBITS,SHF_ALLOC|SHF_MERGE|SHF_STRINGS,1
	0x4303bcd8		.L.str.47
.rodata.str1.1	0x4303bceb	0x3e	G:\TEMP\GoKit4_Demo\gagent\libgagent.a(gatnet.o)	#SHT_PROGBITS,SHF_ALLOC|SHF_MERGE|SHF_STRINGS,1
	0x4303bceb		.L.str.48
.rodata.str1.1	0x4303bd29	0x3e	G:\TEMP\GoKit4_Demo\gagent\libgagent.a(gatnet.o)	#SHT_PROGBITS,SHF_ALLOC|SHF_MERGE|SHF_STRINGS,1
	0x4303bd29		.L.str.50
.rodata.str1.1	0x4303bd67	0x12	G:\TEMP\GoKit4_Demo\gagent\libgagent.a(gatnet.o)	#SHT_PROGBITS,SHF_ALLOC|SHF_MERGE|SHF_STRINGS,1
	0x4303bd67		.L.str.51
.rodata.str1.1	0x4303bd79	0x12	G:\TEMP\GoKit4_Demo\gagent\libgagent.a(gatnet.o)	#SHT_PROGBITS,SHF_ALLOC|SHF_MERGE|SHF_STRINGS,1
	0x4303bd79		.L.str.52
.rodata.str1.1	0x4303bd8b	0x2b	G:\TEMP\GoKit4_Demo\gagent\libgagent.a(gatnet.o)	#SHT_PROGBITS,SHF_ALLOC|SHF_MERGE|SHF_STRINGS,1
	0x4303bd8b		.L.str.53
.rodata.str1.1	0x4303bdb6	0x27	G:\TEMP\GoKit4_Demo\gagent\libgagent.a(gatnet.o)	#SHT_PROGBITS,SHF_ALLOC|SHF_MERGE|SHF_STRINGS,1
	0x4303bdb6		.L.str.54
.rodata.str1.1	0x4303bddd	0x25	G:\TEMP\GoKit4_Demo\gagent\libgagent.a(gatnet.o)	#SHT_PROGBITS,SHF_ALLOC|SHF_MERGE|SHF_STRINGS,1
	0x4303bddd		.L.str.55
.rodata.str1.1	0x4303be02	0x32	G:\TEMP\GoKit4_Demo\gagent\libgagent.a(gatnet.o)	#SHT_PROGBITS,SHF_ALLOC|SHF_MERGE|SHF_STRINGS,1
	0x4303be02		.L.str.57
.rodata.str1.1	0x4303be34	0x50	G:\TEMP\GoKit4_Demo\gagent\libgagent.a(gatnet.o)	#SHT_PROGBITS,SHF_ALLOC|SHF_MERGE|SHF_STRINGS,1
	0x4303be34		.L.str.58
.rodata.str1.1	0x4303be84	0xe	G:\TEMP\GoKit4_Demo\gagent\libgagent.a(gatnet.o)	#SHT_PROGBITS,SHF_ALLOC|SHF_MERGE|SHF_STRINGS,1
	0x4303be84		.L.str.59
.rodata.str1.1	0x4303be92	0x14	G:\TEMP\GoKit4_Demo\gagent\libgagent.a(gatnet.o)	#SHT_PROGBITS,SHF_ALLOC|SHF_MERGE|SHF_STRINGS,1
	0x4303be92		.L__FUNCTION__.gatRouterUpdateInfo
.rodata.str1.1	0x4303bea6	0x2f	G:\TEMP\GoKit4_Demo\gagent\libgagent.a(gatnet.o)	#SHT_PROGBITS,SHF_ALLOC|SHF_MERGE|SHF_STRINGS,1
	0x4303bea6		.L.str.60
.rodata.str1.1	0x4303bed5	0x2f	G:\TEMP\GoKit4_Demo\gagent\libgagent.a(gatnet.o)	#SHT_PROGBITS,SHF_ALLOC|SHF_MERGE|SHF_STRINGS,1
	0x4303bed5		.L.str.61
.rodata.str1.1	0x4303bf04	0xe	G:\TEMP\GoKit4_Demo\gagent\libgagent.a(gatnet.o)	#SHT_PROGBITS,SHF_ALLOC|SHF_MERGE|SHF_STRINGS,1
	0x4303bf04		.L.str.63
.rodata.str1.1	0x4303bf12	0x13	G:\TEMP\GoKit4_Demo\gagent\libgagent.a(gatnet.o)	#SHT_PROGBITS,SHF_ALLOC|SHF_MERGE|SHF_STRINGS,1
	0x4303bf12		.L__FUNCTION__.gatNetExcepTimeout
.rodata.str1.1	0x4303bf25	0x27	G:\TEMP\GoKit4_Demo\gagent\libgagent.a(gatutilcode.o)	#SHT_PROGBITS,SHF_ALLOC|SHF_MERGE|SHF_STRINGS,1
	0x4303bf25		.L.str.2
.rodata.str1.1	0x4303bf4c	0x25	G:\TEMP\GoKit4_Demo\gagent\libgagent.a(gatutilcode.o)	#SHT_PROGBITS,SHF_ALLOC|SHF_MERGE|SHF_STRINGS,1
	0x4303bf4c		.L.str.3
.rodata.str1.1	0x4303bf71	0x5	G:\TEMP\GoKit4_Demo\gagent\libgagent.a(gatutilcode.o)	#SHT_PROGBITS,SHF_ALLOC|SHF_MERGE|SHF_STRINGS,1
	0x4303bf71		.L.str.4
.rodata.str1.1	0x4303bf76	0x3c	G:\TEMP\GoKit4_Demo\gagent\libgagent.a(gatutilcode.o)	#SHT_PROGBITS,SHF_ALLOC|SHF_MERGE|SHF_STRINGS,1
	0x4303bf76		.L.str.7
.rodata.str1.1	0x4303bfb2	0xe	G:\TEMP\GoKit4_Demo\gagent\libgagent.a(gatutilcode.o)	#SHT_PROGBITS,SHF_ALLOC|SHF_MERGE|SHF_STRINGS,1
	0x4303bfb2		.L.str.8
.rodata.str1.1	0x4303bfc0	0x15	G:\TEMP\GoKit4_Demo\gagent\libgagent.a(gatutilcode.o)	#SHT_PROGBITS,SHF_ALLOC|SHF_MERGE|SHF_STRINGS,1
	0x4303bfc0		.L__FUNCTION__.gatUpLoadDataCombine
.rodata.str1.1	0x4303bfd5	0x1f	G:\TEMP\GoKit4_Demo\gagent\libgagent.a(gatutilcode.o)	#SHT_PROGBITS,SHF_ALLOC|SHF_MERGE|SHF_STRINGS,1
	0x4303bfd5		.L.str.9
.rodata.str1.1	0x4303bff4	0x20	G:\TEMP\GoKit4_Demo\gagent\libgagent.a(gatutilcode.o)	#SHT_PROGBITS,SHF_ALLOC|SHF_MERGE|SHF_STRINGS,1
	0x4303bff4		.L.str.10
.rodata.str1.1	0x4303c014	0x18	G:\TEMP\GoKit4_Demo\gagent\libgagent.a(gatutilcode.o)	#SHT_PROGBITS,SHF_ALLOC|SHF_MERGE|SHF_STRINGS,1
	0x4303c014		.L.str.11
PADDING_ALIGNMENT	0x4303c02c	0x4	0x0
.rodata	0x4303c030	0x30	G:\TEMP\GoKit4_Demo\gagent\libgagent.a(gatutilcode.o)	#SHT_PROGBITS,SHF_ALLOC,8
.rodata.str1.1	0x4303c060	0x28	G:\TEMP\GoKit4_Demo\gagent\libgagent.a(gdns.o)	#SHT_PROGBITS,SHF_ALLOC|SHF_MERGE|SHF_STRINGS,1
	0x4303c060		.L.str.2
.rodata.str1.1	0x4303c088	0x13	G:\TEMP\GoKit4_Demo\gagent\libgagent.a(gdns.o)	#SHT_PROGBITS,SHF_ALLOC|SHF_MERGE|SHF_STRINGS,1
	0x4303c088		.L.str.3
.rodata.str1.1	0x4303c09b	0x18	G:\TEMP\GoKit4_Demo\gagent\libgagent.a(gdns.o)	#SHT_PROGBITS,SHF_ALLOC|SHF_MERGE|SHF_STRINGS,1
	0x4303c09b		.L.str.4
.rodata.str1.1	0x4303c0b3	0x1b	G:\TEMP\GoKit4_Demo\gagent\libgagent.a(gdns.o)	#SHT_PROGBITS,SHF_ALLOC|SHF_MERGE|SHF_STRINGS,1
	0x4303c0b3		.L.str.5
.rodata.str1.1	0x4303c0ce	0x19	G:\TEMP\GoKit4_Demo\gagent\libgagent.a(gdns.o)	#SHT_PROGBITS,SHF_ALLOC|SHF_MERGE|SHF_STRINGS,1
	0x4303c0ce		.L.str.6
.rodata.str1.1	0x4303c0e7	0x19	G:\TEMP\GoKit4_Demo\gagent\libgagent.a(gdns.o)	#SHT_PROGBITS,SHF_ALLOC|SHF_MERGE|SHF_STRINGS,1
	0x4303c0e7		.L.str.7
.rodata.str1.1	0x4303c100	0x19	G:\TEMP\GoKit4_Demo\gagent\libgagent.a(gdns.o)	#SHT_PROGBITS,SHF_ALLOC|SHF_MERGE|SHF_STRINGS,1
	0x4303c100		.L.str.8
.rodata.str1.1	0x4303c119	0x19	G:\TEMP\GoKit4_Demo\gagent\libgagent.a(gdns.o)	#SHT_PROGBITS,SHF_ALLOC|SHF_MERGE|SHF_STRINGS,1
	0x4303c119		.L.str.9
.rodata.str1.1	0x4303c132	0x1b	G:\TEMP\GoKit4_Demo\gagent\libgagent.a(gdns.o)	#SHT_PROGBITS,SHF_ALLOC|SHF_MERGE|SHF_STRINGS,1
	0x4303c132		.L.str.10
.rodata.str1.1	0x4303c14d	0x2a	G:\TEMP\GoKit4_Demo\gagent\libgagent.a(gdns.o)	#SHT_PROGBITS,SHF_ALLOC|SHF_MERGE|SHF_STRINGS,1
	0x4303c14d		.L.str.11
.rodata.str1.1	0x4303c177	0x11	G:\TEMP\GoKit4_Demo\gagent\libgagent.a(gdns.o)	#SHT_PROGBITS,SHF_ALLOC|SHF_MERGE|SHF_STRINGS,1
	0x4303c177		.L__FUNCTION__.gatGetHostByName
.rodata.str1.1	0x4303c188	0x1b	G:\TEMP\GoKit4_Demo\gagent\libgagent.a(gdns.o)	#SHT_PROGBITS,SHF_ALLOC|SHF_MERGE|SHF_STRINGS,1
	0x4303c188		.L.str.12
.rodata.str1.1	0x4303c1a3	0x8	G:\TEMP\GoKit4_Demo\gagent\libgagent.a(gdns.o)	#SHT_PROGBITS,SHF_ALLOC|SHF_MERGE|SHF_STRINGS,1
	0x4303c1a3		.L.str.13
.rodata.str1.1	0x4303c1ab	0x47	G:\TEMP\GoKit4_Demo\gagent\libgagent.a(gdns.o)	#SHT_PROGBITS,SHF_ALLOC|SHF_MERGE|SHF_STRINGS,1
	0x4303c1ab		.L.str.15
.rodata.str1.1	0x4303c1f2	0x2b	G:\TEMP\GoKit4_Demo\gagent\libgagent.a(gdns.o)	#SHT_PROGBITS,SHF_ALLOC|SHF_MERGE|SHF_STRINGS,1
	0x4303c1f2		.L.str.16
.rodata.str1.1	0x4303c21d	0x11	G:\TEMP\GoKit4_Demo\gagent\libgagent.a(gdns.o)	#SHT_PROGBITS,SHF_ALLOC|SHF_MERGE|SHF_STRINGS,1
	0x4303c21d		.L__FUNCTION__._getDnsReqByName
.rodata.str1.1	0x4303c22e	0x24	G:\TEMP\GoKit4_Demo\gagent\libgagent.a(gdns.o)	#SHT_PROGBITS,SHF_ALLOC|SHF_MERGE|SHF_STRINGS,1
	0x4303c22e		.L.str.17
.rodata.str1.1	0x4303c252	0xb	G:\TEMP\GoKit4_Demo\gagent\libgagent.a(gdns.o)	#SHT_PROGBITS,SHF_ALLOC|SHF_MERGE|SHF_STRINGS,1
	0x4303c252		.L__FUNCTION__._dnsResult
.rodata.str1.1	0x4303c25d	0x18	G:\TEMP\GoKit4_Demo\gagent\libgagent.a(gdns.o)	#SHT_PROGBITS,SHF_ALLOC|SHF_MERGE|SHF_STRINGS,1
	0x4303c25d		.L.str.19
.rodata.str1.1	0x4303c275	0x1c	G:\TEMP\GoKit4_Demo\gagent\libgagent.a(gdns.o)	#SHT_PROGBITS,SHF_ALLOC|SHF_MERGE|SHF_STRINGS,1
	0x4303c275		.L.str.20
.rodata.str1.1	0x4303c291	0x1b	G:\TEMP\GoKit4_Demo\gagent\libgagent.a(gdns.o)	#SHT_PROGBITS,SHF_ALLOC|SHF_MERGE|SHF_STRINGS,1
	0x4303c291		.L.str.21
.rodata.str1.1	0x4303c2ac	0x2e	G:\TEMP\GoKit4_Demo\gagent\libgagent.a(gdns.o)	#SHT_PROGBITS,SHF_ALLOC|SHF_MERGE|SHF_STRINGS,1
	0x4303c2ac		.L.str.22
.rodata.str1.1	0x4303c2da	0x8	G:\TEMP\GoKit4_Demo\gagent\libgagent.a(gdns.o)	#SHT_PROGBITS,SHF_ALLOC|SHF_MERGE|SHF_STRINGS,1
	0x4303c2da		.L.str.23
.rodata.str1.1	0x4303c2e2	0x1f	G:\TEMP\GoKit4_Demo\gagent\libgagent.a(gdns.o)	#SHT_PROGBITS,SHF_ALLOC|SHF_MERGE|SHF_STRINGS,1
	0x4303c2e2		.L.str.24
.rodata.str1.1	0x4303c301	0xc	G:\TEMP\GoKit4_Demo\gagent\libgagent.a(gdns.o)	#SHT_PROGBITS,SHF_ALLOC|SHF_MERGE|SHF_STRINGS,1
	0x4303c301		.L__FUNCTION__._dnsIpFound
.rodata.str1.1	0x4303c30d	0x21	G:\TEMP\GoKit4_Demo\gagent\libgagent.a(gdns.o)	#SHT_PROGBITS,SHF_ALLOC|SHF_MERGE|SHF_STRINGS,1
	0x4303c30d		.L.str.25
.rodata.str1.1	0x4303c32e	0x9	G:\TEMP\GoKit4_Demo\gagent\libgagent.a(gdns.o)	#SHT_PROGBITS,SHF_ALLOC|SHF_MERGE|SHF_STRINGS,1
	0x4303c32e		.L__FUNCTION__._dnsTick
.rodata.str1.1	0x4303c337	0x16	G:\TEMP\GoKit4_Demo\gagent\libgagent.a(gdns.o)	#SHT_PROGBITS,SHF_ALLOC|SHF_MERGE|SHF_STRINGS,1
	0x4303c337		.L.str.26
.rodata.str1.1	0x4303c34d	0x11	G:\TEMP\GoKit4_Demo\gagent\libgagent.a(gserver.o)	#SHT_PROGBITS,SHF_ALLOC|SHF_MERGE|SHF_STRINGS,1
	0x4303c34d		.L__FUNCTION__.Http_Decrypt_RES
.rodata.str1.1	0x4303c35e	0x35	G:\TEMP\GoKit4_Demo\gagent\libgagent.a(gserver.o)	#SHT_PROGBITS,SHF_ALLOC|SHF_MERGE|SHF_STRINGS,1
	0x4303c35e		.L.str.2
.rodata.str1.1	0x4303c393	0x30	G:\TEMP\GoKit4_Demo\gagent\libgagent.a(gserver.o)	#SHT_PROGBITS,SHF_ALLOC|SHF_MERGE|SHF_STRINGS,1
	0x4303c393		.L.str.3
.rodata.str1.1	0x4303c3c3	0x23	G:\TEMP\GoKit4_Demo\gagent\libgagent.a(gserver.o)	#SHT_PROGBITS,SHF_ALLOC|SHF_MERGE|SHF_STRINGS,1
	0x4303c3c3		.L.str.6
.rodata.str1.1	0x4303c3e6	0x20	G:\TEMP\GoKit4_Demo\gagent\libgagent.a(gserver.o)	#SHT_PROGBITS,SHF_ALLOC|SHF_MERGE|SHF_STRINGS,1
	0x4303c3e6		.L.str.7
.rodata.str1.1	0x4303c406	0x1c	G:\TEMP\GoKit4_Demo\gagent\libgagent.a(gserver.o)	#SHT_PROGBITS,SHF_ALLOC|SHF_MERGE|SHF_STRINGS,1
	0x4303c406		.L.str.8
.rodata.str1.1	0x4303c422	0x2e	G:\TEMP\GoKit4_Demo\gagent\libgagent.a(gserver.o)	#SHT_PROGBITS,SHF_ALLOC|SHF_MERGE|SHF_STRINGS,1
	0x4303c422		.L.str.9
.rodata.str1.1	0x4303c450	0x22	G:\TEMP\GoKit4_Demo\gagent\libgagent.a(gserver.o)	#SHT_PROGBITS,SHF_ALLOC|SHF_MERGE|SHF_STRINGS,1
	0x4303c450		.L.str.10
.rodata.str1.1	0x4303c472	0xb	G:\TEMP\GoKit4_Demo\gagent\libgagent.a(gserver.o)	#SHT_PROGBITS,SHF_ALLOC|SHF_MERGE|SHF_STRINGS,1
	0x4303c472		.L.str.11
.rodata.str1.1	0x4303c47d	0x1f	G:\TEMP\GoKit4_Demo\gagent\libgagent.a(gserver.o)	#SHT_PROGBITS,SHF_ALLOC|SHF_MERGE|SHF_STRINGS,1
	0x4303c47d		.L.str.13
.rodata.str1.1	0x4303c49c	0x5	G:\TEMP\GoKit4_Demo\gagent\libgagent.a(gserver.o)	#SHT_PROGBITS,SHF_ALLOC|SHF_MERGE|SHF_STRINGS,1
	0x4303c49c		.L.str.14
.rodata.str1.1	0x4303c4a1	0x27	G:\TEMP\GoKit4_Demo\gagent\libgagent.a(gserver.o)	#SHT_PROGBITS,SHF_ALLOC|SHF_MERGE|SHF_STRINGS,1
	0x4303c4a1		.L.str.15
.rodata.str1.1	0x4303c4c8	0xc	G:\TEMP\GoKit4_Demo\gagent\libgagent.a(gserver.o)	#SHT_PROGBITS,SHF_ALLOC|SHF_MERGE|SHF_STRINGS,1
	0x4303c4c8		.L__FUNCTION__.gatRegsiter
.rodata.str1.1	0x4303c4d4	0x34	G:\TEMP\GoKit4_Demo\gagent\libgagent.a(gserver.o)	#SHT_PROGBITS,SHF_ALLOC|SHF_MERGE|SHF_STRINGS,1
	0x4303c4d4		.L.str.16
.rodata.str1.1	0x4303c508	0x1c	G:\TEMP\GoKit4_Demo\gagent\libgagent.a(gserver.o)	#SHT_PROGBITS,SHF_ALLOC|SHF_MERGE|SHF_STRINGS,1
	0x4303c508		.L.str.21
.rodata.str1.1	0x4303c524	0x15	G:\TEMP\GoKit4_Demo\gagent\libgagent.a(gserver.o)	#SHT_PROGBITS,SHF_ALLOC|SHF_MERGE|SHF_STRINGS,1
	0x4303c524		.L.str.22
.rodata.str1.1	0x4303c539	0xa	G:\TEMP\GoKit4_Demo\gagent\libgagent.a(gserver.o)	#SHT_PROGBITS,SHF_ALLOC|SHF_MERGE|SHF_STRINGS,1
	0x4303c539		.L.str.23
.rodata.str1.1	0x4303c543	0x6	G:\TEMP\GoKit4_Demo\gagent\libgagent.a(gserver.o)	#SHT_PROGBITS,SHF_ALLOC|SHF_MERGE|SHF_STRINGS,1
	0x4303c543		.L.str.24
.rodata.str1.1	0x4303c549	0x6	G:\TEMP\GoKit4_Demo\gagent\libgagent.a(gserver.o)	#SHT_PROGBITS,SHF_ALLOC|SHF_MERGE|SHF_STRINGS,1
	0x4303c549		.L.str.25
.rodata.str1.1	0x4303c54f	0x5	G:\TEMP\GoKit4_Demo\gagent\libgagent.a(gserver.o)	#SHT_PROGBITS,SHF_ALLOC|SHF_MERGE|SHF_STRINGS,1
	0x4303c54f		.L.str.26
.rodata.str1.1	0x4303c554	0x6	G:\TEMP\GoKit4_Demo\gagent\libgagent.a(gserver.o)	#SHT_PROGBITS,SHF_ALLOC|SHF_MERGE|SHF_STRINGS,1
	0x4303c554		.L.str.27
.rodata.str1.1	0x4303c55a	0x18	G:\TEMP\GoKit4_Demo\gagent\libgagent.a(gserver.o)	#SHT_PROGBITS,SHF_ALLOC|SHF_MERGE|SHF_STRINGS,1
	0x4303c55a		.L.str.28
.rodata.str1.1	0x4303c572	0x9	G:\TEMP\GoKit4_Demo\gagent\libgagent.a(gserver.o)	#SHT_PROGBITS,SHF_ALLOC|SHF_MERGE|SHF_STRINGS,1
	0x4303c572		.L.str.29
.rodata.str1.1	0x4303c57b	0x5	G:\TEMP\GoKit4_Demo\gagent\libgagent.a(gserver.o)	#SHT_PROGBITS,SHF_ALLOC|SHF_MERGE|SHF_STRINGS,1
	0x4303c57b		.L.str.30
.rodata.str1.1	0x4303c580	0xb	G:\TEMP\GoKit4_Demo\gagent\libgagent.a(gserver.o)	#SHT_PROGBITS,SHF_ALLOC|SHF_MERGE|SHF_STRINGS,1
	0x4303c580		.L.str.32
.rodata.str1.1	0x4303c58b	0x15	G:\TEMP\GoKit4_Demo\gagent\libgagent.a(gserver.o)	#SHT_PROGBITS,SHF_ALLOC|SHF_MERGE|SHF_STRINGS,1
	0x4303c58b		.L.str.33
.rodata.str1.1	0x4303c5a0	0x9	G:\TEMP\GoKit4_Demo\gagent\libgagent.a(gserver.o)	#SHT_PROGBITS,SHF_ALLOC|SHF_MERGE|SHF_STRINGS,1
	0x4303c5a0		.L.str.34
.rodata.str1.1	0x4303c5a9	0x16	G:\TEMP\GoKit4_Demo\gagent\libgagent.a(gserver.o)	#SHT_PROGBITS,SHF_ALLOC|SHF_MERGE|SHF_STRINGS,1
	0x4303c5a9		.L.str.35
.rodata.str1.1	0x4303c5bf	0xb	G:\TEMP\GoKit4_Demo\gagent\libgagent.a(gserver.o)	#SHT_PROGBITS,SHF_ALLOC|SHF_MERGE|SHF_STRINGS,1
	0x4303c5bf		.L.str.37
.rodata.str1.1	0x4303c5ca	0x8	G:\TEMP\GoKit4_Demo\gagent\libgagent.a(gserver.o)	#SHT_PROGBITS,SHF_ALLOC|SHF_MERGE|SHF_STRINGS,1
	0x4303c5ca		.L.str.38
.rodata.str1.1	0x4303c5d2	0x6	G:\TEMP\GoKit4_Demo\gagent\libgagent.a(gserver.o)	#SHT_PROGBITS,SHF_ALLOC|SHF_MERGE|SHF_STRINGS,1
	0x4303c5d2		.L.str.39
.rodata.str1.1	0x4303c5d8	0xf	G:\TEMP\GoKit4_Demo\gagent\libgagent.a(gserver.o)	#SHT_PROGBITS,SHF_ALLOC|SHF_MERGE|SHF_STRINGS,1
	0x4303c5d8		.L.str.40
.rodata.str1.1	0x4303c5e7	0x2a	G:\TEMP\GoKit4_Demo\gagent\libgagent.a(gserver.o)	#SHT_PROGBITS,SHF_ALLOC|SHF_MERGE|SHF_STRINGS,1
	0x4303c5e7		.L.str.41
.rodata.str1.1	0x4303c611	0x23	G:\TEMP\GoKit4_Demo\gagent\libgagent.a(gserver.o)	#SHT_PROGBITS,SHF_ALLOC|SHF_MERGE|SHF_STRINGS,1
	0x4303c611		.L.str.42
.rodata.str1.1	0x4303c634	0x15	G:\TEMP\GoKit4_Demo\gagent\libgagent.a(gserver.o)	#SHT_PROGBITS,SHF_ALLOC|SHF_MERGE|SHF_STRINGS,1
	0x4303c634		.L.str.44
.rodata.str1.1	0x4303c649	0x2	G:\TEMP\GoKit4_Demo\gagent\libgagent.a(gserver.o)	#SHT_PROGBITS,SHF_ALLOC|SHF_MERGE|SHF_STRINGS,1
	0x4303c649		.L.str.45
.rodata.str1.1	0x4303c64b	0xd	G:\TEMP\GoKit4_Demo\gagent\libgagent.a(gserver.o)	#SHT_PROGBITS,SHF_ALLOC|SHF_MERGE|SHF_STRINGS,1
	0x4303c64b		.L__FUNCTION__.gatProvision
.rodata.str1.1	0x4303c658	0x18	G:\TEMP\GoKit4_Demo\gagent\libgagent.a(gserver.o)	#SHT_PROGBITS,SHF_ALLOC|SHF_MERGE|SHF_STRINGS,1
	0x4303c658		.L.str.47
.rodata.str1.1	0x4303c670	0x23	G:\TEMP\GoKit4_Demo\gagent\libgagent.a(gserver.o)	#SHT_PROGBITS,SHF_ALLOC|SHF_MERGE|SHF_STRINGS,1
	0x4303c670		.L.str.48
.rodata.str1.1	0x4303c693	0x16	G:\TEMP\GoKit4_Demo\gagent\libgagent.a(gserver.o)	#SHT_PROGBITS,SHF_ALLOC|SHF_MERGE|SHF_STRINGS,1
	0x4303c693		.L.str.50
.rodata.str1.1	0x4303c6a9	0x23	G:\TEMP\GoKit4_Demo\gagent\libgagent.a(gserver.o)	#SHT_PROGBITS,SHF_ALLOC|SHF_MERGE|SHF_STRINGS,1
	0x4303c6a9		.L.str.51
.rodata.str1.1	0x4303c6cc	0x10	G:\TEMP\GoKit4_Demo\gagent\libgagent.a(gserver.o)	#SHT_PROGBITS,SHF_ALLOC|SHF_MERGE|SHF_STRINGS,1
	0x4303c6cc		.L.str.52
.rodata.str1.1	0x4303c6dc	0x1b	G:\TEMP\GoKit4_Demo\gagent\libgagent.a(gserver.o)	#SHT_PROGBITS,SHF_ALLOC|SHF_MERGE|SHF_STRINGS,1
	0x4303c6dc		.L.str.53
.rodata.str1.1	0x4303c6f7	0x17	G:\TEMP\GoKit4_Demo\gagent\libgagent.a(gserver.o)	#SHT_PROGBITS,SHF_ALLOC|SHF_MERGE|SHF_STRINGS,1
	0x4303c6f7		.L__FUNCTION__.gatNormalDeviceDisable
.rodata.str1.1	0x4303c70e	0x19	G:\TEMP\GoKit4_Demo\gagent\libgagent.a(gserver.o)	#SHT_PROGBITS,SHF_ALLOC|SHF_MERGE|SHF_STRINGS,1
	0x4303c70e		.L.str.54
.rodata.str1.1	0x4303c727	0x13	G:\TEMP\GoKit4_Demo\gagent\libgagent.a(gserver.o)	#SHT_PROGBITS,SHF_ALLOC|SHF_MERGE|SHF_STRINGS,1
	0x4303c727		.L.str.55
.rodata.str1.1	0x4303c73a	0x34	G:\TEMP\GoKit4_Demo\gagent\libgagent.a(gserver.o)	#SHT_PROGBITS,SHF_ALLOC|SHF_MERGE|SHF_STRINGS,1
	0x4303c73a		.L.str.56
.rodata.str1.1	0x4303c76e	0x29	G:\TEMP\GoKit4_Demo\gagent\libgagent.a(gserver.o)	#SHT_PROGBITS,SHF_ALLOC|SHF_MERGE|SHF_STRINGS,1
	0x4303c76e		.L.str.57
.rodata.str1.1	0x4303c797	0x43	G:\TEMP\GoKit4_Demo\gagent\libgagent.a(gserver.o)	#SHT_PROGBITS,SHF_ALLOC|SHF_MERGE|SHF_STRINGS,1
	0x4303c797		.L.str.58
.rodata.str1.1	0x4303c7da	0x3b	G:\TEMP\GoKit4_Demo\gagent\libgagent.a(gserver.o)	#SHT_PROGBITS,SHF_ALLOC|SHF_MERGE|SHF_STRINGS,1
	0x4303c7da		.L.str.59
.rodata.str1.1	0x4303c815	0x2b	G:\TEMP\GoKit4_Demo\gagent\libgagent.a(gserver.o)	#SHT_PROGBITS,SHF_ALLOC|SHF_MERGE|SHF_STRINGS,1
	0x4303c815		.L.str.60
.rodata.str1.1	0x4303c840	0x2b	G:\TEMP\GoKit4_Demo\gagent\libgagent.a(gserver.o)	#SHT_PROGBITS,SHF_ALLOC|SHF_MERGE|SHF_STRINGS,1
	0x4303c840		.L.str.61
.rodata.str1.1	0x4303c86b	0x12	G:\TEMP\GoKit4_Demo\gagent\libgagent.a(gserver.o)	#SHT_PROGBITS,SHF_ALLOC|SHF_MERGE|SHF_STRINGS,1
	0x4303c86b		.L.str.62
.rodata.str1.1	0x4303c87d	0x1c	G:\TEMP\GoKit4_Demo\gagent\libgagent.a(gserver.o)	#SHT_PROGBITS,SHF_ALLOC|SHF_MERGE|SHF_STRINGS,1
	0x4303c87d		.L.str.63
.rodata.str1.1	0x4303c899	0x2c	G:\TEMP\GoKit4_Demo\gagent\libgagent.a(gserver.o)	#SHT_PROGBITS,SHF_ALLOC|SHF_MERGE|SHF_STRINGS,1
	0x4303c899		.L.str.64
.rodata.str1.1	0x4303c8c5	0x21	G:\TEMP\GoKit4_Demo\gagent\libgagent.a(gserver.o)	#SHT_PROGBITS,SHF_ALLOC|SHF_MERGE|SHF_STRINGS,1
	0x4303c8c5		.L.str.65
.rodata.str1.1	0x4303c8e6	0x12	G:\TEMP\GoKit4_Demo\gagent\libgagent.a(gserver.o)	#SHT_PROGBITS,SHF_ALLOC|SHF_MERGE|SHF_STRINGS,1
	0x4303c8e6		.L.str.66
.rodata.str1.1	0x4303c8f8	0xb	G:\TEMP\GoKit4_Demo\gagent\libgagent.a(gserver.o)	#SHT_PROGBITS,SHF_ALLOC|SHF_MERGE|SHF_STRINGS,1
	0x4303c8f8		.L__FUNCTION__.packRegPkt
.rodata.str1.1	0x4303c903	0x23	G:\TEMP\GoKit4_Demo\gagent\libgagent.a(gserver.o)	#SHT_PROGBITS,SHF_ALLOC|SHF_MERGE|SHF_STRINGS,1
	0x4303c903		.L.str.67
.rodata.str1.1	0x4303c926	0x56	G:\TEMP\GoKit4_Demo\gagent\libgagent.a(gserver.o)	#SHT_PROGBITS,SHF_ALLOC|SHF_MERGE|SHF_STRINGS,1
	0x4303c926		.L.str.68
.rodata.str1.1	0x4303c97c	0x36	G:\TEMP\GoKit4_Demo\gagent\libgagent.a(gserver.o)	#SHT_PROGBITS,SHF_ALLOC|SHF_MERGE|SHF_STRINGS,1
	0x4303c97c		.L.str.69
.rodata.str1.1	0x4303c9b2	0x5e	G:\TEMP\GoKit4_Demo\gagent\libgagent.a(gserver.o)	#SHT_PROGBITS,SHF_ALLOC|SHF_MERGE|SHF_STRINGS,1
	0x4303c9b2		.L.str.70
.rodata.str1.1	0x4303ca10	0x3e	G:\TEMP\GoKit4_Demo\gagent\libgagent.a(gserver.o)	#SHT_PROGBITS,SHF_ALLOC|SHF_MERGE|SHF_STRINGS,1
	0x4303ca10		.L.str.71
.rodata.str1.1	0x4303ca4e	0xd	G:\TEMP\GoKit4_Demo\gagent\libgagent.a(gserver.o)	#SHT_PROGBITS,SHF_ALLOC|SHF_MERGE|SHF_STRINGS,1
	0x4303ca4e		.L.str.72
.rodata.str1.1	0x4303ca5b	0x48	G:\TEMP\GoKit4_Demo\gagent\libgagent.a(gserver.o)	#SHT_PROGBITS,SHF_ALLOC|SHF_MERGE|SHF_STRINGS,1
	0x4303ca5b		.L.str.73
.rodata.str1.1	0x4303caa3	0x28	G:\TEMP\GoKit4_Demo\gagent\libgagent.a(gserver.o)	#SHT_PROGBITS,SHF_ALLOC|SHF_MERGE|SHF_STRINGS,1
	0x4303caa3		.L.str.74
.rodata.str1.1	0x4303cacb	0x50	G:\TEMP\GoKit4_Demo\gagent\libgagent.a(gserver.o)	#SHT_PROGBITS,SHF_ALLOC|SHF_MERGE|SHF_STRINGS,1
	0x4303cacb		.L.str.75
.rodata.str1.1	0x4303cb1b	0x30	G:\TEMP\GoKit4_Demo\gagent\libgagent.a(gserver.o)	#SHT_PROGBITS,SHF_ALLOC|SHF_MERGE|SHF_STRINGS,1
	0x4303cb1b		.L.str.76
.rodata.str1.1	0x4303cb4b	0x18	G:\TEMP\GoKit4_Demo\gagent\libgagent.a(gserver.o)	#SHT_PROGBITS,SHF_ALLOC|SHF_MERGE|SHF_STRINGS,1
	0x4303cb4b		.L.str.77
.rodata.str1.1	0x4303cb63	0xf	G:\TEMP\GoKit4_Demo\gagent\libgagent.a(gserver.o)	#SHT_PROGBITS,SHF_ALLOC|SHF_MERGE|SHF_STRINGS,1
	0x4303cb63		.L.str.78
.rodata.str1.1	0x4303cb72	0x13	G:\TEMP\GoKit4_Demo\gagent\libgagent.a(gserver.o)	#SHT_PROGBITS,SHF_ALLOC|SHF_MERGE|SHF_STRINGS,1
	0x4303cb72		.L.str.79
.rodata.str1.1	0x4303cb85	0x23	G:\TEMP\GoKit4_Demo\gagent\libgagent.a(gserver.o)	#SHT_PROGBITS,SHF_ALLOC|SHF_MERGE|SHF_STRINGS,1
	0x4303cb85		.L.str.80
.rodata.str1.1	0x4303cba8	0x6	G:\TEMP\GoKit4_Demo\gagent\libgagent.a(gserver.o)	#SHT_PROGBITS,SHF_ALLOC|SHF_MERGE|SHF_STRINGS,1
.rodata.str1.1	0x4303cbae	0x23	G:\TEMP\GoKit4_Demo\gagent\libgagent.a(gserver.o)	#SHT_PROGBITS,SHF_ALLOC|SHF_MERGE|SHF_STRINGS,1
	0x4303cbae		.L.str.82
.rodata.str1.1	0x4303cbd1	0x1a	G:\TEMP\GoKit4_Demo\gagent\libgagent.a(gserver.o)	#SHT_PROGBITS,SHF_ALLOC|SHF_MERGE|SHF_STRINGS,1
	0x4303cbd1		.L.str.83
.rodata.str1.1	0x4303cbeb	0x2b	G:\TEMP\GoKit4_Demo\gagent\libgagent.a(gserver.o)	#SHT_PROGBITS,SHF_ALLOC|SHF_MERGE|SHF_STRINGS,1
	0x4303cbeb		.L.str.84
.rodata.str1.1	0x4303cc16	0x16	G:\TEMP\GoKit4_Demo\gagent\libgagent.a(gserver.o)	#SHT_PROGBITS,SHF_ALLOC|SHF_MERGE|SHF_STRINGS,1
	0x4303cc16		.L.str.85
.rodata.str1.1	0x4303cc2c	0x12	G:\TEMP\GoKit4_Demo\gagent\libgagent.a(gserver.o)	#SHT_PROGBITS,SHF_ALLOC|SHF_MERGE|SHF_STRINGS,1
	0x4303cc2c		.L__FUNCTION__.gatProvisionRecCb
.rodata.str1.1	0x4303cc3e	0x1a	G:\TEMP\GoKit4_Demo\gagent\libgagent.a(gserver.o)	#SHT_PROGBITS,SHF_ALLOC|SHF_MERGE|SHF_STRINGS,1
	0x4303cc3e		.L.str.86
.rodata.str1.1	0x4303cc58	0x23	G:\TEMP\GoKit4_Demo\gagent\libgagent.a(gserver.o)	#SHT_PROGBITS,SHF_ALLOC|SHF_MERGE|SHF_STRINGS,1
	0x4303cc58		.L.str.87
.rodata.str1.1	0x4303cc7b	0x32	G:\TEMP\GoKit4_Demo\gagent\libgagent.a(gserver.o)	#SHT_PROGBITS,SHF_ALLOC|SHF_MERGE|SHF_STRINGS,1
	0x4303cc7b		.L.str.88
.rodata.str1.1	0x4303ccad	0x35	G:\TEMP\GoKit4_Demo\gagent\libgagent.a(gserver.o)	#SHT_PROGBITS,SHF_ALLOC|SHF_MERGE|SHF_STRINGS,1
	0x4303ccad		.L.str.89
.rodata.str1.1	0x4303cce2	0x26	G:\TEMP\GoKit4_Demo\gagent\libgagent.a(gserver.o)	#SHT_PROGBITS,SHF_ALLOC|SHF_MERGE|SHF_STRINGS,1
	0x4303cce2		.L.str.90
.rodata.str1.1	0x4303cd08	0x3d	G:\TEMP\GoKit4_Demo\gagent\libgagent.a(gserver.o)	#SHT_PROGBITS,SHF_ALLOC|SHF_MERGE|SHF_STRINGS,1
	0x4303cd08		.L.str.91
.rodata.str1.1	0x4303cd45	0x16	G:\TEMP\GoKit4_Demo\gagent\libgagent.a(gserver.o)	#SHT_PROGBITS,SHF_ALLOC|SHF_MERGE|SHF_STRINGS,1
	0x4303cd45		.L.str.92
.rodata.str1.1	0x4303cd5b	0x25	G:\TEMP\GoKit4_Demo\gagent\libgagent.a(gserver.o)	#SHT_PROGBITS,SHF_ALLOC|SHF_MERGE|SHF_STRINGS,1
	0x4303cd5b		.L.str.93
.rodata.str1.1	0x4303cd80	0x17	G:\TEMP\GoKit4_Demo\gagent\libgagent.a(gserver.o)	#SHT_PROGBITS,SHF_ALLOC|SHF_MERGE|SHF_STRINGS,1
	0x4303cd80		.L.str.94
.rodata.str1.1	0x4303cd97	0x1f	G:\TEMP\GoKit4_Demo\gagent\libgagent.a(gserver.o)	#SHT_PROGBITS,SHF_ALLOC|SHF_MERGE|SHF_STRINGS,1
	0x4303cd97		.L.str.95
.rodata.str1.1	0x4303cdb6	0xa	G:\TEMP\GoKit4_Demo\gagent\libgagent.a(gserver.o)	#SHT_PROGBITS,SHF_ALLOC|SHF_MERGE|SHF_STRINGS,1
	0x4303cdb6		.L.str.96
.rodata.str1.1	0x4303cdc0	0x1f	G:\TEMP\GoKit4_Demo\gagent\libgagent.a(gserver.o)	#SHT_PROGBITS,SHF_ALLOC|SHF_MERGE|SHF_STRINGS,1
	0x4303cdc0		.L.str.97
.rodata.str1.1	0x4303cddf	0x26	G:\TEMP\GoKit4_Demo\gagent\libgagent.a(gserver.o)	#SHT_PROGBITS,SHF_ALLOC|SHF_MERGE|SHF_STRINGS,1
	0x4303cddf		.L.str.98
.rodata.str1.1	0x4303ce05	0x2b	G:\TEMP\GoKit4_Demo\gagent\libgagent.a(gserver.o)	#SHT_PROGBITS,SHF_ALLOC|SHF_MERGE|SHF_STRINGS,1
	0x4303ce05		.L.str.99
.rodata.str1.1	0x4303ce30	0x12	G:\TEMP\GoKit4_Demo\gagent\libgagent.a(gserver.o)	#SHT_PROGBITS,SHF_ALLOC|SHF_MERGE|SHF_STRINGS,1
	0x4303ce30		.L__FUNCTION__.gatProvisionParse
.rodata.str1.1	0x4303ce42	0x5	G:\TEMP\GoKit4_Demo\gagent\libgagent.a(gserver.o)	#SHT_PROGBITS,SHF_ALLOC|SHF_MERGE|SHF_STRINGS,1
	0x4303ce42		.L.str.100
.rodata.str1.1	0x4303ce47	0x1c	G:\TEMP\GoKit4_Demo\gagent\libgagent.a(gserver.o)	#SHT_PROGBITS,SHF_ALLOC|SHF_MERGE|SHF_STRINGS,1
	0x4303ce47		.L.str.101
.rodata.str1.1	0x4303ce63	0x1c	G:\TEMP\GoKit4_Demo\gagent\libgagent.a(gserver.o)	#SHT_PROGBITS,SHF_ALLOC|SHF_MERGE|SHF_STRINGS,1
	0x4303ce63		.L.str.103
.rodata.str1.1	0x4303ce7f	0x16	G:\TEMP\GoKit4_Demo\gagent\libgagent.a(gserver.o)	#SHT_PROGBITS,SHF_ALLOC|SHF_MERGE|SHF_STRINGS,1
	0x4303ce7f		.L__FUNCTION__.gatDeviceDisableRecCb
.rodata.str1.1	0x4303ce95	0x27	G:\TEMP\GoKit4_Demo\gagent\libgagent.a(gserver.o)	#SHT_PROGBITS,SHF_ALLOC|SHF_MERGE|SHF_STRINGS,1
	0x4303ce95		.L.str.104
.rodata.str1.1	0x4303cebc	0x27	G:\TEMP\GoKit4_Demo\gagent\libgagent.a(gserver.o)	#SHT_PROGBITS,SHF_ALLOC|SHF_MERGE|SHF_STRINGS,1
	0x4303cebc		.L.str.105
.rodata.str1.1	0x4303cee3	0x40	G:\TEMP\GoKit4_Demo\gagent\libgagent.a(gserver.o)	#SHT_PROGBITS,SHF_ALLOC|SHF_MERGE|SHF_STRINGS,1
	0x4303cee3		.L.str.106
.rodata.str1.1	0x4303cf23	0x1d	G:\TEMP\GoKit4_Demo\gagent\libgagent.a(gserver.o)	#SHT_PROGBITS,SHF_ALLOC|SHF_MERGE|SHF_STRINGS,1
	0x4303cf23		.L.str.107
.rodata.str1.1	0x4303cf40	0x34	G:\TEMP\GoKit4_Demo\gagent\libgagent.a(gserver.o)	#SHT_PROGBITS,SHF_ALLOC|SHF_MERGE|SHF_STRINGS,1
	0x4303cf40		.L.str.108
.rodata.str1.1	0x4303cf74	0x19	G:\TEMP\GoKit4_Demo\gagent\libgagent.a(gserver.o)	#SHT_PROGBITS,SHF_ALLOC|SHF_MERGE|SHF_STRINGS,1
	0x4303cf74		.L.str.109
.rodata.str1.1	0x4303cf8d	0x19	G:\TEMP\GoKit4_Demo\gagent\libgagent.a(gserver.o)	#SHT_PROGBITS,SHF_ALLOC|SHF_MERGE|SHF_STRINGS,1
	0x4303cf8d		.L.str.110
.rodata.str1.1	0x4303cfa6	0x1c	G:\TEMP\GoKit4_Demo\gagent\libgagent.a(gserver.o)	#SHT_PROGBITS,SHF_ALLOC|SHF_MERGE|SHF_STRINGS,1
	0x4303cfa6		.L__FUNCTION__.gatNormalDeviceDisableParse
.rodata.str1.1	0x4303cfc2	0x25	G:\TEMP\GoKit4_Demo\gagent\libgagent.a(gserver.o)	#SHT_PROGBITS,SHF_ALLOC|SHF_MERGE|SHF_STRINGS,1
	0x4303cfc2		.L.str.111
.rodata.str1.1	0x4303cfe7	0xd	G:\TEMP\GoKit4_Demo\gagent\libgagent.a(gserver.o)	#SHT_PROGBITS,SHF_ALLOC|SHF_MERGE|SHF_STRINGS,1
	0x4303cfe7		.L__FUNCTION__.gserverDnsCb
.rodata.str1.1	0x4303cff4	0x29	G:\TEMP\GoKit4_Demo\gagent\libgagent.a(gserver.o)	#SHT_PROGBITS,SHF_ALLOC|SHF_MERGE|SHF_STRINGS,1
	0x4303cff4		.L.str.112
.rodata.str1.1	0x4303d01d	0x3b	G:\TEMP\GoKit4_Demo\gagent\libgagent.a(gserver.o)	#SHT_PROGBITS,SHF_ALLOC|SHF_MERGE|SHF_STRINGS,1
	0x4303d01d		.L.str.113
.rodata.str1.1	0x4303d058	0x11	G:\TEMP\GoKit4_Demo\gagent\libgagent.a(gserver.o)	#SHT_PROGBITS,SHF_ALLOC|SHF_MERGE|SHF_STRINGS,1
	0x4303d058		.L__FUNCTION__.gatRegsiterRecCb
.rodata.str1.1	0x4303d069	0x2d	G:\TEMP\GoKit4_Demo\gagent\libgagent.a(gserver.o)	#SHT_PROGBITS,SHF_ALLOC|SHF_MERGE|SHF_STRINGS,1
	0x4303d069		.L.str.114
.rodata.str1.1	0x4303d096	0x34	G:\TEMP\GoKit4_Demo\gagent\libgagent.a(gserver.o)	#SHT_PROGBITS,SHF_ALLOC|SHF_MERGE|SHF_STRINGS,1
	0x4303d096		.L.str.115
.rodata.str1.1	0x4303d0ca	0x2f	G:\TEMP\GoKit4_Demo\gagent\libgagent.a(gserver.o)	#SHT_PROGBITS,SHF_ALLOC|SHF_MERGE|SHF_STRINGS,1
	0x4303d0ca		.L.str.116
.rodata.str1.1	0x4303d0f9	0x15	G:\TEMP\GoKit4_Demo\gagent\libgagent.a(gserver.o)	#SHT_PROGBITS,SHF_ALLOC|SHF_MERGE|SHF_STRINGS,1
	0x4303d0f9		.L.str.117
.rodata.str1.1	0x4303d10e	0x2f	G:\TEMP\GoKit4_Demo\gagent\libgagent.a(gserver.o)	#SHT_PROGBITS,SHF_ALLOC|SHF_MERGE|SHF_STRINGS,1
	0x4303d10e		.L.str.118
.rodata.str1.1	0x4303d13d	0x26	G:\TEMP\GoKit4_Demo\gagent\libgagent.a(gserver.o)	#SHT_PROGBITS,SHF_ALLOC|SHF_MERGE|SHF_STRINGS,1
	0x4303d13d		.L.str.119
.rodata.str1.1	0x4303d163	0x3b	G:\TEMP\GoKit4_Demo\gagent\libgagent.a(gserver.o)	#SHT_PROGBITS,SHF_ALLOC|SHF_MERGE|SHF_STRINGS,1
	0x4303d163		.L.str.120
.rodata.str1.1	0x4303d19e	0x11	G:\TEMP\GoKit4_Demo\gagent\libgagent.a(gserver.o)	#SHT_PROGBITS,SHF_ALLOC|SHF_MERGE|SHF_STRINGS,1
	0x4303d19e		.L__FUNCTION__.gatRegsiterTimer
.rodata.str1.1	0x4303d1af	0x4	G:\TEMP\GoKit4_Demo\gagent\libgagent.a(gserver.o)	#SHT_PROGBITS,SHF_ALLOC|SHF_MERGE|SHF_STRINGS,1
	0x4303d1af		.L.str.121
.rodata.str1.1	0x4303d1b3	0x9	G:\TEMP\GoKit4_Demo\gagent\libgagent.a(gserver.o)	#SHT_PROGBITS,SHF_ALLOC|SHF_MERGE|SHF_STRINGS,1
	0x4303d1b3		.L.str.122
.rodata.str1.1	0x4303d1bc	0x18	G:\TEMP\GoKit4_Demo\gagent\libgagent.a(gserver.o)	#SHT_PROGBITS,SHF_ALLOC|SHF_MERGE|SHF_STRINGS,1
	0x4303d1bc		.L.str.123
.rodata.str1.1	0x4303d1d4	0x11	G:\TEMP\GoKit4_Demo\gagent\libgagent.a(gserver.o)	#SHT_PROGBITS,SHF_ALLOC|SHF_MERGE|SHF_STRINGS,1
	0x4303d1d4		.L__FUNCTION__.gatRegsiterParse
.rodata.str1.1	0x4303d1e5	0x25	G:\TEMP\GoKit4_Demo\gagent\libgagent.a(gserver.o)	#SHT_PROGBITS,SHF_ALLOC|SHF_MERGE|SHF_STRINGS,1
	0x4303d1e5		.L.str.124
.rodata.str1.1	0x4303d20a	0x1e	G:\TEMP\GoKit4_Demo\gagent\libgagent.a(gserver.o)	#SHT_PROGBITS,SHF_ALLOC|SHF_MERGE|SHF_STRINGS,1
	0x4303d20a		.L.str.125
.rodata.str1.1	0x4303d228	0x1a	G:\TEMP\GoKit4_Demo\gagent\libgagent.a(gserver.o)	#SHT_PROGBITS,SHF_ALLOC|SHF_MERGE|SHF_STRINGS,1
	0x4303d228		.L__FUNCTION__.gatGServerHandleGatStatus
.rodata.str1.1	0x4303d242	0x2d	G:\TEMP\GoKit4_Demo\gagent\libgagent.a(gserver.o)	#SHT_PROGBITS,SHF_ALLOC|SHF_MERGE|SHF_STRINGS,1
	0x4303d242		.L.str.126
.rodata.str1.1	0x4303d26f	0x26	G:\TEMP\GoKit4_Demo\gagent\libgagent.a(gserver.o)	#SHT_PROGBITS,SHF_ALLOC|SHF_MERGE|SHF_STRINGS,1
	0x4303d26f		.L.str.127
.rodata.str1.1	0x4303d295	0x19	G:\TEMP\GoKit4_Demo\gagent\libgagent.a(gserver.o)	#SHT_PROGBITS,SHF_ALLOC|SHF_MERGE|SHF_STRINGS,1
	0x4303d295		.L.str.128
.rodata.str1.1	0x4303d2ae	0x29	G:\TEMP\GoKit4_Demo\gagent\libgagent.a(gserver.o)	#SHT_PROGBITS,SHF_ALLOC|SHF_MERGE|SHF_STRINGS,1
	0x4303d2ae		.L.str.129
.rodata.str1.1	0x4303d2d7	0x23	G:\TEMP\GoKit4_Demo\gagent\libgagent.a(gserver.o)	#SHT_PROGBITS,SHF_ALLOC|SHF_MERGE|SHF_STRINGS,1
	0x4303d2d7		.L.str.130
.rodata.str1.1	0x4303d2fa	0x26	G:\TEMP\GoKit4_Demo\gagent\libgagent.a(gserver.o)	#SHT_PROGBITS,SHF_ALLOC|SHF_MERGE|SHF_STRINGS,1
	0x4303d2fa		.L.str.131
.rodata.str1.1	0x4303d320	0x22	G:\TEMP\GoKit4_Demo\gagent\libgagent.a(gserver.o)	#SHT_PROGBITS,SHF_ALLOC|SHF_MERGE|SHF_STRINGS,1
	0x4303d320		.L.str.132
.rodata.str1.1	0x4303d342	0x1e	G:\TEMP\GoKit4_Demo\gagent\libgagent.a(gserver.o)	#SHT_PROGBITS,SHF_ALLOC|SHF_MERGE|SHF_STRINGS,1
	0x4303d342		.L.str.133
.rodata.str1.1	0x4303d360	0x14	G:\TEMP\GoKit4_Demo\gagent\libgagent.a(gserver.o)	#SHT_PROGBITS,SHF_ALLOC|SHF_MERGE|SHF_STRINGS,1
	0x4303d360		.L__FUNCTION__.gserverExcepTimeout
.rodata.str1.1	0x4303d374	0x4b	G:\TEMP\GoKit4_Demo\gagent\libgagent.a(gserver.o)	#SHT_PROGBITS,SHF_ALLOC|SHF_MERGE|SHF_STRINGS,1
	0x4303d374		.L.str.134
PADDING_ALIGNMENT	0x4303d3bf	0x1	0x0
.rodata.str1.8	0x4303d3c0	0xd	G:\TEMP\GoKit4_Demo\gagent\libgagent.a(gserver.o)	#SHT_PROGBITS,SHF_ALLOC|SHF_MERGE|SHF_STRINGS,8
	0x4303d3c0		.L.str.43
.rodata.str1.1	0x4303d3cd	0x14	G:\TEMP\GoKit4_Demo\gagent\libgagent.a(httpgat.o)	#SHT_PROGBITS,SHF_ALLOC|SHF_MERGE|SHF_STRINGS,1
	0x4303d3cd		.L.str
.rodata.str1.1	0x4303d3e1	0x13	G:\TEMP\GoKit4_Demo\gagent\libgagent.a(httpgat.o)	#SHT_PROGBITS,SHF_ALLOC|SHF_MERGE|SHF_STRINGS,1
	0x4303d3e1		.L.str.1
.rodata.str1.1	0x4303d3f4	0x24	G:\TEMP\GoKit4_Demo\gagent\libgagent.a(httpgat.o)	#SHT_PROGBITS,SHF_ALLOC|SHF_MERGE|SHF_STRINGS,1
	0x4303d3f4		.L.str.4
.rodata.str1.1	0x4303d418	0x10	G:\TEMP\GoKit4_Demo\gagent\libgagent.a(httpgat.o)	#SHT_PROGBITS,SHF_ALLOC|SHF_MERGE|SHF_STRINGS,1
	0x4303d418		.L__FUNCTION__.httpDelSendNode
.rodata.str1.1	0x4303d428	0x23	G:\TEMP\GoKit4_Demo\gagent\libgagent.a(httpgat.o)	#SHT_PROGBITS,SHF_ALLOC|SHF_MERGE|SHF_STRINGS,1
	0x4303d428		.L.str.7
.rodata.str1.1	0x4303d44b	0xf	G:\TEMP\GoKit4_Demo\gagent\libgagent.a(httpgat.o)	#SHT_PROGBITS,SHF_ALLOC|SHF_MERGE|SHF_STRINGS,1
	0x4303d44b		.L__FUNCTION__.httpDelRecNode
.rodata.str1.1	0x4303d45a	0x2a	G:\TEMP\GoKit4_Demo\gagent\libgagent.a(httpgat.o)	#SHT_PROGBITS,SHF_ALLOC|SHF_MERGE|SHF_STRINGS,1
	0x4303d45a		.L.str.8
.rodata.str1.1	0x4303d484	0xa	G:\TEMP\GoKit4_Demo\gagent\libgagent.a(httpgat.o)	#SHT_PROGBITS,SHF_ALLOC|SHF_MERGE|SHF_STRINGS,1
	0x4303d484		.L__FUNCTION__.httpRecCb
.rodata.str1.1	0x4303d48e	0x19	G:\TEMP\GoKit4_Demo\gagent\libgagent.a(httpgat.o)	#SHT_PROGBITS,SHF_ALLOC|SHF_MERGE|SHF_STRINGS,1
	0x4303d48e		.L.str.10
.rodata.str1.1	0x4303d4a7	0x28	G:\TEMP\GoKit4_Demo\gagent\libgagent.a(httpgat.o)	#SHT_PROGBITS,SHF_ALLOC|SHF_MERGE|SHF_STRINGS,1
	0x4303d4a7		.L.str.11
.rodata.str1.1	0x4303d4cf	0x2c	G:\TEMP\GoKit4_Demo\gagent\libgagent.a(httpgat.o)	#SHT_PROGBITS,SHF_ALLOC|SHF_MERGE|SHF_STRINGS,1
	0x4303d4cf		.L.str.12
.rodata.str1.1	0x4303d4fb	0x29	G:\TEMP\GoKit4_Demo\gagent\libgagent.a(httpgat.o)	#SHT_PROGBITS,SHF_ALLOC|SHF_MERGE|SHF_STRINGS,1
	0x4303d4fb		.L.str.13
.rodata.str1.1	0x4303d524	0xe	G:\TEMP\GoKit4_Demo\gagent\libgagent.a(httpgat.o)	#SHT_PROGBITS,SHF_ALLOC|SHF_MERGE|SHF_STRINGS,1
	0x4303d524		.L.str.14
.rodata.str1.1	0x4303d532	0x29	G:\TEMP\GoKit4_Demo\gagent\libgagent.a(httpgat.o)	#SHT_PROGBITS,SHF_ALLOC|SHF_MERGE|SHF_STRINGS,1
	0x4303d532		.L.str.15
.rodata.str1.1	0x4303d55b	0x2a	G:\TEMP\GoKit4_Demo\gagent\libgagent.a(httpgat.o)	#SHT_PROGBITS,SHF_ALLOC|SHF_MERGE|SHF_STRINGS,1
	0x4303d55b		.L.str.16
.rodata.str1.1	0x4303d585	0x22	G:\TEMP\GoKit4_Demo\gagent\libgagent.a(httpgat.o)	#SHT_PROGBITS,SHF_ALLOC|SHF_MERGE|SHF_STRINGS,1
	0x4303d585		.L.str.17
.rodata.str1.1	0x4303d5a7	0x31	G:\TEMP\GoKit4_Demo\gagent\libgagent.a(httpgat.o)	#SHT_PROGBITS,SHF_ALLOC|SHF_MERGE|SHF_STRINGS,1
	0x4303d5a7		.L.str.18
.rodata.str1.1	0x4303d5d8	0x21	G:\TEMP\GoKit4_Demo\gagent\libgagent.a(httpgat.o)	#SHT_PROGBITS,SHF_ALLOC|SHF_MERGE|SHF_STRINGS,1
	0x4303d5d8		.L.str.19
.rodata.str1.1	0x4303d5f9	0x57	G:\TEMP\GoKit4_Demo\gagent\libgagent.a(httpgat.o)	#SHT_PROGBITS,SHF_ALLOC|SHF_MERGE|SHF_STRINGS,1
	0x4303d5f9		.L.str.20
.rodata.str1.1	0x4303d650	0x21	G:\TEMP\GoKit4_Demo\gagent\libgagent.a(httpgat.o)	#SHT_PROGBITS,SHF_ALLOC|SHF_MERGE|SHF_STRINGS,1
	0x4303d650		.L.str.21
.rodata.str1.1	0x4303d671	0x20	G:\TEMP\GoKit4_Demo\gagent\libgagent.a(httpgat.o)	#SHT_PROGBITS,SHF_ALLOC|SHF_MERGE|SHF_STRINGS,1
	0x4303d671		.L.str.22
.rodata.str1.1	0x4303d691	0x22	G:\TEMP\GoKit4_Demo\gagent\libgagent.a(httpgat.o)	#SHT_PROGBITS,SHF_ALLOC|SHF_MERGE|SHF_STRINGS,1
	0x4303d691		.L.str.23
.rodata.str1.1	0x4303d6b3	0xe	G:\TEMP\GoKit4_Demo\gagent\libgagent.a(httpgat.o)	#SHT_PROGBITS,SHF_ALLOC|SHF_MERGE|SHF_STRINGS,1
	0x4303d6b3		.L__FUNCTION__.httpSigHandle
.rodata.str1.1	0x4303d6c1	0x17	G:\TEMP\GoKit4_Demo\gagent\libgagent.a(httpgat.o)	#SHT_PROGBITS,SHF_ALLOC|SHF_MERGE|SHF_STRINGS,1
	0x4303d6c1		.L.str.24
.rodata.str1.1	0x4303d6d8	0x13	G:\TEMP\GoKit4_Demo\gagent\libgagent.a(httpgat.o)	#SHT_PROGBITS,SHF_ALLOC|SHF_MERGE|SHF_STRINGS,1
	0x4303d6d8		.L.str.25
.rodata.str1.1	0x4303d6eb	0x20	G:\TEMP\GoKit4_Demo\gagent\libgagent.a(httpgat.o)	#SHT_PROGBITS,SHF_ALLOC|SHF_MERGE|SHF_STRINGS,1
	0x4303d6eb		.L.str.26
.rodata.str1.1	0x4303d70b	0x16	G:\TEMP\GoKit4_Demo\gagent\libgagent.a(httpgat.o)	#SHT_PROGBITS,SHF_ALLOC|SHF_MERGE|SHF_STRINGS,1
	0x4303d70b		.L.str.27
.rodata.str1.1	0x4303d721	0xb	G:\TEMP\GoKit4_Demo\gagent\libgagent.a(httpgat.o)	#SHT_PROGBITS,SHF_ALLOC|SHF_MERGE|SHF_STRINGS,1
	0x4303d721		.L__FUNCTION__.httpConnCb
.rodata.str1.1	0x4303d72c	0x1e	G:\TEMP\GoKit4_Demo\gagent\libgagent.a(httpgat.o)	#SHT_PROGBITS,SHF_ALLOC|SHF_MERGE|SHF_STRINGS,1
	0x4303d72c		.L.str.28
.rodata.str1.1	0x4303d74a	0x30	G:\TEMP\GoKit4_Demo\gagent\libgagent.a(httpgat.o)	#SHT_PROGBITS,SHF_ALLOC|SHF_MERGE|SHF_STRINGS,1
	0x4303d74a		.L.str.29
.rodata.str1.1	0x4303d77a	0x26	G:\TEMP\GoKit4_Demo\gagent\libgagent.a(httpgat.o)	#SHT_PROGBITS,SHF_ALLOC|SHF_MERGE|SHF_STRINGS,1
	0x4303d77a		.L.str.30
.rodata.str1.1	0x4303d7a0	0x17	G:\TEMP\GoKit4_Demo\gagent\libgagent.a(httpgat.o)	#SHT_PROGBITS,SHF_ALLOC|SHF_MERGE|SHF_STRINGS,1
	0x4303d7a0		.L.str.31
.rodata.str1.1	0x4303d7b7	0x1e	G:\TEMP\GoKit4_Demo\gagent\libgagent.a(httpgat.o)	#SHT_PROGBITS,SHF_ALLOC|SHF_MERGE|SHF_STRINGS,1
	0x4303d7b7		.L.str.32
.rodata.str1.1	0x4303d7d5	0x1a	G:\TEMP\GoKit4_Demo\gagent\libgagent.a(httpgat.o)	#SHT_PROGBITS,SHF_ALLOC|SHF_MERGE|SHF_STRINGS,1
	0x4303d7d5		.L.str.33
.rodata.str1.1	0x4303d7ef	0xb	G:\TEMP\GoKit4_Demo\gagent\libgagent.a(httpgat.o)	#SHT_PROGBITS,SHF_ALLOC|SHF_MERGE|SHF_STRINGS,1
	0x4303d7ef		.L__FUNCTION__.httpSendCb
.rodata.str1.1	0x4303d7fa	0x1d	G:\TEMP\GoKit4_Demo\gagent\libgagent.a(httpgat.o)	#SHT_PROGBITS,SHF_ALLOC|SHF_MERGE|SHF_STRINGS,1
	0x4303d7fa		.L.str.34
.rodata.str1.1	0x4303d817	0x20	G:\TEMP\GoKit4_Demo\gagent\libgagent.a(httpgat.o)	#SHT_PROGBITS,SHF_ALLOC|SHF_MERGE|SHF_STRINGS,1
	0x4303d817		.L.str.35
.rodata.str1.1	0x4303d837	0xb	G:\TEMP\GoKit4_Demo\gagent\libgagent.a(httpgat.o)	#SHT_PROGBITS,SHF_ALLOC|SHF_MERGE|SHF_STRINGS,1
	0x4303d837		.L__FUNCTION__.gatHttpReq
.rodata.str1.1	0x4303d842	0x2c	G:\TEMP\GoKit4_Demo\gagent\libgagent.a(httpgat.o)	#SHT_PROGBITS,SHF_ALLOC|SHF_MERGE|SHF_STRINGS,1
	0x4303d842		.L.str.36
.rodata.str1.1	0x4303d86e	0x32	G:\TEMP\GoKit4_Demo\gagent\libgagent.a(httpgat.o)	#SHT_PROGBITS,SHF_ALLOC|SHF_MERGE|SHF_STRINGS,1
	0x4303d86e		.L.str.37
.rodata.str1.1	0x4303d8a0	0x21	G:\TEMP\GoKit4_Demo\gagent\libgagent.a(httpgat.o)	#SHT_PROGBITS,SHF_ALLOC|SHF_MERGE|SHF_STRINGS,1
	0x4303d8a0		.L.str.38
.rodata.str1.1	0x4303d8c1	0x38	G:\TEMP\GoKit4_Demo\gagent\libgagent.a(httpgat.o)	#SHT_PROGBITS,SHF_ALLOC|SHF_MERGE|SHF_STRINGS,1
	0x4303d8c1		.L.str.39
.rodata.str1.1	0x4303d8f9	0x19	G:\TEMP\GoKit4_Demo\gagent\libgagent.a(httpgat.o)	#SHT_PROGBITS,SHF_ALLOC|SHF_MERGE|SHF_STRINGS,1
	0x4303d8f9		.L.str.40
.rodata.str1.1	0x4303d912	0x2a	G:\TEMP\GoKit4_Demo\gagent\libgagent.a(httpgat.o)	#SHT_PROGBITS,SHF_ALLOC|SHF_MERGE|SHF_STRINGS,1
	0x4303d912		.L.str.46
.rodata.str1.1	0x4303d93c	0x17	G:\TEMP\GoKit4_Demo\gagent\libgagent.a(httpgat.o)	#SHT_PROGBITS,SHF_ALLOC|SHF_MERGE|SHF_STRINGS,1
	0x4303d93c		.L__FUNCTION__.httpPostContextAdapter
.rodata.str1.1	0x4303d953	0x10	G:\TEMP\GoKit4_Demo\gagent\libgagent.a(httpgat.o)	#SHT_PROGBITS,SHF_ALLOC|SHF_MERGE|SHF_STRINGS,1
	0x4303d953		.L__FUNCTION__.httpRecNodeInit
.rodata.str1.1	0x4303d963	0x22	G:\TEMP\GoKit4_Demo\gagent\libgagent.a(httpgat.o)	#SHT_PROGBITS,SHF_ALLOC|SHF_MERGE|SHF_STRINGS,1
	0x4303d963		.L.str.47
.rodata.str1.1	0x4303d985	0x64	G:\TEMP\GoKit4_Demo\gagent\libgagent.a(httpgat.o)	#SHT_PROGBITS,SHF_ALLOC|SHF_MERGE|SHF_STRINGS,1
	0x4303d985		.L.str.48
.rodata.str1.1	0x4303d9e9	0x68	G:\TEMP\GoKit4_Demo\gagent\libgagent.a(httpgat.o)	#SHT_PROGBITS,SHF_ALLOC|SHF_MERGE|SHF_STRINGS,1
	0x4303d9e9		.L.str.49
.rodata.str1.1	0x4303da51	0x68	G:\TEMP\GoKit4_Demo\gagent\libgagent.a(httpgat.o)	#SHT_PROGBITS,SHF_ALLOC|SHF_MERGE|SHF_STRINGS,1
	0x4303da51		.L.str.50
.rodata.str1.1	0x4303dab9	0x42	G:\TEMP\GoKit4_Demo\gagent\libgagent.a(httpgat.o)	#SHT_PROGBITS,SHF_ALLOC|SHF_MERGE|SHF_STRINGS,1
	0x4303dab9		.L.str.51
.rodata.str1.1	0x4303dafb	0x45	G:\TEMP\GoKit4_Demo\gagent\libgagent.a(httpgat.o)	#SHT_PROGBITS,SHF_ALLOC|SHF_MERGE|SHF_STRINGS,1
	0x4303dafb		.L.str.52
.rodata.str1.1	0x4303db40	0x9	G:\TEMP\GoKit4_Demo\gagent\libgagent.a(httpgat.o)	#SHT_PROGBITS,SHF_ALLOC|SHF_MERGE|SHF_STRINGS,1
	0x4303db40		.L__FUNCTION__.httpBody
.rodata.str1.1	0x4303db49	0x2c	G:\TEMP\GoKit4_Demo\gagent\libgagent.a(httpgat.o)	#SHT_PROGBITS,SHF_ALLOC|SHF_MERGE|SHF_STRINGS,1
	0x4303db49		.L.str.53
.rodata.str1.1	0x4303db75	0x25	G:\TEMP\GoKit4_Demo\gagent\libgagent.a(httpgat.o)	#SHT_PROGBITS,SHF_ALLOC|SHF_MERGE|SHF_STRINGS,1
	0x4303db75		.L.str.54
.rodata.str1.1	0x4303db9a	0x37	G:\TEMP\GoKit4_Demo\gagent\libgagent.a(httpgat.o)	#SHT_PROGBITS,SHF_ALLOC|SHF_MERGE|SHF_STRINGS,1
	0x4303db9a		.L.str.55
.rodata.str1.1	0x4303dbd1	0x2d	G:\TEMP\GoKit4_Demo\gagent\libgagent.a(httpgat.o)	#SHT_PROGBITS,SHF_ALLOC|SHF_MERGE|SHF_STRINGS,1
	0x4303dbd1		.L.str.56
.rodata.str1.1	0x4303dbfe	0x31	G:\TEMP\GoKit4_Demo\gagent\libgagent.a(httpgat.o)	#SHT_PROGBITS,SHF_ALLOC|SHF_MERGE|SHF_STRINGS,1
	0x4303dbfe		.L.str.57
.rodata.str1.1	0x4303dc2f	0x3f	G:\TEMP\GoKit4_Demo\gagent\libgagent.a(httpgat.o)	#SHT_PROGBITS,SHF_ALLOC|SHF_MERGE|SHF_STRINGS,1
	0x4303dc2f		.L.str.58
.rodata.str1.1	0x4303dc6e	0x27	G:\TEMP\GoKit4_Demo\gagent\libgagent.a(httpgat.o)	#SHT_PROGBITS,SHF_ALLOC|SHF_MERGE|SHF_STRINGS,1
	0x4303dc6e		.L.str.59
.rodata.str1.1	0x4303dc95	0x25	G:\TEMP\GoKit4_Demo\gagent\libgagent.a(httpgat.o)	#SHT_PROGBITS,SHF_ALLOC|SHF_MERGE|SHF_STRINGS,1
	0x4303dc95		.L.str.60
.rodata.str1.1	0x4303dcba	0x4b	G:\TEMP\GoKit4_Demo\gagent\libgagent.a(httpgat.o)	#SHT_PROGBITS,SHF_ALLOC|SHF_MERGE|SHF_STRINGS,1
	0x4303dcba		.L.str.61
.rodata.str1.1	0x4303dd05	0x25	G:\TEMP\GoKit4_Demo\gagent\libgagent.a(httpgat.o)	#SHT_PROGBITS,SHF_ALLOC|SHF_MERGE|SHF_STRINGS,1
	0x4303dd05		.L.str.62
.rodata.str1.1	0x4303dd2a	0x26	G:\TEMP\GoKit4_Demo\gagent\libgagent.a(httpgat.o)	#SHT_PROGBITS,SHF_ALLOC|SHF_MERGE|SHF_STRINGS,1
	0x4303dd2a		.L.str.63
.rodata.str1.1	0x4303dd50	0xf	G:\TEMP\GoKit4_Demo\gagent\libgagent.a(httpgat.o)	#SHT_PROGBITS,SHF_ALLOC|SHF_MERGE|SHF_STRINGS,1
	0x4303dd50		.L__FUNCTION__.httpBodyUserCb
.rodata.str1.1	0x4303dd5f	0x22	G:\TEMP\GoKit4_Demo\gagent\libgagent.a(httpgat.o)	#SHT_PROGBITS,SHF_ALLOC|SHF_MERGE|SHF_STRINGS,1
	0x4303dd5f		.L.str.64
.rodata.str1.1	0x4303dd81	0x1a	G:\TEMP\GoKit4_Demo\gagent\libgagent.a(httpgat.o)	#SHT_PROGBITS,SHF_ALLOC|SHF_MERGE|SHF_STRINGS,1
	0x4303dd81		.L.str.65
.rodata.str1.1	0x4303dd9b	0xe	G:\TEMP\GoKit4_Demo\gagent\libgagent.a(httpgat.o)	#SHT_PROGBITS,SHF_ALLOC|SHF_MERGE|SHF_STRINGS,1
	0x4303dd9b		.L__FUNCTION__.httpParseHead
.rodata.str1.1	0x4303dda9	0x17	G:\TEMP\GoKit4_Demo\gagent\libgagent.a(httpgat.o)	#SHT_PROGBITS,SHF_ALLOC|SHF_MERGE|SHF_STRINGS,1
	0x4303dda9		.L.str.66
.rodata.str1.1	0x4303ddc0	0x13	G:\TEMP\GoKit4_Demo\gagent\libgagent.a(httpgat.o)	#SHT_PROGBITS,SHF_ALLOC|SHF_MERGE|SHF_STRINGS,1
	0x4303ddc0		.L.str.67
.rodata.str1.1	0x4303ddd3	0x10	G:\TEMP\GoKit4_Demo\gagent\libgagent.a(httpgat.o)	#SHT_PROGBITS,SHF_ALLOC|SHF_MERGE|SHF_STRINGS,1
	0x4303ddd3		.L.str.68
.rodata.str1.1	0x4303dde3	0x26	G:\TEMP\GoKit4_Demo\gagent\libgagent.a(httpgat.o)	#SHT_PROGBITS,SHF_ALLOC|SHF_MERGE|SHF_STRINGS,1
	0x4303dde3		.L.str.69
.rodata.str1.1	0x4303de09	0x1a	G:\TEMP\GoKit4_Demo\gagent\libgagent.a(httpgat.o)	#SHT_PROGBITS,SHF_ALLOC|SHF_MERGE|SHF_STRINGS,1
	0x4303de09		.L.str.70
.rodata.str1.1	0x4303de23	0x26	G:\TEMP\GoKit4_Demo\gagent\libgagent.a(httpgat.o)	#SHT_PROGBITS,SHF_ALLOC|SHF_MERGE|SHF_STRINGS,1
	0x4303de23		.L.str.71
.rodata.str1.1	0x4303de49	0x25	G:\TEMP\GoKit4_Demo\gagent\libgagent.a(httpgat.o)	#SHT_PROGBITS,SHF_ALLOC|SHF_MERGE|SHF_STRINGS,1
	0x4303de49		.L.str.72
.rodata.str1.1	0x4303de6e	0x1b	G:\TEMP\GoKit4_Demo\gagent\libgagent.a(httpgat.o)	#SHT_PROGBITS,SHF_ALLOC|SHF_MERGE|SHF_STRINGS,1
	0x4303de6e		.L.str.73
.rodata.str1.1	0x4303de89	0x10	G:\TEMP\GoKit4_Demo\gagent\libgagent.a(httpgat.o)	#SHT_PROGBITS,SHF_ALLOC|SHF_MERGE|SHF_STRINGS,1
	0x4303de89		.L__FUNCTION__.gatHTTPRecvTick
.rodata.str1.1	0x4303de99	0x1b	G:\TEMP\GoKit4_Demo\gagent\libgagent.a(ioffile.o)	#SHT_PROGBITS,SHF_ALLOC|SHF_MERGE|SHF_STRINGS,1
	0x4303de99		.L.str.2
.rodata.str1.1	0x4303deb4	0xc	G:\TEMP\GoKit4_Demo\gagent\libgagent.a(ioffile.o)	#SHT_PROGBITS,SHF_ALLOC|SHF_MERGE|SHF_STRINGS,1
	0x4303deb4		.L__FUNCTION__.iofFileOpen
.rodata.str1.1	0x4303dec0	0x1a	G:\TEMP\GoKit4_Demo\gagent\libgagent.a(ioffile.o)	#SHT_PROGBITS,SHF_ALLOC|SHF_MERGE|SHF_STRINGS,1
	0x4303dec0		.L.str.3
.rodata.str1.1	0x4303deda	0x2b	G:\TEMP\GoKit4_Demo\gagent\libgagent.a(ioffile.o)	#SHT_PROGBITS,SHF_ALLOC|SHF_MERGE|SHF_STRINGS,1
	0x4303deda		.L.str.4
.rodata.str1.1	0x4303df05	0x20	G:\TEMP\GoKit4_Demo\gagent\libgagent.a(ioffile.o)	#SHT_PROGBITS,SHF_ALLOC|SHF_MERGE|SHF_STRINGS,1
	0x4303df05		.L.str.5
.rodata.str1.1	0x4303df25	0x28	G:\TEMP\GoKit4_Demo\gagent\libgagent.a(ioffile.o)	#SHT_PROGBITS,SHF_ALLOC|SHF_MERGE|SHF_STRINGS,1
	0x4303df25		.L.str.6
.rodata.str1.1	0x4303df4d	0xd	G:\TEMP\GoKit4_Demo\gagent\libgagent.a(ioffile.o)	#SHT_PROGBITS,SHF_ALLOC|SHF_MERGE|SHF_STRINGS,1
	0x4303df4d		.L__FUNCTION__.iofFileClose
.rodata.str1.1	0x4303df5a	0xc	G:\TEMP\GoKit4_Demo\gagent\libgagent.a(ioffile.o)	#SHT_PROGBITS,SHF_ALLOC|SHF_MERGE|SHF_STRINGS,1
	0x4303df5a		.L__FUNCTION__.iofFileRead
.rodata.str1.1	0x4303df66	0x20	G:\TEMP\GoKit4_Demo\gagent\libgagent.a(ioffile.o)	#SHT_PROGBITS,SHF_ALLOC|SHF_MERGE|SHF_STRINGS,1
	0x4303df66		.L.str.7
.rodata.str1.1	0x4303df86	0xd	G:\TEMP\GoKit4_Demo\gagent\libgagent.a(ioffile.o)	#SHT_PROGBITS,SHF_ALLOC|SHF_MERGE|SHF_STRINGS,1
	0x4303df86		.L__FUNCTION__.iofFileWrite
.rodata.str1.1	0x4303df93	0x1d	G:\TEMP\GoKit4_Demo\gagent\libgagent.a(ioffile.o)	#SHT_PROGBITS,SHF_ALLOC|SHF_MERGE|SHF_STRINGS,1
	0x4303df93		.L.str.9
.rodata.str1.1	0x4303dfb0	0x20	G:\TEMP\GoKit4_Demo\gagent\libgagent.a(ioffile.o)	#SHT_PROGBITS,SHF_ALLOC|SHF_MERGE|SHF_STRINGS,1
	0x4303dfb0		.L.str.10
.rodata.str1.1	0x4303dfd0	0x14	G:\TEMP\GoKit4_Demo\gagent\libgagent.a(ioffile.o)	#SHT_PROGBITS,SHF_ALLOC|SHF_MERGE|SHF_STRINGS,1
	0x4303dfd0		.L.str.11
.rodata.str1.1	0x4303dfe4	0xd	G:\TEMP\GoKit4_Demo\gagent\libgagent.a(ioffile.o)	#SHT_PROGBITS,SHF_ALLOC|SHF_MERGE|SHF_STRINGS,1
	0x4303dfe4		.L__FUNCTION__.iofFileErase
.rodata.str1.1	0x4303dff1	0x19	G:\TEMP\GoKit4_Demo\gagent\libgagent.a(ioffile.o)	#SHT_PROGBITS,SHF_ALLOC|SHF_MERGE|SHF_STRINGS,1
	0x4303dff1		.L.str.12
.rodata.str1.1	0x4303e00a	0x21	G:\TEMP\GoKit4_Demo\gagent\libgagent.a(ioffile.o)	#SHT_PROGBITS,SHF_ALLOC|SHF_MERGE|SHF_STRINGS,1
	0x4303e00a		.L__FUNCTION__.iofFileProductInfoTransformation
.rodata.str1.1	0x4303e02b	0x1e	G:\TEMP\GoKit4_Demo\gagent\libgagent.a(ioffile.o)	#SHT_PROGBITS,SHF_ALLOC|SHF_MERGE|SHF_STRINGS,1
	0x4303e02b		.L.str.13
.rodata.str1.1	0x4303e049	0x3	G:\TEMP\GoKit4_Demo\gagent\libgagent.a(ioffile.o)	#SHT_PROGBITS,SHF_ALLOC|SHF_MERGE|SHF_STRINGS,1
	0x4303e049		.L.str.15
.rodata.str1.1	0x4303e04c	0x27	G:\TEMP\GoKit4_Demo\gagent\libgagent.a(ioffile.o)	#SHT_PROGBITS,SHF_ALLOC|SHF_MERGE|SHF_STRINGS,1
	0x4303e04c		.L.str.16
.rodata.str1.1	0x4303e073	0x24	G:\TEMP\GoKit4_Demo\gagent\libgagent.a(ioffile.o)	#SHT_PROGBITS,SHF_ALLOC|SHF_MERGE|SHF_STRINGS,1
	0x4303e073		.L.str.17
.rodata.str1.1	0x4303e097	0x2f	G:\TEMP\GoKit4_Demo\gagent\libgagent.a(ioffile.o)	#SHT_PROGBITS,SHF_ALLOC|SHF_MERGE|SHF_STRINGS,1
	0x4303e097		.L.str.18
.rodata.str1.1	0x4303e0c6	0x80	G:\TEMP\GoKit4_Demo\gagent\libgagent.a(ioffile.o)	#SHT_PROGBITS,SHF_ALLOC|SHF_MERGE|SHF_STRINGS,1
	0x4303e0c6		.L.str.19
.rodata.str1.1	0x4303e146	0x20	G:\TEMP\GoKit4_Demo\gagent\libgagent.a(ioffile.o)	#SHT_PROGBITS,SHF_ALLOC|SHF_MERGE|SHF_STRINGS,1
	0x4303e146		.L.str.20
.rodata.str1.1	0x4303e166	0x12	G:\TEMP\GoKit4_Demo\gagent\libgagent.a(ioffile.o)	#SHT_PROGBITS,SHF_ALLOC|SHF_MERGE|SHF_STRINGS,1
	0x4303e166		.L.str.21
.rodata.str1.1	0x4303e178	0x25	G:\TEMP\GoKit4_Demo\gagent\libgagent.a(ioffile.o)	#SHT_PROGBITS,SHF_ALLOC|SHF_MERGE|SHF_STRINGS,1
	0x4303e178		.L.str.22
.rodata.str1.1	0x4303e19d	0x1b	G:\TEMP\GoKit4_Demo\gagent\libgagent.a(ioffile.o)	#SHT_PROGBITS,SHF_ALLOC|SHF_MERGE|SHF_STRINGS,1
	0x4303e19d		.L.str.23
.rodata.str1.1	0x4303e1b8	0x44	G:\TEMP\GoKit4_Demo\gagent\libgagent.a(ioffile.o)	#SHT_PROGBITS,SHF_ALLOC|SHF_MERGE|SHF_STRINGS,1
	0x4303e1b8		.L.str.24
.rodata.str1.1	0x4303e1fc	0x1b	G:\TEMP\GoKit4_Demo\gagent\libgagent.a(ioffile.o)	#SHT_PROGBITS,SHF_ALLOC|SHF_MERGE|SHF_STRINGS,1
	0x4303e1fc		.L.str.25
.rodata.str1.1	0x4303e217	0x8	G:\TEMP\GoKit4_Demo\gagent\libgagent.a(ioffile.o)	#SHT_PROGBITS,SHF_ALLOC|SHF_MERGE|SHF_STRINGS,1
	0x4303e217		.L.str.26
.rodata.str1.1	0x4303e21f	0x6	G:\TEMP\GoKit4_Demo\gagent\libgagent.a(iofnet.o)	#SHT_PROGBITS,SHF_ALLOC|SHF_MERGE|SHF_STRINGS,1
	0x4303e21f		.L.str
.rodata.str1.1	0x4303e225	0x9	G:\TEMP\GoKit4_Demo\gagent\libgagent.a(iofnet.o)	#SHT_PROGBITS,SHF_ALLOC|SHF_MERGE|SHF_STRINGS,1
	0x4303e225		.L.str.1
.rodata.str1.1	0x4303e22e	0x19	G:\TEMP\GoKit4_Demo\gagent\libgagent.a(iofnet.o)	#SHT_PROGBITS,SHF_ALLOC|SHF_MERGE|SHF_STRINGS,1
	0x4303e22e		.L.str.4
.rodata.str1.1	0x4303e247	0x12	G:\TEMP\GoKit4_Demo\gagent\libgagent.a(iofnet.o)	#SHT_PROGBITS,SHF_ALLOC|SHF_MERGE|SHF_STRINGS,1
	0x4303e247		.L__FUNCTION__.gatNetSoftApStart
.rodata.str1.1	0x4303e259	0x2b	G:\TEMP\GoKit4_Demo\gagent\libgagent.a(iofnet.o)	#SHT_PROGBITS,SHF_ALLOC|SHF_MERGE|SHF_STRINGS,1
	0x4303e259		.L.str.5
.rodata.str1.1	0x4303e284	0x2b	G:\TEMP\GoKit4_Demo\gagent\libgagent.a(iofnet.o)	#SHT_PROGBITS,SHF_ALLOC|SHF_MERGE|SHF_STRINGS,1
	0x4303e284		.L.str.8
.rodata.str1.1	0x4303e2af	0x30	G:\TEMP\GoKit4_Demo\gagent\libgagent.a(iofnet.o)	#SHT_PROGBITS,SHF_ALLOC|SHF_MERGE|SHF_STRINGS,1
	0x4303e2af		.L.str.9
.rodata.str1.1	0x4303e2df	0x24	G:\TEMP\GoKit4_Demo\gagent\libgagent.a(iofnet.o)	#SHT_PROGBITS,SHF_ALLOC|SHF_MERGE|SHF_STRINGS,1
	0x4303e2df		.L.str.10
.rodata.str1.1	0x4303e303	0x15	G:\TEMP\GoKit4_Demo\gagent\libgagent.a(iofnet.o)	#SHT_PROGBITS,SHF_ALLOC|SHF_MERGE|SHF_STRINGS,1
	0x4303e303		.L.str.11
.rodata.str1.1	0x4303e318	0xe	G:\TEMP\GoKit4_Demo\gagent\libgagent.a(iofnet.o)	#SHT_PROGBITS,SHF_ALLOC|SHF_MERGE|SHF_STRINGS,1
	0x4303e318		.L__FUNCTION__.gatIofNetInit
.rodata.str1.1	0x4303e326	0x1a	G:\TEMP\GoKit4_Demo\gagent\libgagent.a(iofnet.o)	#SHT_PROGBITS,SHF_ALLOC|SHF_MERGE|SHF_STRINGS,1
	0x4303e326		.L.str.12
.rodata.str1.1	0x4303e340	0x17	G:\TEMP\GoKit4_Demo\gagent\libgagent.a(iofnet.o)	#SHT_PROGBITS,SHF_ALLOC|SHF_MERGE|SHF_STRINGS,1
	0x4303e340		.L.str.13
.rodata.str1.1	0x4303e357	0x12	G:\TEMP\GoKit4_Demo\gagent\libgagent.a(iofnet.o)	#SHT_PROGBITS,SHF_ALLOC|SHF_MERGE|SHF_STRINGS,1
	0x4303e357		.L.str.14
.rodata.str1.1	0x4303e369	0x11	G:\TEMP\GoKit4_Demo\gagent\libgagent.a(iofnet.o)	#SHT_PROGBITS,SHF_ALLOC|SHF_MERGE|SHF_STRINGS,1
	0x4303e369		.L__FUNCTION__.gatIofNetGetRssi
.rodata.str1.1	0x4303e37a	0x1d	G:\TEMP\GoKit4_Demo\gagent\libgagent.a(iofnet.o)	#SHT_PROGBITS,SHF_ALLOC|SHF_MERGE|SHF_STRINGS,1
	0x4303e37a		.L.str.15
.rodata.str1.1	0x4303e397	0xc	G:\TEMP\GoKit4_Demo\gagent\libgagent.a(iofnet.o)	#SHT_PROGBITS,SHF_ALLOC|SHF_MERGE|SHF_STRINGS,1
	0x4303e397		.L__FUNCTION__.iofWifiScan
.rodata.str1.1	0x4303e3a3	0x20	G:\TEMP\GoKit4_Demo\gagent\libgagent.a(iofnet.o)	#SHT_PROGBITS,SHF_ALLOC|SHF_MERGE|SHF_STRINGS,1
	0x4303e3a3		.L.str.17
.rodata.str1.1	0x4303e3c3	0x10	G:\TEMP\GoKit4_Demo\gagent\libgagent.a(iofnet.o)	#SHT_PROGBITS,SHF_ALLOC|SHF_MERGE|SHF_STRINGS,1
	0x4303e3c3		.L__FUNCTION__.gatNetStartScan
.rodata.str1.1	0x4303e3d3	0x24	G:\TEMP\GoKit4_Demo\gagent\libgagent.a(iofnet.o)	#SHT_PROGBITS,SHF_ALLOC|SHF_MERGE|SHF_STRINGS,1
	0x4303e3d3		.L.str.18
.rodata.str1.1	0x4303e3f7	0x26	G:\TEMP\GoKit4_Demo\gagent\libgagent.a(iofnet.o)	#SHT_PROGBITS,SHF_ALLOC|SHF_MERGE|SHF_STRINGS,1
	0x4303e3f7		.L.str.19
.rodata.str1.1	0x4303e41d	0x1e	G:\TEMP\GoKit4_Demo\gagent\libgagent.a(iofnet.o)	#SHT_PROGBITS,SHF_ALLOC|SHF_MERGE|SHF_STRINGS,1
	0x4303e41d		.L.str.20
.rodata.str1.1	0x4303e43b	0x26	G:\TEMP\GoKit4_Demo\gagent\libgagent.a(iofnet.o)	#SHT_PROGBITS,SHF_ALLOC|SHF_MERGE|SHF_STRINGS,1
	0x4303e43b		.L.str.21
.rodata.str1.1	0x4303e461	0x11	G:\TEMP\GoKit4_Demo\gagent\libgagent.a(iofnet.o)	#SHT_PROGBITS,SHF_ALLOC|SHF_MERGE|SHF_STRINGS,1
	0x4303e461		.L__FUNCTION__.iofGetHostByName
.rodata.str1.1	0x4303e472	0x1b	G:\TEMP\GoKit4_Demo\gagent\libgagent.a(iofnet.o)	#SHT_PROGBITS,SHF_ALLOC|SHF_MERGE|SHF_STRINGS,1
	0x4303e472		.L.str.22
.rodata.str1.1	0x4303e48d	0x14	G:\TEMP\GoKit4_Demo\gagent\libgagent.a(iofnet.o)	#SHT_PROGBITS,SHF_ALLOC|SHF_MERGE|SHF_STRINGS,1
	0x4303e48d		.L__FUNCTION__.iofGatGetHostByName
.rodata.str1.1	0x4303e4a1	0x8	G:\TEMP\GoKit4_Demo\gagent\libgagent.a(iofnet.o)	#SHT_PROGBITS,SHF_ALLOC|SHF_MERGE|SHF_STRINGS,1
	0x4303e4a1		.L.str.23
.rodata.str1.1	0x4303e4a9	0x10	G:\TEMP\GoKit4_Demo\gagent\libgagent.a(iofnet.o)	#SHT_PROGBITS,SHF_ALLOC|SHF_MERGE|SHF_STRINGS,1
	0x4303e4a9		.L__FUNCTION__.iofNetDnsHandle
.rodata.str1.1	0x4303e4b9	0x1e	G:\TEMP\GoKit4_Demo\gagent\libgagent.a(iofnet.o)	#SHT_PROGBITS,SHF_ALLOC|SHF_MERGE|SHF_STRINGS,1
	0x4303e4b9		.L.str.24
.rodata.str1.1	0x4303e4d7	0x16	G:\TEMP\GoKit4_Demo\gagent\libgagent.a(iofnet.o)	#SHT_PROGBITS,SHF_ALLOC|SHF_MERGE|SHF_STRINGS,1
	0x4303e4d7		.L.str.25
.rodata.str1.1	0x4303e4ed	0x17	G:\TEMP\GoKit4_Demo\gagent\libgagent.a(iofnet.o)	#SHT_PROGBITS,SHF_ALLOC|SHF_MERGE|SHF_STRINGS,1
	0x4303e4ed		.L.str.26
.rodata.str1.1	0x4303e504	0x33	G:\TEMP\GoKit4_Demo\gagent\libgagent.a(iofnet.o)	#SHT_PROGBITS,SHF_ALLOC|SHF_MERGE|SHF_STRINGS,1
	0x4303e504		.L.str.27
.rodata.str1.1	0x4303e537	0x1e	G:\TEMP\GoKit4_Demo\gagent\libgagent.a(iofnet.o)	#SHT_PROGBITS,SHF_ALLOC|SHF_MERGE|SHF_STRINGS,1
	0x4303e537		.L.str.28
.rodata.str1.1	0x4303e555	0x34	G:\TEMP\GoKit4_Demo\gagent\libgagent.a(iofnet.o)	#SHT_PROGBITS,SHF_ALLOC|SHF_MERGE|SHF_STRINGS,1
	0x4303e555		.L.str.29
.rodata.str1.1	0x4303e589	0xc	G:\TEMP\GoKit4_Demo\gagent\libgagent.a(iofnet.o)	#SHT_PROGBITS,SHF_ALLOC|SHF_MERGE|SHF_STRINGS,1
	0x4303e589		.L.str.30
.rodata.str1.1	0x4303e595	0x22	G:\TEMP\GoKit4_Demo\gagent\libgagent.a(iofnet.o)	#SHT_PROGBITS,SHF_ALLOC|SHF_MERGE|SHF_STRINGS,1
	0x4303e595		.L.str.31
.rodata.str1.1	0x4303e5b7	0x1c	G:\TEMP\GoKit4_Demo\gagent\libgagent.a(iofnet.o)	#SHT_PROGBITS,SHF_ALLOC|SHF_MERGE|SHF_STRINGS,1
	0x4303e5b7		.L.str.32
.rodata.str1.1	0x4303e5d3	0x2f	G:\TEMP\GoKit4_Demo\gagent\libgagent.a(iofnet.o)	#SHT_PROGBITS,SHF_ALLOC|SHF_MERGE|SHF_STRINGS,1
	0x4303e5d3		.L.str.33
.rodata.str1.1	0x4303e602	0x15	G:\TEMP\GoKit4_Demo\gagent\libgagent.a(iofnet.o)	#SHT_PROGBITS,SHF_ALLOC|SHF_MERGE|SHF_STRINGS,1
	0x4303e602		.L.str.34
.rodata.str1.1	0x4303e617	0x16	G:\TEMP\GoKit4_Demo\gagent\libgagent.a(iofnet.o)	#SHT_PROGBITS,SHF_ALLOC|SHF_MERGE|SHF_STRINGS,1
	0x4303e617		.L.str.35
.rodata.str1.1	0x4303e62d	0x1a	G:\TEMP\GoKit4_Demo\gagent\libgagent.a(iofnet.o)	#SHT_PROGBITS,SHF_ALLOC|SHF_MERGE|SHF_STRINGS,1
	0x4303e62d		.L.str.36
.rodata.str1.1	0x4303e647	0x19	G:\TEMP\GoKit4_Demo\gagent\libgagent.a(iofnet.o)	#SHT_PROGBITS,SHF_ALLOC|SHF_MERGE|SHF_STRINGS,1
	0x4303e647		.L.str.37
.rodata.str1.1	0x4303e660	0x24	G:\TEMP\GoKit4_Demo\gagent\libgagent.a(iofnet.o)	#SHT_PROGBITS,SHF_ALLOC|SHF_MERGE|SHF_STRINGS,1
	0x4303e660		.L.str.38
.rodata.str1.1	0x4303e684	0x2a	G:\TEMP\GoKit4_Demo\gagent\libgagent.a(iofnet.o)	#SHT_PROGBITS,SHF_ALLOC|SHF_MERGE|SHF_STRINGS,1
	0x4303e684		.L.str.40
.rodata.str1.1	0x4303e6ae	0x23	G:\TEMP\GoKit4_Demo\gagent\libgagent.a(iofnet.o)	#SHT_PROGBITS,SHF_ALLOC|SHF_MERGE|SHF_STRINGS,1
	0x4303e6ae		.L.str.41
.rodata.str1.1	0x4303e6d1	0x2a	G:\TEMP\GoKit4_Demo\gagent\libgagent.a(iofnet.o)	#SHT_PROGBITS,SHF_ALLOC|SHF_MERGE|SHF_STRINGS,1
	0x4303e6d1		.L.str.42
.rodata.str1.1	0x4303e6fb	0x20	G:\TEMP\GoKit4_Demo\gagent\libgagent.a(iofnet.o)	#SHT_PROGBITS,SHF_ALLOC|SHF_MERGE|SHF_STRINGS,1
	0x4303e6fb		.L.str.43
.rodata.str1.1	0x4303e71b	0x13	G:\TEMP\GoKit4_Demo\gagent\libgagent.a(iofnet.o)	#SHT_PROGBITS,SHF_ALLOC|SHF_MERGE|SHF_STRINGS,1
	0x4303e71b		.L__FUNCTION__.iofNetActiveHandle
.rodata.str1.1	0x4303e72e	0x11	G:\TEMP\GoKit4_Demo\gagent\libgagent.a(iofnet.o)	#SHT_PROGBITS,SHF_ALLOC|SHF_MERGE|SHF_STRINGS,1
	0x4303e72e		.L.str.45
.rodata.str1.1	0x4303e73f	0x25	G:\TEMP\GoKit4_Demo\gagent\libgagent.a(iofnet.o)	#SHT_PROGBITS,SHF_ALLOC|SHF_MERGE|SHF_STRINGS,1
	0x4303e73f		.L.str.46
.rodata.str1.1	0x4303e764	0x22	G:\TEMP\GoKit4_Demo\gagent\libgagent.a(iofnet.o)	#SHT_PROGBITS,SHF_ALLOC|SHF_MERGE|SHF_STRINGS,1
	0x4303e764		.L.str.47
.rodata.str1.1	0x4303e786	0x24	G:\TEMP\GoKit4_Demo\gagent\libgagent.a(iofnet.o)	#SHT_PROGBITS,SHF_ALLOC|SHF_MERGE|SHF_STRINGS,1
	0x4303e786		.L.str.48
.rodata.str1.1	0x4303e7aa	0x20	G:\TEMP\GoKit4_Demo\gagent\libgagent.a(iofnet.o)	#SHT_PROGBITS,SHF_ALLOC|SHF_MERGE|SHF_STRINGS,1
	0x4303e7aa		.L.str.49
.rodata.str1.1	0x4303e7ca	0x24	G:\TEMP\GoKit4_Demo\gagent\libgagent.a(iofnet.o)	#SHT_PROGBITS,SHF_ALLOC|SHF_MERGE|SHF_STRINGS,1
	0x4303e7ca		.L.str.50
.rodata.str1.1	0x4303e7ee	0x21	G:\TEMP\GoKit4_Demo\gagent\libgagent.a(iofnet.o)	#SHT_PROGBITS,SHF_ALLOC|SHF_MERGE|SHF_STRINGS,1
	0x4303e7ee		.L.str.51
.rodata.str1.1	0x4303e80f	0x20	G:\TEMP\GoKit4_Demo\gagent\libgagent.a(iofnet.o)	#SHT_PROGBITS,SHF_ALLOC|SHF_MERGE|SHF_STRINGS,1
	0x4303e80f		.L.str.52
.rodata.str1.1	0x4303e82f	0x21	G:\TEMP\GoKit4_Demo\gagent\libgagent.a(iofnet.o)	#SHT_PROGBITS,SHF_ALLOC|SHF_MERGE|SHF_STRINGS,1
	0x4303e82f		.L.str.53
.rodata.str1.1	0x4303e850	0x15	G:\TEMP\GoKit4_Demo\gagent\libgagent.a(iofnet.o)	#SHT_PROGBITS,SHF_ALLOC|SHF_MERGE|SHF_STRINGS,1
	0x4303e850		.L.str.54
.rodata.str1.1	0x4303e865	0x31	G:\TEMP\GoKit4_Demo\gagent\libgagent.a(iofnet.o)	#SHT_PROGBITS,SHF_ALLOC|SHF_MERGE|SHF_STRINGS,1
	0x4303e865		.L.str.55
.rodata.str1.1	0x4303e896	0x17	G:\TEMP\GoKit4_Demo\gagent\libgagent.a(iofnet.o)	#SHT_PROGBITS,SHF_ALLOC|SHF_MERGE|SHF_STRINGS,1
	0x4303e896		.L.str.56
.rodata.str1.1	0x4303e8ad	0x11	G:\TEMP\GoKit4_Demo\gagent\libgagent.a(iofnet.o)	#SHT_PROGBITS,SHF_ALLOC|SHF_MERGE|SHF_STRINGS,1
	0x4303e8ad		.L.str.57
.rodata.str1.1	0x4303e8be	0x1a	G:\TEMP\GoKit4_Demo\gagent\libgagent.a(iofnet.o)	#SHT_PROGBITS,SHF_ALLOC|SHF_MERGE|SHF_STRINGS,1
	0x4303e8be		.L.str.58
.rodata.str1.1	0x4303e8d8	0x17	G:\TEMP\GoKit4_Demo\gagent\libgagent.a(iofnet.o)	#SHT_PROGBITS,SHF_ALLOC|SHF_MERGE|SHF_STRINGS,1
	0x4303e8d8		.L.str.59
.rodata.str1.1	0x4303e8ef	0x2b	G:\TEMP\GoKit4_Demo\gagent\libgagent.a(iofnet.o)	#SHT_PROGBITS,SHF_ALLOC|SHF_MERGE|SHF_STRINGS,1
	0x4303e8ef		.L.str.60
.rodata.str1.1	0x4303e91a	0x1d	G:\TEMP\GoKit4_Demo\gagent\libgagent.a(iofnet.o)	#SHT_PROGBITS,SHF_ALLOC|SHF_MERGE|SHF_STRINGS,1
	0x4303e91a		.L.str.61
.rodata.str1.1	0x4303e937	0x31	G:\TEMP\GoKit4_Demo\gagent\libgagent.a(iofnet.o)	#SHT_PROGBITS,SHF_ALLOC|SHF_MERGE|SHF_STRINGS,1
	0x4303e937		.L.str.62
.rodata.str1.1	0x4303e968	0x2b	G:\TEMP\GoKit4_Demo\gagent\libgagent.a(iofnet.o)	#SHT_PROGBITS,SHF_ALLOC|SHF_MERGE|SHF_STRINGS,1
	0x4303e968		.L.str.63
.rodata.str1.1	0x4303e993	0x24	G:\TEMP\GoKit4_Demo\gagent\libgagent.a(iofnet.o)	#SHT_PROGBITS,SHF_ALLOC|SHF_MERGE|SHF_STRINGS,1
	0x4303e993		.L.str.64
.rodata.str1.1	0x4303e9b7	0x28	G:\TEMP\GoKit4_Demo\gagent\libgagent.a(iofnet.o)	#SHT_PROGBITS,SHF_ALLOC|SHF_MERGE|SHF_STRINGS,1
	0x4303e9b7		.L.str.65
.rodata.str1.1	0x4303e9df	0x2b	G:\TEMP\GoKit4_Demo\gagent\libgagent.a(iofnet.o)	#SHT_PROGBITS,SHF_ALLOC|SHF_MERGE|SHF_STRINGS,1
	0x4303e9df		.L.str.66
.rodata.str1.1	0x4303ea0a	0x1c	G:\TEMP\GoKit4_Demo\gagent\libgagent.a(iofnet.o)	#SHT_PROGBITS,SHF_ALLOC|SHF_MERGE|SHF_STRINGS,1
	0x4303ea0a		.L.str.67
.rodata.str1.1	0x4303ea26	0x1f	G:\TEMP\GoKit4_Demo\gagent\libgagent.a(iofnet.o)	#SHT_PROGBITS,SHF_ALLOC|SHF_MERGE|SHF_STRINGS,1
	0x4303ea26		.L.str.68
.rodata.str1.1	0x4303ea45	0x2b	G:\TEMP\GoKit4_Demo\gagent\libgagent.a(iofnet.o)	#SHT_PROGBITS,SHF_ALLOC|SHF_MERGE|SHF_STRINGS,1
	0x4303ea45		.L.str.69
.rodata.str1.1	0x4303ea70	0x2f	G:\TEMP\GoKit4_Demo\gagent\libgagent.a(iofnet.o)	#SHT_PROGBITS,SHF_ALLOC|SHF_MERGE|SHF_STRINGS,1
	0x4303ea70		.L.str.70
.rodata.str1.1	0x4303ea9f	0x2b	G:\TEMP\GoKit4_Demo\gagent\libgagent.a(iofnet.o)	#SHT_PROGBITS,SHF_ALLOC|SHF_MERGE|SHF_STRINGS,1
	0x4303ea9f		.L.str.71
.rodata.str1.1	0x4303eaca	0x21	G:\TEMP\GoKit4_Demo\gagent\libgagent.a(iofnet.o)	#SHT_PROGBITS,SHF_ALLOC|SHF_MERGE|SHF_STRINGS,1
	0x4303eaca		.L.str.72
.rodata.str1.1	0x4303eaeb	0x1f	G:\TEMP\GoKit4_Demo\gagent\libgagent.a(iofnet.o)	#SHT_PROGBITS,SHF_ALLOC|SHF_MERGE|SHF_STRINGS,1
	0x4303eaeb		.L.str.73
.rodata.str1.1	0x4303eb0a	0x1e	G:\TEMP\GoKit4_Demo\gagent\libgagent.a(iofnet.o)	#SHT_PROGBITS,SHF_ALLOC|SHF_MERGE|SHF_STRINGS,1
	0x4303eb0a		.L.str.74
.rodata.str1.8	0x4303eb28	0xf	G:\TEMP\GoKit4_Demo\gagent\libgagent.a(iofnet.o)	#SHT_PROGBITS,SHF_ALLOC|SHF_MERGE|SHF_STRINGS,8
	0x4303eb28		.L.str.16
.rodata.str1.1	0x4303eb37	0x1b	G:\TEMP\GoKit4_Demo\gagent\libgagent.a(iofserial.o)	#SHT_PROGBITS,SHF_ALLOC|SHF_MERGE|SHF_STRINGS,1
	0x4303eb37		.L.str.2
.rodata.str1.1	0x4303eb52	0x2f	G:\TEMP\GoKit4_Demo\gagent\libgagent.a(iofserial.o)	#SHT_PROGBITS,SHF_ALLOC|SHF_MERGE|SHF_STRINGS,1
	0x4303eb52		.L.str.3
.rodata.str1.1	0x4303eb81	0x1d	G:\TEMP\GoKit4_Demo\gagent\libgagent.a(iofserial.o)	#SHT_PROGBITS,SHF_ALLOC|SHF_MERGE|SHF_STRINGS,1
	0x4303eb81		.L.str.4
.rodata.str1.1	0x4303eb9e	0x33	G:\TEMP\GoKit4_Demo\gagent\libgagent.a(iofserial.o)	#SHT_PROGBITS,SHF_ALLOC|SHF_MERGE|SHF_STRINGS,1
	0x4303eb9e		.L.str.5
.rodata.str1.1	0x4303ebd1	0x19	G:\TEMP\GoKit4_Demo\gagent\libgagent.a(iofserial.o)	#SHT_PROGBITS,SHF_ALLOC|SHF_MERGE|SHF_STRINGS,1
	0x4303ebd1		.L.str.6
.rodata.str1.1	0x4303ebea	0xe	G:\TEMP\GoKit4_Demo\gagent\libgagent.a(iofserial.o)	#SHT_PROGBITS,SHF_ALLOC|SHF_MERGE|SHF_STRINGS,1
	0x4303ebea		.L__FUNCTION__.iofSerialOpen
.rodata.str1.1	0x4303ebf8	0x39	G:\TEMP\GoKit4_Demo\gagent\libgagent.a(iofserial.o)	#SHT_PROGBITS,SHF_ALLOC|SHF_MERGE|SHF_STRINGS,1
	0x4303ebf8		.L.str.7
.rodata.str1.1	0x4303ec31	0x18	G:\TEMP\GoKit4_Demo\gagent\libgagent.a(iofserial.o)	#SHT_PROGBITS,SHF_ALLOC|SHF_MERGE|SHF_STRINGS,1
	0x4303ec31		.L.str.8
.rodata.str1.1	0x4303ec49	0xe	G:\TEMP\GoKit4_Demo\gagent\libgagent.a(iofserial.o)	#SHT_PROGBITS,SHF_ALLOC|SHF_MERGE|SHF_STRINGS,1
	0x4303ec49		.L__FUNCTION__.iofSerialInit
.rodata.str1.1	0x4303ec57	0x10	G:\TEMP\GoKit4_Demo\gagent\libgagent.a(iofserial.o)	#SHT_PROGBITS,SHF_ALLOC|SHF_MERGE|SHF_STRINGS,1
	0x4303ec57		.L__FUNCTION__.iofSerialSelect
.rodata.str1.1	0x4303ec67	0x15	G:\TEMP\GoKit4_Demo\gagent\libgagent.a(iofserial.o)	#SHT_PROGBITS,SHF_ALLOC|SHF_MERGE|SHF_STRINGS,1
	0x4303ec67		.L.str.9
.rodata.str1.1	0x4303ec7c	0x25	G:\TEMP\GoKit4_Demo\gagent\libgagent.a(iofserial.o)	#SHT_PROGBITS,SHF_ALLOC|SHF_MERGE|SHF_STRINGS,1
	0x4303ec7c		.L.str.14
.rodata.str1.1	0x4303eca1	0xe	G:\TEMP\GoKit4_Demo\gagent\libgagent.a(iofserial.o)	#SHT_PROGBITS,SHF_ALLOC|SHF_MERGE|SHF_STRINGS,1
	0x4303eca1		.L__FUNCTION__.iofSerialSend
.rodata.str1.1	0x4303ecaf	0x1c	G:\TEMP\GoKit4_Demo\gagent\libgagent.a(iofserial.o)	#SHT_PROGBITS,SHF_ALLOC|SHF_MERGE|SHF_STRINGS,1
	0x4303ecaf		.L.str.15
.rodata.str1.1	0x4303eccb	0xe	G:\TEMP\GoKit4_Demo\gagent\libgagent.a(iofserial.o)	#SHT_PROGBITS,SHF_ALLOC|SHF_MERGE|SHF_STRINGS,1
	0x4303eccb		.L__FUNCTION__.iofSerialRead
.rodata.str1.1	0x4303ecd9	0x1f	G:\TEMP\GoKit4_Demo\gagent\libgagent.a(iofserial.o)	#SHT_PROGBITS,SHF_ALLOC|SHF_MERGE|SHF_STRINGS,1
	0x4303ecd9		.L.str.16
.rodata.str1.1	0x4303ecf8	0xb	G:\TEMP\GoKit4_Demo\gagent\libgagent.a(iofserial.o)	#SHT_PROGBITS,SHF_ALLOC|SHF_MERGE|SHF_STRINGS,1
	0x4303ecf8		.L__FUNCTION__.SerialRxCb
.rodata.str1.1	0x4303ed03	0x16	G:\TEMP\GoKit4_Demo\gagent\libgagent.a(iofserial.o)	#SHT_PROGBITS,SHF_ALLOC|SHF_MERGE|SHF_STRINGS,1
	0x4303ed03		.L.str.17
.rodata.str1.1	0x4303ed19	0xb	G:\TEMP\GoKit4_Demo\gagent\libgagent.a(iofserial.o)	#SHT_PROGBITS,SHF_ALLOC|SHF_MERGE|SHF_STRINGS,1
	0x4303ed19		.L__FUNCTION__.SerialTxCb
.rodata.str1.1	0x4303ed24	0x15	G:\TEMP\GoKit4_Demo\gagent\libgagent.a(iofsocket.o)	#SHT_PROGBITS,SHF_ALLOC|SHF_MERGE|SHF_STRINGS,1
	0x4303ed24		.L.str.2
.rodata.str1.1	0x4303ed39	0x12	G:\TEMP\GoKit4_Demo\gagent\libgagent.a(iofsocket.o)	#SHT_PROGBITS,SHF_ALLOC|SHF_MERGE|SHF_STRINGS,1
	0x4303ed39		.L__FUNCTION__.gatIofSocketClose
.rodata.str1.1	0x4303ed4b	0x21	G:\TEMP\GoKit4_Demo\gagent\libgagent.a(iofsocket.o)	#SHT_PROGBITS,SHF_ALLOC|SHF_MERGE|SHF_STRINGS,1
	0x4303ed4b		.L.str.3
.rodata.str1.1	0x4303ed6c	0x14	G:\TEMP\GoKit4_Demo\gagent\libgagent.a(iofsocket.o)	#SHT_PROGBITS,SHF_ALLOC|SHF_MERGE|SHF_STRINGS,1
	0x4303ed6c		.L__FUNCTION__.gatIofSocketConnect
.rodata.str1.1	0x4303ed80	0x1b	G:\TEMP\GoKit4_Demo\gagent\libgagent.a(iofsocket.o)	#SHT_PROGBITS,SHF_ALLOC|SHF_MERGE|SHF_STRINGS,1
	0x4303ed80		.L.str.4
.rodata.str1.1	0x4303ed9b	0x21	G:\TEMP\GoKit4_Demo\gagent\libgagent.a(iofsocket.o)	#SHT_PROGBITS,SHF_ALLOC|SHF_MERGE|SHF_STRINGS,1
	0x4303ed9b		.L.str.5
.rodata.str1.1	0x4303edbc	0x32	G:\TEMP\GoKit4_Demo\gagent\libgagent.a(iofsocket.o)	#SHT_PROGBITS,SHF_ALLOC|SHF_MERGE|SHF_STRINGS,1
	0x4303edbc		.L.str.6
.rodata.str1.1	0x4303edee	0xe	G:\TEMP\GoKit4_Demo\gagent\libgagent.a(iofsocket.o)	#SHT_PROGBITS,SHF_ALLOC|SHF_MERGE|SHF_STRINGS,1
	0x4303edee		.L__FUNCTION__.gatIofTcpSend
.rodata.str1.1	0x4303edfc	0x2b	G:\TEMP\GoKit4_Demo\gagent\libgagent.a(ioftime.o)	#SHT_PROGBITS,SHF_ALLOC|SHF_MERGE|SHF_STRINGS,1
	0x4303edfc		.L.str.2
.rodata.str1.1	0x4303ee27	0x18	G:\TEMP\GoKit4_Demo\gagent\libgagent.a(ioftime.o)	#SHT_PROGBITS,SHF_ALLOC|SHF_MERGE|SHF_STRINGS,1
	0x4303ee27		.L.str.3
.rodata.str1.1	0x4303ee3f	0xe	G:\TEMP\GoKit4_Demo\gagent\libgagent.a(ioftime.o)	#SHT_PROGBITS,SHF_ALLOC|SHF_MERGE|SHF_STRINGS,1
	0x4303ee3f		.L__FUNCTION__.getDevTime_MS
.rodata.str1.1	0x4303ee4d	0x17	G:\TEMP\GoKit4_Demo\gagent\libgagent.a(ioftime.o)	#SHT_PROGBITS,SHF_ALLOC|SHF_MERGE|SHF_STRINGS,1
	0x4303ee4d		.L.str.4
.rodata.str1.1	0x4303ee64	0xd	G:\TEMP\GoKit4_Demo\gagent\libgagent.a(ioftime.o)	#SHT_PROGBITS,SHF_ALLOC|SHF_MERGE|SHF_STRINGS,1
	0x4303ee64		.L__FUNCTION__.getDevTime_S
.rodata.str1.1	0x4303ee71	0x18	G:\TEMP\GoKit4_Demo\gagent\libgagent.a(ioftime.o)	#SHT_PROGBITS,SHF_ALLOC|SHF_MERGE|SHF_STRINGS,1
	0x4303ee71		.L.str.5
.rodata.str1.1	0x4303ee89	0xd	G:\TEMP\GoKit4_Demo\gagent\libgagent.a(ioftime.o)	#SHT_PROGBITS,SHF_ALLOC|SHF_MERGE|SHF_STRINGS,1
	0x4303ee89		.L__FUNCTION__.iofTimerInit
.rodata.str1.1	0x4303ee96	0xc	G:\TEMP\GoKit4_Demo\gagent\libgagent.a(ioftime.o)	#SHT_PROGBITS,SHF_ALLOC|SHF_MERGE|SHF_STRINGS,1
	0x4303ee96		.L.str.6
.rodata.str1.1	0x4303eea2	0x35	G:\TEMP\GoKit4_Demo\gagent\libgagent.a(ioftime.o)	#SHT_PROGBITS,SHF_ALLOC|SHF_MERGE|SHF_STRINGS,1
	0x4303eea2		.L.str.7
.rodata.str1.1	0x4303eed7	0x15	G:\TEMP\GoKit4_Demo\gagent\libgagent.a(ioftime.o)	#SHT_PROGBITS,SHF_ALLOC|SHF_MERGE|SHF_STRINGS,1
	0x4303eed7		.L__FUNCTION__.iofLocalTimerMSStart
.rodata.str1.1	0x4303eeec	0xc	G:\TEMP\GoKit4_Demo\gagent\libgagent.a(ioftime.o)	#SHT_PROGBITS,SHF_ALLOC|SHF_MERGE|SHF_STRINGS,1
	0x4303eeec		.L.str.8
.rodata.str1.1	0x4303eef8	0x37	G:\TEMP\GoKit4_Demo\gagent\libgagent.a(ioftime.o)	#SHT_PROGBITS,SHF_ALLOC|SHF_MERGE|SHF_STRINGS,1
	0x4303eef8		.L.str.9
.rodata.str1.1	0x4303ef2f	0x27	G:\TEMP\GoKit4_Demo\gagent\libgagent.a(ioftime.o)	#SHT_PROGBITS,SHF_ALLOC|SHF_MERGE|SHF_STRINGS,1
	0x4303ef2f		.L.str.10
.rodata.str1.1	0x4303ef56	0x1c	G:\TEMP\GoKit4_Demo\gagent\libgagent.a(ioftime.o)	#SHT_PROGBITS,SHF_ALLOC|SHF_MERGE|SHF_STRINGS,1
	0x4303ef56		.L.str.11
.rodata.str1.1	0x4303ef72	0x14	G:\TEMP\GoKit4_Demo\gagent\libgagent.a(ioftime.o)	#SHT_PROGBITS,SHF_ALLOC|SHF_MERGE|SHF_STRINGS,1
	0x4303ef72		.L__FUNCTION__.iofLocalTimerMSStop
.rodata.str1.1	0x4303ef86	0x2f	G:\TEMP\GoKit4_Demo\gagent\libgagent.a(ioftime.o)	#SHT_PROGBITS,SHF_ALLOC|SHF_MERGE|SHF_STRINGS,1
	0x4303ef86		.L.str.12
.rodata.str1.1	0x4303efb5	0x29	G:\TEMP\GoKit4_Demo\gagent\libgagent.a(lanvirtual.o)	#SHT_PROGBITS,SHF_ALLOC|SHF_MERGE|SHF_STRINGS,1
	0x4303efb5		.L.str.2
.rodata.str1.1	0x4303efde	0xb	G:\TEMP\GoKit4_Demo\gagent\libgagent.a(lanvirtual.o)	#SHT_PROGBITS,SHF_ALLOC|SHF_MERGE|SHF_STRINGS,1
	0x4303efde		.L__FUNCTION__.gatLanSend
.rodata.str1.1	0x4303efe9	0x16	G:\TEMP\GoKit4_Demo\gagent\libgagent.a(mqttgat.o)	#SHT_PROGBITS,SHF_ALLOC|SHF_MERGE|SHF_STRINGS,1
	0x4303efe9		.L.str.2
.rodata.str1.1	0x4303efff	0x13	G:\TEMP\GoKit4_Demo\gagent\libgagent.a(mqttgat.o)	#SHT_PROGBITS,SHF_ALLOC|SHF_MERGE|SHF_STRINGS,1
	0x4303efff		.L__FUNCTION__.mqttConnBrokerInit
.rodata.str1.1	0x4303f012	0x15	G:\TEMP\GoKit4_Demo\gagent\libgagent.a(mqttgat.o)	#SHT_PROGBITS,SHF_ALLOC|SHF_MERGE|SHF_STRINGS,1
	0x4303f012		.L.str.3
.rodata.str1.1	0x4303f027	0xd	G:\TEMP\GoKit4_Demo\gagent\libgagent.a(mqttgat.o)	#SHT_PROGBITS,SHF_ALLOC|SHF_MERGE|SHF_STRINGS,1
	0x4303f027		.L.str.4
.rodata.str1.1	0x4303f034	0x10	G:\TEMP\GoKit4_Demo\gagent\libgagent.a(mqttgat.o)	#SHT_PROGBITS,SHF_ALLOC|SHF_MERGE|SHF_STRINGS,1
	0x4303f034		.L__FUNCTION__.mqttDoHeartBeat
.rodata.str1.1	0x4303f044	0x2e	G:\TEMP\GoKit4_Demo\gagent\libgagent.a(mqttgat.o)	#SHT_PROGBITS,SHF_ALLOC|SHF_MERGE|SHF_STRINGS,1
	0x4303f044		.L.str.5
.rodata.str1.1	0x4303f072	0x38	G:\TEMP\GoKit4_Demo\gagent\libgagent.a(mqttgat.o)	#SHT_PROGBITS,SHF_ALLOC|SHF_MERGE|SHF_STRINGS,1
	0x4303f072		.L.str.6
.rodata.str1.1	0x4303f0aa	0x30	G:\TEMP\GoKit4_Demo\gagent\libgagent.a(mqttgat.o)	#SHT_PROGBITS,SHF_ALLOC|SHF_MERGE|SHF_STRINGS,1
	0x4303f0aa		.L.str.7
.rodata.str1.1	0x4303f0da	0x1e	G:\TEMP\GoKit4_Demo\gagent\libgagent.a(mqttgat.o)	#SHT_PROGBITS,SHF_ALLOC|SHF_MERGE|SHF_STRINGS,1
	0x4303f0da		.L.str.8
.rodata.str1.1	0x4303f0f8	0x27	G:\TEMP\GoKit4_Demo\gagent\libgagent.a(mqttgat.o)	#SHT_PROGBITS,SHF_ALLOC|SHF_MERGE|SHF_STRINGS,1
	0x4303f0f8		.L.str.9
.rodata.str1.1	0x4303f11f	0x12	G:\TEMP\GoKit4_Demo\gagent\libgagent.a(mqttgat.o)	#SHT_PROGBITS,SHF_ALLOC|SHF_MERGE|SHF_STRINGS,1
	0x4303f11f		.L__FUNCTION__.mqttExtractPacket
.rodata.str1.1	0x4303f131	0x27	G:\TEMP\GoKit4_Demo\gagent\libgagent.a(mqttgat.o)	#SHT_PROGBITS,SHF_ALLOC|SHF_MERGE|SHF_STRINGS,1
	0x4303f131		.L.str.11
.rodata.str1.1	0x4303f158	0x21	G:\TEMP\GoKit4_Demo\gagent\libgagent.a(mqttgat.o)	#SHT_PROGBITS,SHF_ALLOC|SHF_MERGE|SHF_STRINGS,1
	0x4303f158		.L.str.12
.rodata.str1.1	0x4303f179	0x20	G:\TEMP\GoKit4_Demo\gagent\libgagent.a(mqttgat.o)	#SHT_PROGBITS,SHF_ALLOC|SHF_MERGE|SHF_STRINGS,1
	0x4303f179		.L.str.13
.rodata.str1.1	0x4303f199	0x22	G:\TEMP\GoKit4_Demo\gagent\libgagent.a(mqttgat.o)	#SHT_PROGBITS,SHF_ALLOC|SHF_MERGE|SHF_STRINGS,1
	0x4303f199		.L.str.14
.rodata.str1.1	0x4303f1bb	0x21	G:\TEMP\GoKit4_Demo\gagent\libgagent.a(mqttgat.o)	#SHT_PROGBITS,SHF_ALLOC|SHF_MERGE|SHF_STRINGS,1
	0x4303f1bb		.L.str.15
.rodata.str1.1	0x4303f1dc	0x20	G:\TEMP\GoKit4_Demo\gagent\libgagent.a(mqttgat.o)	#SHT_PROGBITS,SHF_ALLOC|SHF_MERGE|SHF_STRINGS,1
	0x4303f1dc		.L.str.16
.rodata.str1.1	0x4303f1fc	0x1b	G:\TEMP\GoKit4_Demo\gagent\libgagent.a(mqttgat.o)	#SHT_PROGBITS,SHF_ALLOC|SHF_MERGE|SHF_STRINGS,1
	0x4303f1fc		.L.str.17
.rodata.str1.1	0x4303f217	0x1f	G:\TEMP\GoKit4_Demo\gagent\libgagent.a(mqttgat.o)	#SHT_PROGBITS,SHF_ALLOC|SHF_MERGE|SHF_STRINGS,1
	0x4303f217		.L.str.18
.rodata.str1.1	0x4303f236	0x2a	G:\TEMP\GoKit4_Demo\gagent\libgagent.a(mqttgat.o)	#SHT_PROGBITS,SHF_ALLOC|SHF_MERGE|SHF_STRINGS,1
	0x4303f236		.L.str.19
.rodata.str1.1	0x4303f260	0x2b	G:\TEMP\GoKit4_Demo\gagent\libgagent.a(mqttgat.o)	#SHT_PROGBITS,SHF_ALLOC|SHF_MERGE|SHF_STRINGS,1
	0x4303f260		.L.str.20
.rodata.str1.1	0x4303f28b	0x25	G:\TEMP\GoKit4_Demo\gagent\libgagent.a(mqttgat.o)	#SHT_PROGBITS,SHF_ALLOC|SHF_MERGE|SHF_STRINGS,1
	0x4303f28b		.L.str.23
.rodata.str1.1	0x4303f2b0	0x3d	G:\TEMP\GoKit4_Demo\gagent\libgagent.a(mqttgat.o)	#SHT_PROGBITS,SHF_ALLOC|SHF_MERGE|SHF_STRINGS,1
	0x4303f2b0		.L.str.24
.rodata.str1.1	0x4303f2ed	0x23	G:\TEMP\GoKit4_Demo\gagent\libgagent.a(mqttgat.o)	#SHT_PROGBITS,SHF_ALLOC|SHF_MERGE|SHF_STRINGS,1
	0x4303f2ed		.L.str.25
.rodata.str1.1	0x4303f310	0x1f	G:\TEMP\GoKit4_Demo\gagent\libgagent.a(mqttgat.o)	#SHT_PROGBITS,SHF_ALLOC|SHF_MERGE|SHF_STRINGS,1
	0x4303f310		.L.str.26
.rodata.str1.1	0x4303f32f	0x56	G:\TEMP\GoKit4_Demo\gagent\libgagent.a(mqttgat.o)	#SHT_PROGBITS,SHF_ALLOC|SHF_MERGE|SHF_STRINGS,1
	0x4303f32f		.L.str.27
.rodata.str1.1	0x4303f385	0x25	G:\TEMP\GoKit4_Demo\gagent\libgagent.a(mqttgat.o)	#SHT_PROGBITS,SHF_ALLOC|SHF_MERGE|SHF_STRINGS,1
	0x4303f385		.L.str.28
.rodata.str1.1	0x4303f3aa	0x21	G:\TEMP\GoKit4_Demo\gagent\libgagent.a(mqttgat.o)	#SHT_PROGBITS,SHF_ALLOC|SHF_MERGE|SHF_STRINGS,1
	0x4303f3aa		.L.str.29
.rodata.str1.1	0x4303f3cb	0x14	G:\TEMP\GoKit4_Demo\gagent\libgagent.a(mqttgat.o)	#SHT_PROGBITS,SHF_ALLOC|SHF_MERGE|SHF_STRINGS,1
	0x4303f3cb		.L.str.30
.rodata.str1.1	0x4303f3df	0xf	G:\TEMP\GoKit4_Demo\gagent\libgagent.a(mqttgat.o)	#SHT_PROGBITS,SHF_ALLOC|SHF_MERGE|SHF_STRINGS,1
	0x4303f3df		.L.str.31
.rodata.str1.1	0x4303f3ee	0xc	G:\TEMP\GoKit4_Demo\gagent\libgagent.a(mqttgat.o)	#SHT_PROGBITS,SHF_ALLOC|SHF_MERGE|SHF_STRINGS,1
	0x4303f3ee		.L__FUNCTION__.gatMqttInit
.rodata.str1.1	0x4303f3fa	0xe	G:\TEMP\GoKit4_Demo\gagent\libgagent.a(mqttgat.o)	#SHT_PROGBITS,SHF_ALLOC|SHF_MERGE|SHF_STRINGS,1
	0x4303f3fa		.L__FUNCTION__.gatMqttReInit
.rodata.str1.1	0x4303f408	0x1d	G:\TEMP\GoKit4_Demo\gagent\libgagent.a(mqttgat.o)	#SHT_PROGBITS,SHF_ALLOC|SHF_MERGE|SHF_STRINGS,1
	0x4303f408		.L.str.33
.rodata.str1.1	0x4303f425	0xf	G:\TEMP\GoKit4_Demo\gagent\libgagent.a(mqttgat.o)	#SHT_PROGBITS,SHF_ALLOC|SHF_MERGE|SHF_STRINGS,1
	0x4303f425		.L__FUNCTION__.mqttDataHandle
.rodata.str1.1	0x4303f434	0x1a	G:\TEMP\GoKit4_Demo\gagent\libgagent.a(mqttgat.o)	#SHT_PROGBITS,SHF_ALLOC|SHF_MERGE|SHF_STRINGS,1
	0x4303f434		.L.str.34
.rodata.str1.1	0x4303f44e	0x27	G:\TEMP\GoKit4_Demo\gagent\libgagent.a(mqttgat.o)	#SHT_PROGBITS,SHF_ALLOC|SHF_MERGE|SHF_STRINGS,1
	0x4303f44e		.L.str.35
.rodata.str1.1	0x4303f475	0x36	G:\TEMP\GoKit4_Demo\gagent\libgagent.a(mqttgat.o)	#SHT_PROGBITS,SHF_ALLOC|SHF_MERGE|SHF_STRINGS,1
	0x4303f475		.L.str.36
.rodata.str1.1	0x4303f4ab	0x25	G:\TEMP\GoKit4_Demo\gagent\libgagent.a(mqttgat.o)	#SHT_PROGBITS,SHF_ALLOC|SHF_MERGE|SHF_STRINGS,1
	0x4303f4ab		.L.str.37
.rodata.str1.1	0x4303f4d0	0x1e	G:\TEMP\GoKit4_Demo\gagent\libgagent.a(mqttgat.o)	#SHT_PROGBITS,SHF_ALLOC|SHF_MERGE|SHF_STRINGS,1
	0x4303f4d0		.L.str.38
.rodata.str1.1	0x4303f4ee	0x1c	G:\TEMP\GoKit4_Demo\gagent\libgagent.a(mqttgat.o)	#SHT_PROGBITS,SHF_ALLOC|SHF_MERGE|SHF_STRINGS,1
	0x4303f4ee		.L.str.39
.rodata.str1.1	0x4303f50a	0x1e	G:\TEMP\GoKit4_Demo\gagent\libgagent.a(mqttgat.o)	#SHT_PROGBITS,SHF_ALLOC|SHF_MERGE|SHF_STRINGS,1
	0x4303f50a		.L.str.40
.rodata.str1.1	0x4303f528	0x11	G:\TEMP\GoKit4_Demo\gagent\libgagent.a(mqttgat.o)	#SHT_PROGBITS,SHF_ALLOC|SHF_MERGE|SHF_STRINGS,1
	0x4303f528		.L.str.41
.rodata.str1.1	0x4303f539	0x15	G:\TEMP\GoKit4_Demo\gagent\libgagent.a(mqttgat.o)	#SHT_PROGBITS,SHF_ALLOC|SHF_MERGE|SHF_STRINGS,1
	0x4303f539		.L__FUNCTION__.gatM2MHeartBeatStart
.rodata.str1.1	0x4303f54e	0x12	G:\TEMP\GoKit4_Demo\gagent\libgagent.a(mqttgat.o)	#SHT_PROGBITS,SHF_ALLOC|SHF_MERGE|SHF_STRINGS,1
	0x4303f54e		.L.str.42
.rodata.str1.1	0x4303f560	0x14	G:\TEMP\GoKit4_Demo\gagent\libgagent.a(mqttgat.o)	#SHT_PROGBITS,SHF_ALLOC|SHF_MERGE|SHF_STRINGS,1
	0x4303f560		.L__FUNCTION__.gatM2MHeartBeatStop
.rodata.str1.1	0x4303f574	0x15	G:\TEMP\GoKit4_Demo\gagent\libgagent.a(mqttgat.o)	#SHT_PROGBITS,SHF_ALLOC|SHF_MERGE|SHF_STRINGS,1
	0x4303f574		.L__FUNCTION__.gatCleanMqttCacheBuf
.rodata.str1.1	0x4303f589	0x22	G:\TEMP\GoKit4_Demo\gagent\libgagent.a(mqttgat.o)	#SHT_PROGBITS,SHF_ALLOC|SHF_MERGE|SHF_STRINGS,1
	0x4303f589		.L.str.43
.rodata.str1.1	0x4303f5ab	0x14	G:\TEMP\GoKit4_Demo\gagent\libgagent.a(mqttgat.o)	#SHT_PROGBITS,SHF_ALLOC|SHF_MERGE|SHF_STRINGS,1
	0x4303f5ab		.L__FUNCTION__.gatCloudGizDataSend
.rodata.str1.1	0x4303f5bf	0x14	G:\TEMP\GoKit4_Demo\gagent\libgagent.a(mqttgat.o)	#SHT_PROGBITS,SHF_ALLOC|SHF_MERGE|SHF_STRINGS,1
	0x4303f5bf		.L.str.44
.rodata.str1.1	0x4303f5d3	0x1f	G:\TEMP\GoKit4_Demo\gagent\libgagent.a(mqttgat.o)	#SHT_PROGBITS,SHF_ALLOC|SHF_MERGE|SHF_STRINGS,1
	0x4303f5d3		.L.str.45
.rodata.str1.1	0x4303f5f2	0x10	G:\TEMP\GoKit4_Demo\gagent\libgagent.a(mqttgat.o)	#SHT_PROGBITS,SHF_ALLOC|SHF_MERGE|SHF_STRINGS,1
	0x4303f5f2		.L__FUNCTION__.mqttNodeRecInit
.rodata.str1.1	0x4303f602	0x20	G:\TEMP\GoKit4_Demo\gagent\libgagent.a(mqttgat.o)	#SHT_PROGBITS,SHF_ALLOC|SHF_MERGE|SHF_STRINGS,1
	0x4303f602		.L.str.46
.rodata.str1.1	0x4303f622	0x1a	G:\TEMP\GoKit4_Demo\gagent\libgagent.a(mqttlib.o)	#SHT_PROGBITS,SHF_ALLOC|SHF_MERGE|SHF_STRINGS,1
	0x4303f622		.L.str.2
.rodata.str1.1	0x4303f63c	0x1c	G:\TEMP\GoKit4_Demo\gagent\libgagent.a(mqttlib.o)	#SHT_PROGBITS,SHF_ALLOC|SHF_MERGE|SHF_STRINGS,1
	0x4303f63c		.L__FUNCTION__.mqtt_num_rem_len_bytes_safe
.rodata.str1.1	0x4303f658	0x15	G:\TEMP\GoKit4_Demo\gagent\libgagent.a(mqttlib.o)	#SHT_PROGBITS,SHF_ALLOC|SHF_MERGE|SHF_STRINGS,1
	0x4303f658		.L.str.3
.rodata.str1.1	0x4303f66d	0x18	G:\TEMP\GoKit4_Demo\gagent\libgagent.a(mqttlib.o)	#SHT_PROGBITS,SHF_ALLOC|SHF_MERGE|SHF_STRINGS,1
	0x4303f66d		.L.str.4
.rodata.str1.1	0x4303f685	0x6	G:\TEMP\GoKit4_Demo\gagent\libgagent.a(mqttlib.o)	#SHT_PROGBITS,SHF_ALLOC|SHF_MERGE|SHF_STRINGS,1
.rodata.str1.1	0x4303f68b	0xd	G:\TEMP\GoKit4_Demo\gagent\libgagent.a(mqttlib.o)	#SHT_PROGBITS,SHF_ALLOC|SHF_MERGE|SHF_STRINGS,1
	0x4303f68b		.L__FUNCTION__.mqtt_connect
.rodata.str1.1	0x4303f698	0x21	G:\TEMP\GoKit4_Demo\gagent\libgagent.a(mqttlib.o)	#SHT_PROGBITS,SHF_ALLOC|SHF_MERGE|SHF_STRINGS,1
	0x4303f698		.L.str.8
.rodata.str1.1	0x4303f6b9	0x16	G:\TEMP\GoKit4_Demo\gagent\libgagent.a(mqttlib.o)	#SHT_PROGBITS,SHF_ALLOC|SHF_MERGE|SHF_STRINGS,1
	0x4303f6b9		.L.str.13
.rodata.str1.1	0x4303f6cf	0x16	G:\TEMP\GoKit4_Demo\gagent\libgagent.a(mqttlib.o)	#SHT_PROGBITS,SHF_ALLOC|SHF_MERGE|SHF_STRINGS,1
	0x4303f6cf		.L__FUNCTION__.mqtt_publish_with_qos
.rodata.str1.1	0x4303f6e5	0x59	G:\TEMP\GoKit4_Demo\gagent\libgagent.a(mqttlib.o)	#SHT_PROGBITS,SHF_ALLOC|SHF_MERGE|SHF_STRINGS,1
	0x4303f6e5		.L.str.15
.rodata.str1.1	0x4303f73e	0xe	G:\TEMP\GoKit4_Demo\gagent\libgagent.a(mqttlib.o)	#SHT_PROGBITS,SHF_ALLOC|SHF_MERGE|SHF_STRINGS,1
	0x4303f73e		.L.str.16
.rodata.str1.1	0x4303f74c	0x10	G:\TEMP\GoKit4_Demo\gagent\libgagent.a(mqttlib.o)	#SHT_PROGBITS,SHF_ALLOC|SHF_MERGE|SHF_STRINGS,1
	0x4303f74c		.L__FUNCTION__.mqtt_subscribes
.rodata.str1.1	0x4303f75c	0x29	G:\TEMP\GoKit4_Demo\gagent\libgagent.a(mqttlib.o)	#SHT_PROGBITS,SHF_ALLOC|SHF_MERGE|SHF_STRINGS,1
	0x4303f75c		.L.str.17
PADDING_ALIGNMENT	0x4303f785	0x3	0x0
.rodata	0x4303f788	0xc	G:\TEMP\GoKit4_Demo\gagent\libgagent.a(mqttlib.o)	#SHT_PROGBITS,SHF_ALLOC,8
.rodata.str1.1	0x4303f794	0x24	G:\TEMP\GoKit4_Demo\gagent\libgagent.a(otawan.o)	#SHT_PROGBITS,SHF_ALLOC|SHF_MERGE|SHF_STRINGS,1
	0x4303f794		.L.str.2
.rodata.str1.1	0x4303f7b8	0x13	G:\TEMP\GoKit4_Demo\gagent\libgagent.a(otawan.o)	#SHT_PROGBITS,SHF_ALLOC|SHF_MERGE|SHF_STRINGS,1
	0x4303f7b8		.L__FUNCTION__.gatWanOtaStatusGet
.rodata.str1.1	0x4303f7cb	0x36	G:\TEMP\GoKit4_Demo\gagent\libgagent.a(otawan.o)	#SHT_PROGBITS,SHF_ALLOC|SHF_MERGE|SHF_STRINGS,1
	0x4303f7cb		.L.str.3
.rodata.str1.1	0x4303f801	0x12	G:\TEMP\GoKit4_Demo\gagent\libgagent.a(otawan.o)	#SHT_PROGBITS,SHF_ALLOC|SHF_MERGE|SHF_STRINGS,1
	0x4303f801		.L__FUNCTION__.gatOTAEventHandle
.rodata.str1.1	0x4303f813	0x10	G:\TEMP\GoKit4_Demo\gagent\libgagent.a(otawan.o)	#SHT_PROGBITS,SHF_ALLOC|SHF_MERGE|SHF_STRINGS,1
	0x4303f813		.L.str.5
.rodata.str1.1	0x4303f823	0x7	G:\TEMP\GoKit4_Demo\gagent\libgagent.a(otawan.o)	#SHT_PROGBITS,SHF_ALLOC|SHF_MERGE|SHF_STRINGS,1
	0x4303f823		.L.str.6
.rodata.str1.1	0x4303f82a	0x32	G:\TEMP\GoKit4_Demo\gagent\libgagent.a(otawan.o)	#SHT_PROGBITS,SHF_ALLOC|SHF_MERGE|SHF_STRINGS,1
	0x4303f82a		.L.str.7
.rodata.str1.1	0x4303f85c	0xf	G:\TEMP\GoKit4_Demo\gagent\libgagent.a(otawan.o)	#SHT_PROGBITS,SHF_ALLOC|SHF_MERGE|SHF_STRINGS,1
	0x4303f85c		.L.str.8
.rodata.str1.1	0x4303f86b	0x18	G:\TEMP\GoKit4_Demo\gagent\libgagent.a(otawan.o)	#SHT_PROGBITS,SHF_ALLOC|SHF_MERGE|SHF_STRINGS,1
	0x4303f86b		.L.str.10
.rodata.str1.1	0x4303f883	0xa	G:\TEMP\GoKit4_Demo\gagent\libgagent.a(otawan.o)	#SHT_PROGBITS,SHF_ALLOC|SHF_MERGE|SHF_STRINGS,1
	0x4303f883		.L.str.14
.rodata.str1.1	0x4303f88d	0x5	G:\TEMP\GoKit4_Demo\gagent\libgagent.a(otawan.o)	#SHT_PROGBITS,SHF_ALLOC|SHF_MERGE|SHF_STRINGS,1
	0x4303f88d		.L.str.17
.rodata.str1.1	0x4303f892	0x26	G:\TEMP\GoKit4_Demo\gagent\libgagent.a(otawan.o)	#SHT_PROGBITS,SHF_ALLOC|SHF_MERGE|SHF_STRINGS,1
	0x4303f892		.L.str.18
.rodata.str1.1	0x4303f8b8	0x5	G:\TEMP\GoKit4_Demo\gagent\libgagent.a(otawan.o)	#SHT_PROGBITS,SHF_ALLOC|SHF_MERGE|SHF_STRINGS,1
	0x4303f8b8		.L.str.19
.rodata.str1.1	0x4303f8bd	0x26	G:\TEMP\GoKit4_Demo\gagent\libgagent.a(otawan.o)	#SHT_PROGBITS,SHF_ALLOC|SHF_MERGE|SHF_STRINGS,1
	0x4303f8bd		.L.str.20
.rodata.str1.1	0x4303f8e3	0x42	G:\TEMP\GoKit4_Demo\gagent\libgagent.a(otawan.o)	#SHT_PROGBITS,SHF_ALLOC|SHF_MERGE|SHF_STRINGS,1
	0x4303f8e3		.L.str.21
.rodata.str1.1	0x4303f925	0x1f	G:\TEMP\GoKit4_Demo\gagent\libgagent.a(otawan.o)	#SHT_PROGBITS,SHF_ALLOC|SHF_MERGE|SHF_STRINGS,1
	0x4303f925		.L.str.22
.rodata.str1.1	0x4303f944	0x12	G:\TEMP\GoKit4_Demo\gagent\libgagent.a(otawan.o)	#SHT_PROGBITS,SHF_ALLOC|SHF_MERGE|SHF_STRINGS,1
	0x4303f944		.L__FUNCTION__.gatReqLastVersion
.rodata.str1.1	0x4303f956	0x28	G:\TEMP\GoKit4_Demo\gagent\libgagent.a(otawan.o)	#SHT_PROGBITS,SHF_ALLOC|SHF_MERGE|SHF_STRINGS,1
	0x4303f956		.L.str.23
.rodata.str1.1	0x4303f97e	0x6	G:\TEMP\GoKit4_Demo\gagent\libgagent.a(otawan.o)	#SHT_PROGBITS,SHF_ALLOC|SHF_MERGE|SHF_STRINGS,1
	0x4303f97e		.L.str.24
.rodata.str1.1	0x4303f984	0x5c	G:\TEMP\GoKit4_Demo\gagent\libgagent.a(otawan.o)	#SHT_PROGBITS,SHF_ALLOC|SHF_MERGE|SHF_STRINGS,1
	0x4303f984		.L.str.25
.rodata.str1.1	0x4303f9e0	0xd	G:\TEMP\GoKit4_Demo\gagent\libgagent.a(otawan.o)	#SHT_PROGBITS,SHF_ALLOC|SHF_MERGE|SHF_STRINGS,1
	0x4303f9e0		.L.str.26
.rodata.str1.1	0x4303f9ed	0xc	G:\TEMP\GoKit4_Demo\gagent\libgagent.a(otawan.o)	#SHT_PROGBITS,SHF_ALLOC|SHF_MERGE|SHF_STRINGS,1
	0x4303f9ed		.L.str.27
.rodata.str1.1	0x4303f9f9	0x24	G:\TEMP\GoKit4_Demo\gagent\libgagent.a(otawan.o)	#SHT_PROGBITS,SHF_ALLOC|SHF_MERGE|SHF_STRINGS,1
	0x4303f9f9		.L.str.30
.rodata.str1.1	0x4303fa1d	0x14	G:\TEMP\GoKit4_Demo\gagent\libgagent.a(otawan.o)	#SHT_PROGBITS,SHF_ALLOC|SHF_MERGE|SHF_STRINGS,1
	0x4303fa1d		.L__FUNCTION__.gatReqLastVersionCb
.rodata.str1.1	0x4303fa31	0x2c	G:\TEMP\GoKit4_Demo\gagent\libgagent.a(otawan.o)	#SHT_PROGBITS,SHF_ALLOC|SHF_MERGE|SHF_STRINGS,1
	0x4303fa31		.L.str.31
.rodata.str1.1	0x4303fa5d	0x29	G:\TEMP\GoKit4_Demo\gagent\libgagent.a(otawan.o)	#SHT_PROGBITS,SHF_ALLOC|SHF_MERGE|SHF_STRINGS,1
	0x4303fa5d		.L.str.32
.rodata.str1.1	0x4303fa86	0x1d	G:\TEMP\GoKit4_Demo\gagent\libgagent.a(otawan.o)	#SHT_PROGBITS,SHF_ALLOC|SHF_MERGE|SHF_STRINGS,1
	0x4303fa86		.L.str.33
.rodata.str1.1	0x4303faa3	0x1a	G:\TEMP\GoKit4_Demo\gagent\libgagent.a(otawan.o)	#SHT_PROGBITS,SHF_ALLOC|SHF_MERGE|SHF_STRINGS,1
	0x4303faa3		.L.str.35
.rodata.str1.1	0x4303fabd	0x15	G:\TEMP\GoKit4_Demo\gagent\libgagent.a(otawan.o)	#SHT_PROGBITS,SHF_ALLOC|SHF_MERGE|SHF_STRINGS,1
	0x4303fabd		.L.str.36
.rodata.str1.1	0x4303fad2	0x14	G:\TEMP\GoKit4_Demo\gagent\libgagent.a(otawan.o)	#SHT_PROGBITS,SHF_ALLOC|SHF_MERGE|SHF_STRINGS,1
	0x4303fad2		.L.str.37
.rodata.str1.1	0x4303fae6	0x15	G:\TEMP\GoKit4_Demo\gagent\libgagent.a(otawan.o)	#SHT_PROGBITS,SHF_ALLOC|SHF_MERGE|SHF_STRINGS,1
	0x4303fae6		.L.str.38
.rodata.str1.1	0x4303fafb	0x18	G:\TEMP\GoKit4_Demo\gagent\libgagent.a(otawan.o)	#SHT_PROGBITS,SHF_ALLOC|SHF_MERGE|SHF_STRINGS,1
	0x4303fafb		.L.str.39
.rodata.str1.1	0x4303fb13	0x18	G:\TEMP\GoKit4_Demo\gagent\libgagent.a(otawan.o)	#SHT_PROGBITS,SHF_ALLOC|SHF_MERGE|SHF_STRINGS,1
	0x4303fb13		.L.str.40
.rodata.str1.1	0x4303fb2b	0x18	G:\TEMP\GoKit4_Demo\gagent\libgagent.a(otawan.o)	#SHT_PROGBITS,SHF_ALLOC|SHF_MERGE|SHF_STRINGS,1
	0x4303fb2b		.L.str.41
.rodata.str1.1	0x4303fb43	0x20	G:\TEMP\GoKit4_Demo\gagent\libgagent.a(otawan.o)	#SHT_PROGBITS,SHF_ALLOC|SHF_MERGE|SHF_STRINGS,1
	0x4303fb43		.L.str.42
.rodata.str1.1	0x4303fb63	0x11	G:\TEMP\GoKit4_Demo\gagent\libgagent.a(otawan.o)	#SHT_PROGBITS,SHF_ALLOC|SHF_MERGE|SHF_STRINGS,1
	0x4303fb63		.L__FUNCTION__.gatOtaSoftVerify
.rodata.str1.1	0x4303fb74	0x9	G:\TEMP\GoKit4_Demo\gagent\libgagent.a(otawan.o)	#SHT_PROGBITS,SHF_ALLOC|SHF_MERGE|SHF_STRINGS,1
	0x4303fb74		.L.str.43
.rodata.str1.1	0x4303fb7d	0x22	G:\TEMP\GoKit4_Demo\gagent\libgagent.a(otawan.o)	#SHT_PROGBITS,SHF_ALLOC|SHF_MERGE|SHF_STRINGS,1
	0x4303fb7d		.L.str.44
.rodata.str1.1	0x4303fb9f	0x1d	G:\TEMP\GoKit4_Demo\gagent\libgagent.a(otawan.o)	#SHT_PROGBITS,SHF_ALLOC|SHF_MERGE|SHF_STRINGS,1
	0x4303fb9f		.L.str.45
.rodata.str1.1	0x4303fbbc	0xd	G:\TEMP\GoKit4_Demo\gagent\libgagent.a(otawan.o)	#SHT_PROGBITS,SHF_ALLOC|SHF_MERGE|SHF_STRINGS,1
	0x4303fbbc		.L.str.46
.rodata.str1.1	0x4303fbc9	0x8	G:\TEMP\GoKit4_Demo\gagent\libgagent.a(otawan.o)	#SHT_PROGBITS,SHF_ALLOC|SHF_MERGE|SHF_STRINGS,1
	0x4303fbc9		.L.str.47
.rodata.str1.1	0x4303fbd1	0x37	G:\TEMP\GoKit4_Demo\gagent\libgagent.a(otawan.o)	#SHT_PROGBITS,SHF_ALLOC|SHF_MERGE|SHF_STRINGS,1
	0x4303fbd1		.L.str.50
.rodata.str1.1	0x4303fc08	0x2c	G:\TEMP\GoKit4_Demo\gagent\libgagent.a(otawan.o)	#SHT_PROGBITS,SHF_ALLOC|SHF_MERGE|SHF_STRINGS,1
	0x4303fc08		.L.str.52
.rodata.str1.1	0x4303fc34	0x13	G:\TEMP\GoKit4_Demo\gagent\libgagent.a(otawan.o)	#SHT_PROGBITS,SHF_ALLOC|SHF_MERGE|SHF_STRINGS,1
	0x4303fc34		.L.str.53
.rodata.str1.1	0x4303fc47	0x34	G:\TEMP\GoKit4_Demo\gagent\libgagent.a(otawan.o)	#SHT_PROGBITS,SHF_ALLOC|SHF_MERGE|SHF_STRINGS,1
	0x4303fc47		.L.str.54
.rodata.str1.1	0x4303fc7b	0x13	G:\TEMP\GoKit4_Demo\gagent\libgagent.a(otawan.o)	#SHT_PROGBITS,SHF_ALLOC|SHF_MERGE|SHF_STRINGS,1
	0x4303fc7b		.L__FUNCTION__.gatWanOtaStatusSet
.rodata.str1.1	0x4303fc8e	0x26	G:\TEMP\GoKit4_Demo\gagent\libgagent.a(otawan.o)	#SHT_PROGBITS,SHF_ALLOC|SHF_MERGE|SHF_STRINGS,1
	0x4303fc8e		.L.str.55
.rodata.str1.1	0x4303fcb4	0x16	G:\TEMP\GoKit4_Demo\gagent\libgagent.a(otawan.o)	#SHT_PROGBITS,SHF_ALLOC|SHF_MERGE|SHF_STRINGS,1
	0x4303fcb4		.L__FUNCTION__.gatDownLoadFirmwareCb
.rodata.str1.1	0x4303fcca	0x1a	G:\TEMP\GoKit4_Demo\gagent\libgagent.a(otawan.o)	#SHT_PROGBITS,SHF_ALLOC|SHF_MERGE|SHF_STRINGS,1
	0x4303fcca		.L.str.56
.rodata.str1.1	0x4303fce4	0x38	G:\TEMP\GoKit4_Demo\gagent\libgagent.a(otawan.o)	#SHT_PROGBITS,SHF_ALLOC|SHF_MERGE|SHF_STRINGS,1
	0x4303fce4		.L.str.57
.rodata.str1.1	0x4303fd1c	0x35	G:\TEMP\GoKit4_Demo\gagent\libgagent.a(otawan.o)	#SHT_PROGBITS,SHF_ALLOC|SHF_MERGE|SHF_STRINGS,1
	0x4303fd1c		.L.str.58
.rodata.str1.1	0x4303fd51	0x1a	G:\TEMP\GoKit4_Demo\gagent\libgagent.a(otawan.o)	#SHT_PROGBITS,SHF_ALLOC|SHF_MERGE|SHF_STRINGS,1
	0x4303fd51		.L.str.59
.rodata.str1.1	0x4303fd6b	0x1a	G:\TEMP\GoKit4_Demo\gagent\libgagent.a(otawan.o)	#SHT_PROGBITS,SHF_ALLOC|SHF_MERGE|SHF_STRINGS,1
	0x4303fd6b		.L.str.60
.rodata.str1.1	0x4303fd85	0x1a	G:\TEMP\GoKit4_Demo\gagent\libgagent.a(otawan.o)	#SHT_PROGBITS,SHF_ALLOC|SHF_MERGE|SHF_STRINGS,1
	0x4303fd85		.L.str.61
.rodata.str1.1	0x4303fd9f	0x1a	G:\TEMP\GoKit4_Demo\gagent\libgagent.a(otawan.o)	#SHT_PROGBITS,SHF_ALLOC|SHF_MERGE|SHF_STRINGS,1
	0x4303fd9f		.L.str.62
.rodata.str1.1	0x4303fdb9	0x12	G:\TEMP\GoKit4_Demo\gagent\libgagent.a(otawan.o)	#SHT_PROGBITS,SHF_ALLOC|SHF_MERGE|SHF_STRINGS,1
	0x4303fdb9		.L.str.63
.rodata.str1.1	0x4303fdcb	0x1a	G:\TEMP\GoKit4_Demo\gagent\libgagent.a(otawan.o)	#SHT_PROGBITS,SHF_ALLOC|SHF_MERGE|SHF_STRINGS,1
	0x4303fdcb		.L.str.64
.rodata.str1.1	0x4303fde5	0x11	G:\TEMP\GoKit4_Demo\gagent\libgagent.a(otawan.o)	#SHT_PROGBITS,SHF_ALLOC|SHF_MERGE|SHF_STRINGS,1
	0x4303fde5		.L.str.65
.rodata.str1.1	0x4303fdf6	0x14	G:\TEMP\GoKit4_Demo\gagent\libgagent.a(otawan.o)	#SHT_PROGBITS,SHF_ALLOC|SHF_MERGE|SHF_STRINGS,1
	0x4303fdf6		.L.str.67
.rodata.str1.1	0x4303fe0a	0x13	G:\TEMP\GoKit4_Demo\gagent\libgagent.a(otawan.o)	#SHT_PROGBITS,SHF_ALLOC|SHF_MERGE|SHF_STRINGS,1
	0x4303fe0a		.L.str.68
.rodata.str1.1	0x4303fe1d	0x17	G:\TEMP\GoKit4_Demo\gagent\libgagent.a(otawan.o)	#SHT_PROGBITS,SHF_ALLOC|SHF_MERGE|SHF_STRINGS,1
	0x4303fe1d		.L.str.69
.rodata.str1.1	0x4303fe34	0x29	G:\TEMP\GoKit4_Demo\gagent\libgagent.a(otawan.o)	#SHT_PROGBITS,SHF_ALLOC|SHF_MERGE|SHF_STRINGS,1
	0x4303fe34		.L.str.70
.rodata.str1.1	0x4303fe5d	0x15	G:\TEMP\GoKit4_Demo\gagent\libgagent.a(otawan.o)	#SHT_PROGBITS,SHF_ALLOC|SHF_MERGE|SHF_STRINGS,1
	0x4303fe5d		.L.str.71
.rodata.str1.1	0x4303fe72	0x12	G:\TEMP\GoKit4_Demo\gagent\libgagent.a(otawan.o)	#SHT_PROGBITS,SHF_ALLOC|SHF_MERGE|SHF_STRINGS,1
	0x4303fe72		.L.str.72
.rodata.str1.1	0x4303fe84	0x5c	G:\TEMP\GoKit4_Demo\gagent\libgagent.a(otawan.o)	#SHT_PROGBITS,SHF_ALLOC|SHF_MERGE|SHF_STRINGS,1
	0x4303fe84		.L.str.73
.rodata.str1.1	0x4303fee0	0x1e	G:\TEMP\GoKit4_Demo\gagent\libgagent.a(otawan.o)	#SHT_PROGBITS,SHF_ALLOC|SHF_MERGE|SHF_STRINGS,1
	0x4303fee0		.L.str.74
.rodata.str1.1	0x4303fefe	0x20	G:\TEMP\GoKit4_Demo\gagent\libgagent.a(otawan.o)	#SHT_PROGBITS,SHF_ALLOC|SHF_MERGE|SHF_STRINGS,1
	0x4303fefe		.L.str.75
.rodata.str1.1	0x4303ff1e	0x21	G:\TEMP\GoKit4_Demo\gagent\libgagent.a(otawan.o)	#SHT_PROGBITS,SHF_ALLOC|SHF_MERGE|SHF_STRINGS,1
	0x4303ff1e		.L.str.76
.rodata.str1.1	0x4303ff3f	0x31	G:\TEMP\GoKit4_Demo\gagent\libgagent.a(otawan.o)	#SHT_PROGBITS,SHF_ALLOC|SHF_MERGE|SHF_STRINGS,1
	0x4303ff3f		.L.str.77
.rodata.str1.1	0x4303ff70	0x20	G:\TEMP\GoKit4_Demo\gagent\libgagent.a(otawan.o)	#SHT_PROGBITS,SHF_ALLOC|SHF_MERGE|SHF_STRINGS,1
	0x4303ff70		.L.str.78
.rodata.str1.1	0x4303ff90	0x23	G:\TEMP\GoKit4_Demo\gagent\libgagent.a(otawan.o)	#SHT_PROGBITS,SHF_ALLOC|SHF_MERGE|SHF_STRINGS,1
	0x4303ff90		.L.str.79
.rodata.str1.1	0x4303ffb3	0x4d	G:\TEMP\GoKit4_Demo\gagent\libgagent.a(otawan.o)	#SHT_PROGBITS,SHF_ALLOC|SHF_MERGE|SHF_STRINGS,1
	0x4303ffb3		.L.str.80
.rodata.str1.1	0x43040000	0x39	G:\TEMP\GoKit4_Demo\gagent\libgagent.a(otawan.o)	#SHT_PROGBITS,SHF_ALLOC|SHF_MERGE|SHF_STRINGS,1
	0x43040000		.L.str.81
.rodata.str1.1	0x43040039	0x12	G:\TEMP\GoKit4_Demo\gagent\libgagent.a(otawan.o)	#SHT_PROGBITS,SHF_ALLOC|SHF_MERGE|SHF_STRINGS,1
	0x43040039		.L.str.82
.rodata.str1.1	0x4304004b	0x15	G:\TEMP\GoKit4_Demo\gagent\libgagent.a(otawan.o)	#SHT_PROGBITS,SHF_ALLOC|SHF_MERGE|SHF_STRINGS,1
	0x4304004b		.L__FUNCTION__.gatReDownloadTimerCb
.rodata.str1.1	0x43040060	0x1e	G:\TEMP\GoKit4_Demo\gagent\libgagent.a(simulator.o)	#SHT_PROGBITS,SHF_ALLOC|SHF_MERGE|SHF_STRINGS,1
	0x43040060		.L__FUNCTION__.simulatorLogOutCloudTimeOutCb
.rodata.str1.1	0x4304007e	0x28	G:\TEMP\GoKit4_Demo\gagent\libgagent.a(simulator.o)	#SHT_PROGBITS,SHF_ALLOC|SHF_MERGE|SHF_STRINGS,1
	0x4304007e		.L.str.3
.rodata.str1.1	0x430400a6	0x13	G:\TEMP\GoKit4_Demo\gagent\libgagent.a(simulator.o)	#SHT_PROGBITS,SHF_ALLOC|SHF_MERGE|SHF_STRINGS,1
	0x430400a6		.L__FUNCTION__.onSimulatorLoginCb
.rodata.str1.1	0x430400b9	0x17	G:\TEMP\GoKit4_Demo\gagent\libgagent.a(simulator.o)	#SHT_PROGBITS,SHF_ALLOC|SHF_MERGE|SHF_STRINGS,1
	0x430400b9		.L.str.9
.rodata.str1.1	0x430400d0	0x38	G:\TEMP\GoKit4_Demo\gagent\libgagent.a(simulator.o)	#SHT_PROGBITS,SHF_ALLOC|SHF_MERGE|SHF_STRINGS,1
	0x430400d0		.L.str.10
.rodata.str1.1	0x43040108	0x22	G:\TEMP\GoKit4_Demo\gagent\libgagent.a(simulator.o)	#SHT_PROGBITS,SHF_ALLOC|SHF_MERGE|SHF_STRINGS,1
	0x43040108		.L.str.11
.rodata.str1.1	0x4304012a	0x10	G:\TEMP\GoKit4_Demo\gagent\libgagent.a(simulator.o)	#SHT_PROGBITS,SHF_ALLOC|SHF_MERGE|SHF_STRINGS,1
	0x4304012a		.L.str.14
.rodata.str1.1	0x4304013a	0x15	G:\TEMP\GoKit4_Demo\gagent\libgagent.a(simulator.o)	#SHT_PROGBITS,SHF_ALLOC|SHF_MERGE|SHF_STRINGS,1
	0x4304013a		.L__FUNCTION__.onSimulatorSignOutCb
.rodata.str1.1	0x4304014f	0x1a	G:\TEMP\GoKit4_Demo\gagent\libgagent.a(simulator.o)	#SHT_PROGBITS,SHF_ALLOC|SHF_MERGE|SHF_STRINGS,1
	0x4304014f		.L.str.15
.rodata.str1.1	0x43040169	0x24	G:\TEMP\GoKit4_Demo\gagent\libgagent.a(simulator.o)	#SHT_PROGBITS,SHF_ALLOC|SHF_MERGE|SHF_STRINGS,1
	0x43040169		.L.str.16
.rodata.str1.1	0x4304018d	0x25	G:\TEMP\GoKit4_Demo\gagent\libgagent.a(simulator.o)	#SHT_PROGBITS,SHF_ALLOC|SHF_MERGE|SHF_STRINGS,1
	0x4304018d		.L.str.17
.rodata.str1.1	0x430401b2	0x14	G:\TEMP\GoKit4_Demo\gagent\libgagent.a(simulator.o)	#SHT_PROGBITS,SHF_ALLOC|SHF_MERGE|SHF_STRINGS,1
	0x430401b2		.L.str.18
.rodata.str1.1	0x430401c6	0x15	G:\TEMP\GoKit4_Demo\gagent\libgagent.a(simulator.o)	#SHT_PROGBITS,SHF_ALLOC|SHF_MERGE|SHF_STRINGS,1
	0x430401c6		.L__FUNCTION__.gatSubDevsRegisterCb
.rodata.str1.1	0x430401db	0x2b	G:\TEMP\GoKit4_Demo\gagent\libgagent.a(simulator.o)	#SHT_PROGBITS,SHF_ALLOC|SHF_MERGE|SHF_STRINGS,1
	0x430401db		.L.str.19
.rodata.str1.1	0x43040206	0x14	G:\TEMP\GoKit4_Demo\gagent\libgagent.a(simulator.o)	#SHT_PROGBITS,SHF_ALLOC|SHF_MERGE|SHF_STRINGS,1
	0x43040206		.L.str.20
.rodata.str1.1	0x4304021a	0x12	G:\TEMP\GoKit4_Demo\gagent\libgagent.a(simulator.o)	#SHT_PROGBITS,SHF_ALLOC|SHF_MERGE|SHF_STRINGS,1
	0x4304021a		.L__FUNCTION__.gagentconnect2M2M
.rodata.str1.1	0x4304022c	0x21	G:\TEMP\GoKit4_Demo\gagent\libgagent.a(simulator.o)	#SHT_PROGBITS,SHF_ALLOC|SHF_MERGE|SHF_STRINGS,1
	0x4304022c		.L.str.21
.rodata.str1.1	0x4304024d	0x24	G:\TEMP\GoKit4_Demo\gagent\libgagent.a(simulator.o)	#SHT_PROGBITS,SHF_ALLOC|SHF_MERGE|SHF_STRINGS,1
	0x4304024d		.L.str.22
.rodata.str1.1	0x43040271	0x1d	G:\TEMP\GoKit4_Demo\gagent\libgagent.a(simulator.o)	#SHT_PROGBITS,SHF_ALLOC|SHF_MERGE|SHF_STRINGS,1
	0x43040271		.L.str.23
.rodata.str1.1	0x4304028e	0x11	G:\TEMP\GoKit4_Demo\gagent\libgagent.a(simulator.o)	#SHT_PROGBITS,SHF_ALLOC|SHF_MERGE|SHF_STRINGS,1
	0x4304028e		.L.str.24
.rodata.str1.1	0x4304029f	0x3f	G:\TEMP\GoKit4_Demo\gagent\libgagent.a(simulator.o)	#SHT_PROGBITS,SHF_ALLOC|SHF_MERGE|SHF_STRINGS,1
	0x4304029f		.L.str.25
.rodata.str1.1	0x430402de	0x29	G:\TEMP\GoKit4_Demo\gagent\libgagent.a(simulator.o)	#SHT_PROGBITS,SHF_ALLOC|SHF_MERGE|SHF_STRINGS,1
	0x430402de		.L.str.26
.rodata.str1.1	0x43040307	0x14	G:\TEMP\GoKit4_Demo\gagent\libgagent.a(simulator.o)	#SHT_PROGBITS,SHF_ALLOC|SHF_MERGE|SHF_STRINGS,1
	0x43040307		.L__FUNCTION__.gagentDisconnectM2M
.rodata.str1.1	0x4304031b	0x1c	G:\TEMP\GoKit4_Demo\gagent\libgagent.a(simulator.o)	#SHT_PROGBITS,SHF_ALLOC|SHF_MERGE|SHF_STRINGS,1
	0x4304031b		.L.str.27
.rodata.str1.1	0x43040337	0xc	G:\TEMP\GoKit4_Demo\gagent\libgagent.a(simulator.o)	#SHT_PROGBITS,SHF_ALLOC|SHF_MERGE|SHF_STRINGS,1
	0x43040337		.L.str.28
.rodata.str1.1	0x43040343	0x32	G:\TEMP\GoKit4_Demo\gagent\libgagent.a(simulator.o)	#SHT_PROGBITS,SHF_ALLOC|SHF_MERGE|SHF_STRINGS,1
	0x43040343		.L.str.29
.rodata.str1.1	0x43040375	0x19	G:\TEMP\GoKit4_Demo\gagent\libgagent.a(simulator.o)	#SHT_PROGBITS,SHF_ALLOC|SHF_MERGE|SHF_STRINGS,1
	0x43040375		.L.str.30
.rodata.str1.1	0x4304038e	0x5b	G:\TEMP\GoKit4_Demo\gagent\libgagent.a(simulator.o)	#SHT_PROGBITS,SHF_ALLOC|SHF_MERGE|SHF_STRINGS,1
	0x4304038e		.L.str.31
.rodata.str1.1	0x430403e9	0x15	G:\TEMP\GoKit4_Demo\gagent\libgagent.a(simulator.o)	#SHT_PROGBITS,SHF_ALLOC|SHF_MERGE|SHF_STRINGS,1
	0x430403e9		.L__FUNCTION__.gagentResetSimulator
.rodata.str1.1	0x430403fe	0x44	G:\TEMP\GoKit4_Demo\gagent\libgagent.a(simulator.o)	#SHT_PROGBITS,SHF_ALLOC|SHF_MERGE|SHF_STRINGS,1
	0x430403fe		.L.str.32
.rodata.str1.1	0x43040442	0x2c	G:\TEMP\GoKit4_Demo\gagent\libgagent.a(simulator.o)	#SHT_PROGBITS,SHF_ALLOC|SHF_MERGE|SHF_STRINGS,1
	0x43040442		.L.str.33
.rodata.str1.1	0x4304046e	0xe	G:\TEMP\GoKit4_Demo\gagent\libgagent.a(simulator.o)	#SHT_PROGBITS,SHF_ALLOC|SHF_MERGE|SHF_STRINGS,1
	0x4304046e		.L.str.34
.rodata.str1.1	0x4304047c	0x25	G:\TEMP\GoKit4_Demo\gagent\libgagent.a(simulator.o)	#SHT_PROGBITS,SHF_ALLOC|SHF_MERGE|SHF_STRINGS,1
	0x4304047c		.L.str.35
.rodata.str1.1	0x430404a1	0x24	G:\TEMP\GoKit4_Demo\gagent\libgagent.a(simulator.o)	#SHT_PROGBITS,SHF_ALLOC|SHF_MERGE|SHF_STRINGS,1
	0x430404a1		.L.str.36
.rodata.str1.1	0x430404c5	0x25	G:\TEMP\GoKit4_Demo\gagent\libgagent.a(simulator.o)	#SHT_PROGBITS,SHF_ALLOC|SHF_MERGE|SHF_STRINGS,1
	0x430404c5		.L.str.37
.rodata.str1.1	0x430404ea	0x28	G:\TEMP\GoKit4_Demo\gagent\libgagent.a(simulator.o)	#SHT_PROGBITS,SHF_ALLOC|SHF_MERGE|SHF_STRINGS,1
	0x430404ea		.L.str.38
.rodata.str1.1	0x43040512	0x23	G:\TEMP\GoKit4_Demo\gagent\libgagent.a(simulator.o)	#SHT_PROGBITS,SHF_ALLOC|SHF_MERGE|SHF_STRINGS,1
	0x43040512		.L.str.39
.rodata.str1.1	0x43040535	0x13	G:\TEMP\GoKit4_Demo\gagent\libgagent.a(simulator.o)	#SHT_PROGBITS,SHF_ALLOC|SHF_MERGE|SHF_STRINGS,1
	0x43040535		.L__FUNCTION__.gagentDevsRegister
.rodata.str1.1	0x43040548	0x24	G:\TEMP\GoKit4_Demo\gagent\libgagent.a(simulator.o)	#SHT_PROGBITS,SHF_ALLOC|SHF_MERGE|SHF_STRINGS,1
	0x43040548		.L.str.40
.rodata.str1.1	0x4304056c	0x24	G:\TEMP\GoKit4_Demo\gagent\libgagent.a(simulator.o)	#SHT_PROGBITS,SHF_ALLOC|SHF_MERGE|SHF_STRINGS,1
	0x4304056c		.L.str.41
.rodata.str1.1	0x43040590	0x27	G:\TEMP\GoKit4_Demo\gagent\libgagent.a(simulator.o)	#SHT_PROGBITS,SHF_ALLOC|SHF_MERGE|SHF_STRINGS,1
	0x43040590		.L.str.42
.rodata.str1.1	0x430405b7	0x45	G:\TEMP\GoKit4_Demo\gagent\libgagent.a(simulator.o)	#SHT_PROGBITS,SHF_ALLOC|SHF_MERGE|SHF_STRINGS,1
	0x430405b7		.L.str.43
.rodata.str1.1	0x430405fc	0x3c	G:\TEMP\GoKit4_Demo\gagent\libgagent.a(simulator.o)	#SHT_PROGBITS,SHF_ALLOC|SHF_MERGE|SHF_STRINGS,1
	0x430405fc		.L.str.44
.rodata.str1.1	0x43040638	0x2d	G:\TEMP\GoKit4_Demo\gagent\libgagent.a(simulator.o)	#SHT_PROGBITS,SHF_ALLOC|SHF_MERGE|SHF_STRINGS,1
	0x43040638		.L.str.45
.rodata.str1.1	0x43040665	0x41	G:\TEMP\GoKit4_Demo\gagent\libgagent.a(simulator.o)	#SHT_PROGBITS,SHF_ALLOC|SHF_MERGE|SHF_STRINGS,1
	0x43040665		.L.str.46
.rodata.str1.1	0x430406a6	0x40	G:\TEMP\GoKit4_Demo\gagent\libgagent.a(simulator.o)	#SHT_PROGBITS,SHF_ALLOC|SHF_MERGE|SHF_STRINGS,1
	0x430406a6		.L.str.47
.rodata.str1.1	0x430406e6	0x10	G:\TEMP\GoKit4_Demo\gagent\libgagent.a(simulator.o)	#SHT_PROGBITS,SHF_ALLOC|SHF_MERGE|SHF_STRINGS,1
	0x430406e6		.L.str.48
.rodata.str1.1	0x430406f6	0x1c	G:\TEMP\GoKit4_Demo\gagent\libgagent.a(simulator.o)	#SHT_PROGBITS,SHF_ALLOC|SHF_MERGE|SHF_STRINGS,1
	0x430406f6		.L.str.49
.rodata.str1.1	0x43040712	0x20	G:\TEMP\GoKit4_Demo\gagent\libgagent.a(simulator.o)	#SHT_PROGBITS,SHF_ALLOC|SHF_MERGE|SHF_STRINGS,1
	0x43040712		.L.str.50
.rodata.str1.1	0x43040732	0x1e	G:\TEMP\GoKit4_Demo\gagent\libgagent.a(simulator.o)	#SHT_PROGBITS,SHF_ALLOC|SHF_MERGE|SHF_STRINGS,1
	0x43040732		.L.str.51
.rodata.str1.1	0x43040750	0xb	G:\TEMP\GoKit4_Demo\gagent\libgagent.a(simulator.o)	#SHT_PROGBITS,SHF_ALLOC|SHF_MERGE|SHF_STRINGS,1
	0x43040750		.L.str.53
.rodata.str1.1	0x4304075b	0xf	G:\TEMP\GoKit4_Demo\gagent\libgagent.a(simulator.o)	#SHT_PROGBITS,SHF_ALLOC|SHF_MERGE|SHF_STRINGS,1
	0x4304075b		.L.str.54
.rodata.str1.1	0x4304076a	0x16	G:\TEMP\GoKit4_Demo\gagent\libgagent.a(simulator.o)	#SHT_PROGBITS,SHF_ALLOC|SHF_MERGE|SHF_STRINGS,1
	0x4304076a		.L.str.55
.rodata.str1.1	0x43040780	0x6	G:\TEMP\GoKit4_Demo\gagent\libgagent.a(simulator.o)	#SHT_PROGBITS,SHF_ALLOC|SHF_MERGE|SHF_STRINGS,1
.rodata.str1.1	0x43040786	0xd	G:\TEMP\GoKit4_Demo\gagent\libgagent.a(simulator.o)	#SHT_PROGBITS,SHF_ALLOC|SHF_MERGE|SHF_STRINGS,1
	0x43040786		.L.str.57
.rodata.str1.1	0x43040793	0xc	G:\TEMP\GoKit4_Demo\gagent\libgagent.a(simulator.o)	#SHT_PROGBITS,SHF_ALLOC|SHF_MERGE|SHF_STRINGS,1
	0x43040793		.L.str.58
.rodata.str1.1	0x4304079f	0x14	G:\TEMP\GoKit4_Demo\gagent\libgagent.a(simulator.o)	#SHT_PROGBITS,SHF_ALLOC|SHF_MERGE|SHF_STRINGS,1
	0x4304079f		.L.str.59
.rodata.str1.1	0x430407b3	0x1e	G:\TEMP\GoKit4_Demo\gagent\libgagent.a(simulator.o)	#SHT_PROGBITS,SHF_ALLOC|SHF_MERGE|SHF_STRINGS,1
	0x430407b3		.L.str.60
.rodata.str1.1	0x430407d1	0x20	G:\TEMP\GoKit4_Demo\gagent\libgagent.a(simulator.o)	#SHT_PROGBITS,SHF_ALLOC|SHF_MERGE|SHF_STRINGS,1
	0x430407d1		.L.str.61
.rodata.str1.1	0x430407f1	0x2a	G:\TEMP\GoKit4_Demo\gagent\libgagent.a(simulator.o)	#SHT_PROGBITS,SHF_ALLOC|SHF_MERGE|SHF_STRINGS,1
	0x430407f1		.L.str.62
.rodata.str1.1	0x4304081b	0x23	G:\TEMP\GoKit4_Demo\gagent\libgagent.a(simulator.o)	#SHT_PROGBITS,SHF_ALLOC|SHF_MERGE|SHF_STRINGS,1
	0x4304081b		.L.str.63
.rodata.str1.1	0x4304083e	0x22	G:\TEMP\GoKit4_Demo\gagent\libgagent.a(simulator.o)	#SHT_PROGBITS,SHF_ALLOC|SHF_MERGE|SHF_STRINGS,1
	0x4304083e		.L.str.64
.rodata.str1.1	0x43040860	0x23	G:\TEMP\GoKit4_Demo\gagent\libgagent.a(simulator.o)	#SHT_PROGBITS,SHF_ALLOC|SHF_MERGE|SHF_STRINGS,1
	0x43040860		.L.str.68
.rodata.str1.1	0x43040883	0x26	G:\TEMP\GoKit4_Demo\gagent\libgagent.a(simulator.o)	#SHT_PROGBITS,SHF_ALLOC|SHF_MERGE|SHF_STRINGS,1
	0x43040883		.L.str.69
.rodata.str1.1	0x430408a9	0x1c	G:\TEMP\GoKit4_Demo\gagent\libgagent.a(simulator.o)	#SHT_PROGBITS,SHF_ALLOC|SHF_MERGE|SHF_STRINGS,1
	0x430408a9		.L__FUNCTION__.simulatorDevsLoginTimeOutCb
.rodata.str1.1	0x430408c5	0x20	G:\TEMP\GoKit4_Demo\gagent\libgagent.a(simulator.o)	#SHT_PROGBITS,SHF_ALLOC|SHF_MERGE|SHF_STRINGS,1
	0x430408c5		.L.str.70
.rodata.str1.1	0x430408e5	0x10	G:\TEMP\GoKit4_Demo\gagent\libgagent.a(simulator.o)	#SHT_PROGBITS,SHF_ALLOC|SHF_MERGE|SHF_STRINGS,1
	0x430408e5		.L__FUNCTION__.gagentDevsLogin
.rodata.str1.1	0x430408f5	0x1e	G:\TEMP\GoKit4_Demo\gagent\libgagent.a(simulator.o)	#SHT_PROGBITS,SHF_ALLOC|SHF_MERGE|SHF_STRINGS,1
	0x430408f5		.L.str.71
.rodata.str1.1	0x43040913	0x43	G:\TEMP\GoKit4_Demo\gagent\libgagent.a(simulator.o)	#SHT_PROGBITS,SHF_ALLOC|SHF_MERGE|SHF_STRINGS,1
	0x43040913		.L.str.72
.rodata.str1.1	0x43040956	0x17	G:\TEMP\GoKit4_Demo\gagent\libgagent.a(simulator.o)	#SHT_PROGBITS,SHF_ALLOC|SHF_MERGE|SHF_STRINGS,1
	0x43040956		.L.str.73
.rodata.str1.1	0x4304096d	0x11	G:\TEMP\GoKit4_Demo\gagent\libgagent.a(simulator.o)	#SHT_PROGBITS,SHF_ALLOC|SHF_MERGE|SHF_STRINGS,1
	0x4304096d		.L.str.75
.rodata.str1.1	0x4304097e	0x21	G:\TEMP\GoKit4_Demo\gagent\libgagent.a(simulator.o)	#SHT_PROGBITS,SHF_ALLOC|SHF_MERGE|SHF_STRINGS,1
	0x4304097e		.L.str.76
.rodata.str1.1	0x4304099f	0x1c	G:\TEMP\GoKit4_Demo\gagent\libgagent.a(simulator.o)	#SHT_PROGBITS,SHF_ALLOC|SHF_MERGE|SHF_STRINGS,1
	0x4304099f		.L__FUNCTION__.simulatorM2MSignOutSocketCb
.rodata.str1.1	0x430409bb	0x47	G:\TEMP\GoKit4_Demo\gagent\libgagent.a(simulator.o)	#SHT_PROGBITS,SHF_ALLOC|SHF_MERGE|SHF_STRINGS,1
	0x430409bb		.L.str.77
.rodata.str1.1	0x43040a02	0x1c	G:\TEMP\GoKit4_Demo\gagent\libgagent.a(simulator.o)	#SHT_PROGBITS,SHF_ALLOC|SHF_MERGE|SHF_STRINGS,1
	0x43040a02		.L__FUNCTION__.simulatorGServerResetRec_Cb
.rodata.str1.1	0x43040a1e	0x30	G:\TEMP\GoKit4_Demo\gagent\libgagent.a(simulator.o)	#SHT_PROGBITS,SHF_ALLOC|SHF_MERGE|SHF_STRINGS,1
	0x43040a1e		.L.str.78
.rodata.str1.1	0x43040a4e	0x33	G:\TEMP\GoKit4_Demo\gagent\libgagent.a(simulator.o)	#SHT_PROGBITS,SHF_ALLOC|SHF_MERGE|SHF_STRINGS,1
	0x43040a4e		.L.str.79
.rodata.str1.1	0x43040a81	0x1e	G:\TEMP\GoKit4_Demo\gagent\libgagent.a(simulator.o)	#SHT_PROGBITS,SHF_ALLOC|SHF_MERGE|SHF_STRINGS,1
	0x43040a81		.L.str.80
.rodata.str1.1	0x43040a9f	0x17	G:\TEMP\GoKit4_Demo\gagent\libgagent.a(simulator.o)	#SHT_PROGBITS,SHF_ALLOC|SHF_MERGE|SHF_STRINGS,1
	0x43040a9f		.L.str.81
.rodata.str1.1	0x43040ab6	0x1b	G:\TEMP\GoKit4_Demo\gagent\libgagent.a(simulator.o)	#SHT_PROGBITS,SHF_ALLOC|SHF_MERGE|SHF_STRINGS,1
	0x43040ab6		.L.str.83
.rodata.str1.1	0x43040ad1	0x19	G:\TEMP\GoKit4_Demo\gagent\libgagent.a(simulator.o)	#SHT_PROGBITS,SHF_ALLOC|SHF_MERGE|SHF_STRINGS,1
	0x43040ad1		.L.str.84
.rodata.str1.1	0x43040aea	0x16	G:\TEMP\GoKit4_Demo\gagent\libgagent.a(simulator.o)	#SHT_PROGBITS,SHF_ALLOC|SHF_MERGE|SHF_STRINGS,1
	0x43040aea		.L.str.85
.rodata.str1.1	0x43040b00	0x1a	G:\TEMP\GoKit4_Demo\gagent\libgagent.a(simulator.o)	#SHT_PROGBITS,SHF_ALLOC|SHF_MERGE|SHF_STRINGS,1
	0x43040b00		.L__FUNCTION__.simulatorGServerRecHandle
.rodata.str1.1	0x43040b1a	0x47	G:\TEMP\GoKit4_Demo\gagent\libgagent.a(simulator.o)	#SHT_PROGBITS,SHF_ALLOC|SHF_MERGE|SHF_STRINGS,1
	0x43040b1a		.L.str.87
.rodata.str1.1	0x43040b61	0x40	G:\TEMP\GoKit4_Demo\gagent\libgagent.a(simulator.o)	#SHT_PROGBITS,SHF_ALLOC|SHF_MERGE|SHF_STRINGS,1
	0x43040b61		.L.str.88
.rodata.str1.1	0x43040ba1	0x26	G:\TEMP\GoKit4_Demo\gagent\libgagent.a(simulator.o)	#SHT_PROGBITS,SHF_ALLOC|SHF_MERGE|SHF_STRINGS,1
	0x43040ba1		.L.str.89
.rodata.str1.1	0x43040bc7	0x18	G:\TEMP\GoKit4_Demo\gagent\libgagent.a(simulator.o)	#SHT_PROGBITS,SHF_ALLOC|SHF_MERGE|SHF_STRINGS,1
	0x43040bc7		.L.str.90
.rodata.str1.1	0x43040bdf	0x29	G:\TEMP\GoKit4_Demo\gagent\libgagent.a(simulator.o)	#SHT_PROGBITS,SHF_ALLOC|SHF_MERGE|SHF_STRINGS,1
	0x43040bdf		.L.str.91
.rodata.str1.1	0x43040c08	0x37	G:\TEMP\GoKit4_Demo\gagent\libgagent.a(simulator.o)	#SHT_PROGBITS,SHF_ALLOC|SHF_MERGE|SHF_STRINGS,1
	0x43040c08		.L.str.94
.rodata.str1.1	0x43040c3f	0x26	G:\TEMP\GoKit4_Demo\gagent\libgagent.a(simulator.o)	#SHT_PROGBITS,SHF_ALLOC|SHF_MERGE|SHF_STRINGS,1
	0x43040c3f		.L.str.95
.rodata.str1.1	0x43040c65	0x2d	G:\TEMP\GoKit4_Demo\gagent\libgagent.a(simulator.o)	#SHT_PROGBITS,SHF_ALLOC|SHF_MERGE|SHF_STRINGS,1
	0x43040c65		.L.str.96
.rodata.str1.1	0x43040c92	0x2d	G:\TEMP\GoKit4_Demo\gagent\libgagent.a(simulator.o)	#SHT_PROGBITS,SHF_ALLOC|SHF_MERGE|SHF_STRINGS,1
	0x43040c92		.L.str.97
.rodata.str1.1	0x43040cbf	0x18	G:\TEMP\GoKit4_Demo\gagent\libgagent.a(simulator.o)	#SHT_PROGBITS,SHF_ALLOC|SHF_MERGE|SHF_STRINGS,1
	0x43040cbf		.L.str.98
.rodata.str1.1	0x43040cd7	0x30	G:\TEMP\GoKit4_Demo\gagent\libgagent.a(simulator.o)	#SHT_PROGBITS,SHF_ALLOC|SHF_MERGE|SHF_STRINGS,1
	0x43040cd7		.L.str.99
.rodata.str1.1	0x43040d07	0x35	G:\TEMP\GoKit4_Demo\gagent\libgagent.a(simulator.o)	#SHT_PROGBITS,SHF_ALLOC|SHF_MERGE|SHF_STRINGS,1
	0x43040d07		.L.str.100
.rodata.str1.1	0x43040d3c	0x32	G:\TEMP\GoKit4_Demo\gagent\libgagent.a(simulator.o)	#SHT_PROGBITS,SHF_ALLOC|SHF_MERGE|SHF_STRINGS,1
	0x43040d3c		.L.str.101
.rodata.str1.1	0x43040d6e	0x2f	G:\TEMP\GoKit4_Demo\gagent\libgagent.a(simulator.o)	#SHT_PROGBITS,SHF_ALLOC|SHF_MERGE|SHF_STRINGS,1
	0x43040d6e		.L.str.102
.rodata.str1.1	0x43040d9d	0x31	G:\TEMP\GoKit4_Demo\gagent\libgagent.a(simulator.o)	#SHT_PROGBITS,SHF_ALLOC|SHF_MERGE|SHF_STRINGS,1
	0x43040d9d		.L.str.103
.rodata.str1.1	0x43040dce	0x3b	G:\TEMP\GoKit4_Demo\gagent\libgagent.a(simulator.o)	#SHT_PROGBITS,SHF_ALLOC|SHF_MERGE|SHF_STRINGS,1
	0x43040dce		.L.str.104
.rodata.str1.1	0x43040e09	0x50	G:\TEMP\GoKit4_Demo\gagent\libgagent.a(simulator.o)	#SHT_PROGBITS,SHF_ALLOC|SHF_MERGE|SHF_STRINGS,1
	0x43040e09		.L.str.105
.rodata.str1.1	0x43040e59	0x3f	G:\TEMP\GoKit4_Demo\gagent\libgagent.a(simulator.o)	#SHT_PROGBITS,SHF_ALLOC|SHF_MERGE|SHF_STRINGS,1
	0x43040e59		.L.str.106
.rodata.str1.1	0x43040e98	0x2f	G:\TEMP\GoKit4_Demo\gagent\libgagent.a(simulator.o)	#SHT_PROGBITS,SHF_ALLOC|SHF_MERGE|SHF_STRINGS,1
	0x43040e98		.L.str.107
.rodata.str1.1	0x43040ec7	0x36	G:\TEMP\GoKit4_Demo\gagent\libgagent.a(simulator.o)	#SHT_PROGBITS,SHF_ALLOC|SHF_MERGE|SHF_STRINGS,1
	0x43040ec7		.L.str.108
.rodata.str1.1	0x43040efd	0x2c	G:\TEMP\GoKit4_Demo\gagent\libgagent.a(simulator.o)	#SHT_PROGBITS,SHF_ALLOC|SHF_MERGE|SHF_STRINGS,1
	0x43040efd		.L.str.109
.rodata.str1.1	0x43040f29	0x14	G:\TEMP\GoKit4_Demo\gagent\libgagent.a(simulator.o)	#SHT_PROGBITS,SHF_ALLOC|SHF_MERGE|SHF_STRINGS,1
	0x43040f29		.L__FUNCTION__.gatRegsiterSubRecCb
.rodata.str1.1	0x43040f3d	0x3b	G:\TEMP\GoKit4_Demo\gagent\libgagent.a(simulator.o)	#SHT_PROGBITS,SHF_ALLOC|SHF_MERGE|SHF_STRINGS,1
	0x43040f3d		.L.str.111
.rodata.str1.1	0x43040f78	0x33	G:\TEMP\GoKit4_Demo\gagent\libgagent.a(simulator.o)	#SHT_PROGBITS,SHF_ALLOC|SHF_MERGE|SHF_STRINGS,1
	0x43040f78		.L.str.112
.rodata.str1.1	0x43040fab	0x21	G:\TEMP\GoKit4_Demo\gagent\libgagent.a(simulator.o)	#SHT_PROGBITS,SHF_ALLOC|SHF_MERGE|SHF_STRINGS,1
	0x43040fab		.L.str.113
.rodata.str1.1	0x43040fcc	0x1e	G:\TEMP\GoKit4_Demo\gagent\libgagent.a(simulator.o)	#SHT_PROGBITS,SHF_ALLOC|SHF_MERGE|SHF_STRINGS,1
	0x43040fcc		.L.str.116
.rodata.str1.1	0x43040fea	0x2a	G:\TEMP\GoKit4_Demo\gagent\libgagent.a(simulator.o)	#SHT_PROGBITS,SHF_ALLOC|SHF_MERGE|SHF_STRINGS,1
	0x43040fea		.L.str.118
.rodata.str1.1	0x43041014	0x15	G:\TEMP\GoKit4_Demo\gagent\libgagent.a(simulator.o)	#SHT_PROGBITS,SHF_ALLOC|SHF_MERGE|SHF_STRINGS,1
	0x43041014		.L.str.119
.rodata.str1.1	0x43041029	0x22	G:\TEMP\GoKit4_Demo\gagent\libgagent.a(simulator.o)	#SHT_PROGBITS,SHF_ALLOC|SHF_MERGE|SHF_STRINGS,1
	0x43041029		.L.str.120
.rodata.str1.1	0x4304104b	0x1f	G:\TEMP\GoKit4_Demo\gagent\libgagent.a(simulator.o)	#SHT_PROGBITS,SHF_ALLOC|SHF_MERGE|SHF_STRINGS,1
	0x4304104b		.L.str.121
.rodata.str1.1	0x4304106a	0x4	G:\TEMP\GoKit4_Demo\gagent\libgagent.a(simulator.o)	#SHT_PROGBITS,SHF_ALLOC|SHF_MERGE|SHF_STRINGS,1
	0x4304106a		.L.str.122
.rodata.str1.1	0x4304106e	0x1e	G:\TEMP\GoKit4_Demo\gagent\libgagent.a(simulator.o)	#SHT_PROGBITS,SHF_ALLOC|SHF_MERGE|SHF_STRINGS,1
	0x4304106e		.L.str.123
.rodata.str1.1	0x4304108c	0x27	G:\TEMP\GoKit4_Demo\gagent\libgagent.a(simulator.o)	#SHT_PROGBITS,SHF_ALLOC|SHF_MERGE|SHF_STRINGS,1
	0x4304108c		.L.str.124
.rodata.str1.1	0x430410b3	0x22	G:\TEMP\GoKit4_Demo\gagent\libgagent.a(simulator.o)	#SHT_PROGBITS,SHF_ALLOC|SHF_MERGE|SHF_STRINGS,1
	0x430410b3		.L.str.125
.rodata.str1.1	0x430410d5	0x40	G:\TEMP\GoKit4_Demo\gagent\libgagent.a(simulator.o)	#SHT_PROGBITS,SHF_ALLOC|SHF_MERGE|SHF_STRINGS,1
	0x430410d5		.L.str.126
PADDING_ALIGNMENT	0x43041115	0x3	0x0
.rodata.str1.8	0x43041118	0xd	G:\TEMP\GoKit4_Demo\gagent\libgagent.a(simulator.o)	#SHT_PROGBITS,SHF_ALLOC|SHF_MERGE|SHF_STRINGS,8
	0x43041118		.L.str.52
.rodata.str1.1	0x43041125	0x12	sdk\libs\timer_dam_lib.lib(qapi_timer_user.o)	#SHT_PROGBITS,SHF_ALLOC|SHF_MERGE|SHF_STRINGS,1
	0x43041125		.L.str
.rodata.cst32	0x43041137	0x20	D:\4.0.3\armv7m-none-eabi\libc\lib/libc.a(malloc.o)	#SHT_PROGBITS,SHF_ALLOC|SHF_MERGE,1
	0x43041137		a_ctz_64.debruijn32
.rodata.str1.1	0x43041157	0x7	D:\4.0.3\armv7m-none-eabi\libc\lib/libc.a(vfprintf.o)	#SHT_PROGBITS,SHF_ALLOC|SHF_MERGE|SHF_STRINGS,1
.rodata.str1.1	0x4304115e	0xa	D:\4.0.3\armv7m-none-eabi\libc\lib/libc.a(vfprintf.o)	#SHT_PROGBITS,SHF_ALLOC|SHF_MERGE|SHF_STRINGS,1
.rodata.states	0x43041168	0x1d0	D:\4.0.3\armv7m-none-eabi\libc\lib/libc.a(vfprintf.o)	#SHT_PROGBITS,SHF_ALLOC,1
	0x43041168		states
.rodata.cst16	0x43041338	0x10	D:\4.0.3\armv7m-none-eabi\libc\lib/libc.a(vfprintf.o)	#SHT_PROGBITS,SHF_ALLOC|SHF_MERGE,1
	0x43041338		xdigits
.rodata.str1.4	0x43041348	0x14	D:\4.0.3\armv7m-none-eabi\libc\lib/libc.a(vfprintf.o)	#SHT_PROGBITS,SHF_ALLOC|SHF_MERGE|SHF_STRINGS,4
	0x43041348		$d
PADDING_ALIGNMENT	0x4304135c	0x4	0x0
.rodata..Lvsnprintf_full.f	0x43041360	0x90	D:\4.0.3\armv7m-none-eabi\libc\lib/libc.a(vsnprintf.o)	#SHT_PROGBITS,SHF_ALLOC,8
	0x43041360		$d
.rodata.str1.1	0x430413f0	0x58	D:\4.0.3\armv7m-none-eabi\libc\lib/libc.a(strerror.o)	#SHT_PROGBITS,SHF_ALLOC|SHF_MERGE|SHF_STRINGS,1
	0x430413f0		errid
.rodata.errmsg	0x43041448	0x70c	D:\4.0.3\armv7m-none-eabi\libc\lib/libc.a(strerror.o)	#SHT_PROGBITS,SHF_ALLOC,1
	0x43041448		errmsg
.rodata.table	0x43041b54	0x101	D:\4.0.3\armv7m-none-eabi\libc\lib/libc.a(intscan.o)	#SHT_PROGBITS,SHF_ALLOC,1
	0x43041b54		table
.rodata..L.str	0x43041c55	0x9	D:\4.0.3\armv7m-none-eabi\libc\lib/libc.a(intscan.o)	#SHT_PROGBITS,SHF_ALLOC,1
PADDING_ALIGNMENT	0x43041c5e	0x2	0x0
	Image$$ER_RO$$Limit(0x43041c9c) = .( 0x43041c9c );
Image$$ER_RO$$Length(0x41c9c) = Image$$ER_RO$$Limit( 0x43041c9c ) - Image$$ER_RO$$Base( 0x43000000 );

ER_RW	0x43041ca0	0xa54 # Offset: 0x41d00, LMA: 0x43041ca0
	Image$$ER_RW$$Base(0x43041ca0) = .( 0x43041ca0 );
KEEP (*(.data .data.* ))
.data	0x43041ca0	0xe0	G:\TEMP\GoKit4_Demo\objs\gpio.o	#SHT_PROGBITS,SHF_ALLOC|SHF_WRITE,4
	0x43041ca0		gpio_map_tbl
.data	0x43041d80	0x38	G:\TEMP\GoKit4_Demo\objs\uart.o	#SHT_PROGBITS,SHF_ALLOC|SHF_WRITE,16
	0x43041d80		uart1_conf
	0x43041d9c		uart3_conf
.data	0x43041db8	0x4	G:\TEMP\GoKit4_Demo\gagent\libgagent.a(iofdev.o)	#SHT_PROGBITS,SHF_ALLOC|SHF_WRITE,4
	0x43041db8		__stack_chk_guard
.data	0x43041dbc	0xb0	G:\TEMP\GoKit4_Demo\gagent\libgagent.a(iofpthread.o)	#SHT_PROGBITS,SHF_ALLOC|SHF_WRITE,4
	0x43041dbc		gatThreadGroup
.data	0x43041e6c	0x1	G:\TEMP\GoKit4_Demo\gagent\libgagent.a(localprotocol.o)	#SHT_PROGBITS,SHF_ALLOC|SHF_WRITE,1
	0x43041e6c		newLocalSn.g_SN
PADDING_ALIGNMENT	0x43041e6d	0x3	0x0
.data	0x43041e70	0xe4	G:\TEMP\GoKit4_Demo\gagent\libgagent.a(productinfo.o)	#SHT_PROGBITS,SHF_ALLOC|SHF_WRITE,4
	0x43041e70		configData
.data	0x43041f54	0x4	G:\TEMP\GoKit4_Demo\gagent\libgagent.a(aes.o)	#SHT_PROGBITS,SHF_ALLOC|SHF_WRITE,1
	0x43041f54		R
.data	0x43041f58	0x4	G:\TEMP\GoKit4_Demo\gagent\libgagent.a(dp.o)	#SHT_PROGBITS,SHF_ALLOC|SHF_WRITE,4
	0x43041f58		cpCurMode
.data	0x43041f5c	0x8	G:\TEMP\GoKit4_Demo\gagent\libgagent.a(iofnet.o)	#SHT_PROGBITS,SHF_ALLOC|SHF_WRITE,4
	0x43041f5c		tcp_netctl_lib_status
	0x43041f5d		tcp_datacall_status
	0x43041f60		tcp_dss_handle
.data	0x43041f64	0x4	G:\TEMP\GoKit4_Demo\gagent\libgagent.a(mqttgat.o)	#SHT_PROGBITS,SHF_ALLOC|SHF_WRITE,4
	0x43041f64		mqttDoHeartBeat.dCloudTime
.data	0x43041f68	0x4	G:\TEMP\GoKit4_Demo\gagent\libgagent.a(otawan.o)	#SHT_PROGBITS,SHF_ALLOC|SHF_WRITE,4
	0x43041f68		gatDownLoadFirmwareCb.fd
.data	0x43041f6c	0x300	G:\TEMP\GoKit4_Demo\gagent\libgagent.a(cmdtable.o)	#SHT_PROGBITS,SHF_ALLOC|SHF_WRITE,4
	0x43041f6c		lanCmds
	0x4304202c		wanCmds
	0x430420c8		devCmds
	0x43042254		protCmdTab
.data	0x4304226c	0x40	G:\TEMP\GoKit4_Demo\gagent\libgagent.a(gagent_md5.o)	#SHT_PROGBITS,SHF_ALLOC|SHF_WRITE,1
	0x4304226c		PADDING
PADDING_ALIGNMENT	0x430422ac	0x4	0x0
.data.mal	0x430422b0	0x410	D:\4.0.3\armv7m-none-eabi\libc\lib/libc.a(malloc.o)	#SHT_PROGBITS,SHF_ALLOC|SHF_WRITE,8
	0x430422b0		mal
	0x430422b0		$d
.data..L_MergedGlobals	0x430426c0	0xc	D:\4.0.3\armv7m-none-eabi\libc\lib/libc.a(malloc.o)	#SHT_PROGBITS,SHF_ALLOC|SHF_WRITE,4
	0x430426c0		$d
	0x430426c0		expand_heap.end
	0x430426c4		expand_heap.heap_lock
PADDING_ALIGNMENT	0x430426cc	0x4	0x0
.data.seed	0x430426d0	0x8	D:\4.0.3\armv7m-none-eabi\libc\lib/libc.a(rand.o)	#SHT_PROGBITS,SHF_ALLOC|SHF_WRITE,8
	0x430426d0		seed
	0x430426d0		$d
.data.__progname	0x430426d8	0x4	D:\4.0.3\armv7m-none-eabi\libc\lib/libc.a(libc.o)	#SHT_PROGBITS,SHF_ALLOC|SHF_WRITE,4
	0x430426d8		$d
	0x430426d8		__progname
	0x430426d8		program_invocation_short_name
.data.__progname_full	0x430426dc	0x4	D:\4.0.3\armv7m-none-eabi\libc\lib/libc.a(libc.o)	#SHT_PROGBITS,SHF_ALLOC|SHF_WRITE,4
	0x430426dc		$d
	0x430426dc		__progname_full
	0x430426dc		program_invocation_name
.data.__expand_heap.brk	0x430426e0	0x4	D:\4.0.3\armv7m-none-eabi\libc\lib/libc.a(expand_heap.o)	#SHT_PROGBITS,SHF_ALLOC|SHF_WRITE,4
	0x430426e0		__expand_heap.brk
	0x430426e0		$d
.data.__heap_base	0x430426e4	0x4	D:\4.0.3\armv7m-none-eabi\libc\lib/libc.a(__brk.o)	#SHT_PROGBITS,SHF_ALLOC|SHF_WRITE,4
	0x430426e4		$d
	0x430426e4		__heap_base
.data.__heap_limit	0x430426e8	0x4	D:\4.0.3\armv7m-none-eabi\libc\lib/libc.a(__brk.o)	#SHT_PROGBITS,SHF_ALLOC|SHF_WRITE,4
	0x430426e8		$d
	0x430426e8		__heap_limit
.data.dummy_file	0x430426ec	0x4	D:\4.0.3\armv7m-none-eabi\libc\lib/libc.a(__stdio_exit.o)	#SHT_PROGBITS,SHF_ALLOC|SHF_WRITE,4
	0x430426ec		dummy_file
	0x430426ec		$d
	0x430426ec		__stdin_used
	0x430426ec		__stdout_used
	0x430426ec		__stderr_used
.data.ofl_head	0x430426f0	0x4	D:\4.0.3\armv7m-none-eabi\libc\lib/libc.a(ofl.o)	#SHT_PROGBITS,SHF_ALLOC|SHF_WRITE,4
	0x430426f0		ofl_head
	0x430426f0		$d
	Image$$ER_RW$$Limit(0x430426f4) = .( 0x430426f4 );
Image$$ER_RW$$Length(0xa54) = Image$$ER_RW$$Limit( 0x430426f4 ) - Image$$ER_RW$$Base( 0x43041ca0 );

ER_ZI	0x43042700	0x6c8b0 # Offset: 0x42754, LMA: 0x43042700
	Image$$ER_ZI$$Base(0x43042700) = .( 0x43042700 );
*(.bss* .bss.* .common COMMON )
	0x43042700	0xf	G:\TEMP\GoKit4_Demo\objs\gizwits_product.o	#SHT_NOBITS,SHF_ALLOC|SHF_WRITE,16
	0x43042700		currentDataPoint
	0x4304270f	0x4000	G:\TEMP\GoKit4_Demo\objs\gizwits_protocol.o	#SHT_NOBITS,SHF_ALLOC|SHF_WRITE,16
	0x4304270f		gizTaskStack
	0x4304670f	0x3d1	G:\TEMP\GoKit4_Demo\objs\gizwits_protocol.o	#SHT_NOBITS,SHF_ALLOC|SHF_WRITE,16
	0x4304670f		gizwitsProtocol
	0x43046ae0	0x4	G:\TEMP\GoKit4_Demo\objs\gizwits_protocol.o	#SHT_NOBITS,SHF_ALLOC|SHF_WRITE,16
	0x43046ae0		gizTaskHandle
	0x43046ae4	0x1c	G:\TEMP\GoKit4_Demo\objs\gpio.o	#SHT_NOBITS,SHF_ALLOC|SHF_WRITE,16
	0x43046ae4		gpio_id_tbl
	0x43046b00	0x118	G:\TEMP\GoKit4_Demo\objs\gpio.o	#SHT_NOBITS,SHF_ALLOC|SHF_WRITE,16
	0x43046b00		tlmm_config
	0x43046c18	0x20000	G:\TEMP\GoKit4_Demo\objs\task.o	#SHT_NOBITS,SHF_ALLOC|SHF_WRITE,16
	0x43046c18		free_memory_task
	0x43066c18	0x4	G:\TEMP\GoKit4_Demo\objs\task.o	#SHT_NOBITS,SHF_ALLOC|SHF_WRITE,16
	0x43066c18		alive_thread_handle
	0x43066c1c	0x4	G:\TEMP\GoKit4_Demo\objs\task.o	#SHT_NOBITS,SHF_ALLOC|SHF_WRITE,16
	0x43066c1c		byte_pool_task
	0x43066c20	0x40000	G:\TEMP\GoKit4_Demo\gagent\libgagent.a(gagentThread.o)	#SHT_NOBITS,SHF_ALLOC|SHF_WRITE,16
	0x43066c20		free_memory_gagent
	0x430a6c20	0x4	G:\TEMP\GoKit4_Demo\gagent\libgagent.a(gagentThread.o)	#SHT_NOBITS,SHF_ALLOC|SHF_WRITE,16
	0x430a6c20		byte_pool_gagent
	0x430a6c24	0x4	G:\TEMP\GoKit4_Demo\gagent\libgagent.a(gagentThread.o)	#SHT_NOBITS,SHF_ALLOC|SHF_WRITE,16
	0x430a6c24		gatThread_Handle
	0x430a6c28	0x4	G:\TEMP\GoKit4_Demo\gagent\libgagent.a(gagentThread.o)	#SHT_NOBITS,SHF_ALLOC|SHF_WRITE,16
	0x430a6c28		gatapp_stack
	0x430a6c2c	0x100	G:\TEMP\GoKit4_Demo\gagent\libgagent.a(gatnet.o)	#SHT_NOBITS,SHF_ALLOC|SHF_WRITE,16
	0x430a6c2c		netConPara
	0x430a6d2c	0x14	G:\TEMP\GoKit4_Demo\gagent\libgagent.a(httpgat.o)	#SHT_NOBITS,SHF_ALLOC|SHF_WRITE,16
	0x430a6d2c		httpRecCore
	0x430a6d40	0x14	G:\TEMP\GoKit4_Demo\gagent\libgagent.a(httpgat.o)	#SHT_NOBITS,SHF_ALLOC|SHF_WRITE,16
	0x430a6d40		httpSendCore
	0x430a6d54	0x4	G:\TEMP\GoKit4_Demo\gagent\libgagent.a(iofipc.o)	#SHT_NOBITS,SHF_ALLOC|SHF_WRITE,16
	0x430a6d54		gatQueue
	0x430a6d58	0x4	G:\TEMP\GoKit4_Demo\gagent\libgagent.a(iofnet.o)	#SHT_NOBITS,SHF_ALLOC|SHF_WRITE,16
	0x430a6d58		tcp_signal_handle
	0x430a6d5c	0x4	G:\TEMP\GoKit4_Demo\gagent\libgagent.a(iofpthread.o)	#SHT_NOBITS,SHF_ALLOC|SHF_WRITE,16
	0x430a6d5c		gatDnsTid
	0x430a6d60	0x4	G:\TEMP\GoKit4_Demo\gagent\libgagent.a(iofpthread.o)	#SHT_NOBITS,SHF_ALLOC|SHF_WRITE,16
	0x430a6d60		gatNetTid
	0x430a6d64	0x4	G:\TEMP\GoKit4_Demo\gagent\libgagent.a(iofpthread.o)	#SHT_NOBITS,SHF_ALLOC|SHF_WRITE,16
	0x430a6d64		gatSerialRecTid
	0x430a6d68	0x4	G:\TEMP\GoKit4_Demo\gagent\libgagent.a(iofpthread.o)	#SHT_NOBITS,SHF_ALLOC|SHF_WRITE,16
	0x430a6d68		gatSerialSendTid
	0x430a6d6c	0x4	G:\TEMP\GoKit4_Demo\gagent\libgagent.a(iofpthread.o)	#SHT_NOBITS,SHF_ALLOC|SHF_WRITE,16
	0x430a6d6c		gatTaskProcessTid
	0x430a6d70	0x4	G:\TEMP\GoKit4_Demo\gagent\libgagent.a(iofpthread.o)	#SHT_NOBITS,SHF_ALLOC|SHF_WRITE,16
	0x430a6d70		gatTcpDataRecTid
	0x430a6d74	0x4	G:\TEMP\GoKit4_Demo\gagent\libgagent.a(iofpthread.o)	#SHT_NOBITS,SHF_ALLOC|SHF_WRITE,16
	0x430a6d74		gatTcpDataSendTid
	0x430a6d78	0x4	G:\TEMP\GoKit4_Demo\gagent\libgagent.a(iofpthread.o)	#SHT_NOBITS,SHF_ALLOC|SHF_WRITE,16
	0x430a6d78		gatTcpServerTid
	0x430a6d7c	0x4	G:\TEMP\GoKit4_Demo\gagent\libgagent.a(iofpthread.o)	#SHT_NOBITS,SHF_ALLOC|SHF_WRITE,16
	0x430a6d7c		gatUdpRecTid
	0x430a6d80	0x4	G:\TEMP\GoKit4_Demo\gagent\libgagent.a(iofpthread.o)	#SHT_NOBITS,SHF_ALLOC|SHF_WRITE,16
	0x430a6d80		gatUdpSendTid
	0x430a6d84	0x4	G:\TEMP\GoKit4_Demo\gagent\libgagent.a(iofserial.o)	#SHT_NOBITS,SHF_ALLOC|SHF_WRITE,16
	0x430a6d84		fdList
	0x430a6d88	0x1c	G:\TEMP\GoKit4_Demo\gagent\libgagent.a(qlog.o)	#SHT_NOBITS,SHF_ALLOC|SHF_WRITE,16
	0x430a6d88		uart_conf
	0x430a6da4	0x54	G:\TEMP\GoKit4_Demo\gagent\libgagent.a(tcp.o)	#SHT_NOBITS,SHF_ALLOC|SHF_WRITE,16
	0x430a6da4		tcpChListNr
	0x430a6df8	0x14	G:\TEMP\GoKit4_Demo\gagent\libgagent.a(tcp.o)	#SHT_NOBITS,SHF_ALLOC|SHF_WRITE,16
	0x430a6df8		tcpDataNodeNr
	0x430a6e0c	0x1c	G:\TEMP\GoKit4_Demo\gagent\libgagent.a(tcp.o)	#SHT_NOBITS,SHF_ALLOC|SHF_WRITE,16
	0x430a6e0c		tcpSendNr
	0x430a6e28	0x14	G:\TEMP\GoKit4_Demo\gagent\libgagent.a(timer_subsystem.o)	#SHT_NOBITS,SHF_ALLOC|SHF_WRITE,16
	0x430a6e28		gatTimerCore
	0x430a6e3c	0x1000	sdk\libs\timer_dam_lib.lib(qapi_timer_user.o)	#SHT_NOBITS,SHF_ALLOC|SHF_WRITE,16
	0x430a6e3c		timer_client_stack
	0x430a7e3c	0x4	sdk\libs\timer_dam_lib.lib(qapi_timer_user.o)	#SHT_NOBITS,SHF_ALLOC|SHF_WRITE,16
	0x430a7e3c		timer_client_module_thread
	0x430a7e40	0x4	sdk\libs\timer_dam_lib.lib(qapi_timer_user.o)	#SHT_NOBITS,SHF_ALLOC|SHF_WRITE,16
	0x430a7e40		timer_thread_state
	0x430a7e44	0x4	sdk\libs\timer_dam_lib.lib(qapi_timer_user.o)	#SHT_NOBITS,SHF_ALLOC|SHF_WRITE,16
	0x430a7e44		timer_user_handle
	0x430a7e48	0x4	sdk\libs\txm_lib.lib(txm_module_thread_shell_entry.o)	#SHT_NOBITS,SHF_ALLOC|SHF_WRITE,16
	0x430a7e48		_txm_module_entry_info
	0x430a7e4c	0x4	sdk\libs\txm_lib.lib(txm_module_thread_shell_entry.o)	#SHT_NOBITS,SHF_ALLOC|SHF_WRITE,16
	0x430a7e4c		_txm_module_instance_ptr
	0x430a7e50	0x4	sdk\libs\txm_lib.lib(txm_module_thread_shell_entry.o)	#SHT_NOBITS,SHF_ALLOC|SHF_WRITE,16
	0x430a7e50		_txm_module_kernel_call_dispatcher
	0x430a7e54	0x40	D:\4.0.3\armv7m-none-eabi\libc\lib/libc.a(libc.o)	#SHT_NOBITS,SHF_ALLOC|SHF_WRITE,16
	0x430a7e54		__libc
.bss	0x430a7e94	0x4	G:\TEMP\GoKit4_Demo\objs\gizwits_product.o	#SHT_NOBITS,SHF_ALLOC|SHF_WRITE,4
	0x430a7e94		userHandle._100ms_cnt
.bss	0x430a7e98	0xa	G:\TEMP\GoKit4_Demo\objs\gizwits_protocol.o	#SHT_NOBITS,SHF_ALLOC|SHF_WRITE,4
	0x430a7e98		gizTimerFunc.repCtime
	0x430a7e9c		gizCheckReport.lastReportTime
	0x430a7ea0		gizWiFiStatus.lastStatus.0
PADDING_ALIGNMENT	0x430a7ea2	0x2	0x0
.bss	0x430a7ea4	0x8	G:\TEMP\GoKit4_Demo\objs\gpio.o	#SHT_NOBITS,SHF_ALLOC|SHF_WRITE,4
	0x430a7ea4		key1_state
	0x430a7ea8		GPIO05_handle
.bss	0x430a7eac	0xc	G:\TEMP\GoKit4_Demo\objs\task.o	#SHT_NOBITS,SHF_ALLOC|SHF_WRITE,4
	0x430a7eac		alive_thread_stack
	0x430a7eb0		tx_queue_handle
	0x430a7eb4		task_comm
PADDING_ALIGNMENT	0x430a7eb8	0x8	0x0
.bss	0x430a7ec0	0x30	G:\TEMP\GoKit4_Demo\objs\timer.o	#SHT_NOBITS,SHF_ALLOC|SHF_WRITE,16
	0x430a7ec0		gizwits_timer_def_attr
	0x430a7ed0		gizwits_timer_handle
	0x430a7ed8		gizwits_timer_set_attr
.bss	0x430a7ef0	0x4200	G:\TEMP\GoKit4_Demo\objs\uart.o	#SHT_NOBITS,SHF_ALLOC|SHF_WRITE,1
	0x430a7ef0		uart1_printf.log_buf
	0x430a7ff0		uart3_printf.log_buf
	0x430a80f0		tx1_buff
	0x430a90f0		rx1_buff
	0x430aa0f0		tx3_buff
	0x430ab0f0		rx3_buff
.bss	0x430ac0f0	0x4	G:\TEMP\GoKit4_Demo\gagent\libgagent.a(gagentThread.o)	#SHT_NOBITS,SHF_ALLOC|SHF_WRITE,4
	0x430ac0f0		tcpSendSem
.bss	0x430ac0f4	0x204	G:\TEMP\GoKit4_Demo\gagent\libgagent.a(iofdev.o)	#SHT_NOBITS,SHF_ALLOC|SHF_WRITE,4
	0x430ac0f4		iofPrintf.str_tmp
	0x430ac2f4		logLock
.bss	0x430ac2f8	0x4	G:\TEMP\GoKit4_Demo\gagent\libgagent.a(iofpthread.o)	#SHT_NOBITS,SHF_ALLOC|SHF_WRITE,4
	0x430ac2f8		iofPthreadCreate.entry_input
.bss	0x430ac2fc	0x4	G:\TEMP\GoKit4_Demo\gagent\libgagent.a(iofstring.o)	#SHT_NOBITS,SHF_ALLOC|SHF_WRITE,4
	0x430ac2fc		objMemAllocated
.bss	0x430ac300	0x83	G:\TEMP\GoKit4_Demo\gagent\libgagent.a(local.o)	#SHT_NOBITS,SHF_ALLOC|SHF_WRITE,16
	0x430ac300		LocalStatusSync
	0x430ac310		GAgentInfoGet.szPassCode
	0x430ac31b		GAgentInfoGet.szTzs
	0x430ac32f		GAgentInfoGet.szDid
	0x430ac346		GAgentInfoGet.szGServerDomain
PADDING_ALIGNMENT	0x430ac383	0xd	0x0
.bss	0x430ac390	0xa2	G:\TEMP\GoKit4_Demo\gagent\libgagent.a(localcomm.o)	#SHT_NOBITS,SHF_ALLOC|SHF_WRITE,16
	0x430ac390		localWriteAdapter
	0x430ac394		gatLocalSignalCheckTick.signal_last
	0x430ac398		SignalTick
	0x430ac3a8		bindTimer
	0x430ac3c0		mcuInfo
PADDING_ALIGNMENT	0x430ac432	0xe	0x0
.bss	0x430ac440	0x64	G:\TEMP\GoKit4_Demo\gagent\libgagent.a(localio.o)	#SHT_NOBITS,SHF_ALLOC|SHF_WRITE,16
	0x430ac440		localInfo
	0x430ac448		localRecvList
	0x430ac45c		localSendList
	0x430ac470		localChannelOpenList
PADDING_ALIGNMENT	0x430ac4a4	0xc	0x0
.bss	0x430ac4b0	0x54	G:\TEMP\GoKit4_Demo\gagent\libgagent.a(nwk_manage.o)	#SHT_NOBITS,SHF_ALLOC|SHF_WRITE,16
	0x430ac4b0		halNwkStatus
	0x430ac4b4		nwkEventCb
PADDING_ALIGNMENT	0x430ac504	0xc	0x0
.bss	0x430ac510	0x27e	G:\TEMP\GoKit4_Demo\gagent\libgagent.a(productinfo.o)	#SHT_NOBITS,SHF_ALLOC|SHF_WRITE,16
	0x430ac510		gatProductInfo
	0x430ac650		gatProDefaultInfo
	0x430ac72c		configDataLock
	0x430ac730		gatFlag
	0x430ac735		gatRebootReason
	0x430ac73a		szTzSec
	0x430ac74e		gatApn
.bss	0x430ac78e	0x2000	G:\TEMP\GoKit4_Demo\gagent\libgagent.a(qlog.o)	#SHT_NOBITS,SHF_ALLOC|SHF_WRITE,1
	0x430ac78e		tx_buff
	0x430ad78e		rx_buff
PADDING_ALIGNMENT	0x430ae78e	0x2	0x0
.bss	0x430ae790	0x39	G:\TEMP\GoKit4_Demo\gagent\libgagent.a(simulatorcomm.o)	#SHT_NOBITS,SHF_ALLOC|SHF_WRITE,4
	0x430ae790		devUploadData
	0x430ae7c8		simulatorUploadDtatCb.uploadResult
PADDING_ALIGNMENT	0x430ae7c9	0x3	0x0
.bss	0x430ae7cc	0x8	G:\TEMP\GoKit4_Demo\gagent\libgagent.a(tcp.o)	#SHT_NOBITS,SHF_ALLOC|SHF_WRITE,4
	0x430ae7cc		tcpSemId
	0x430ae7d0		gatTcpReceiveHandle.recBuf
.bss	0x430ae7d4	0x8	G:\TEMP\GoKit4_Demo\gagent\libgagent.a(aes.o)	#SHT_NOBITS,SHF_ALLOC|SHF_WRITE,4
	0x430ae7d4		inv_s_box
	0x430ae7d8		s_box
.bss	0x430ae7dc	0x14	G:\TEMP\GoKit4_Demo\gagent\libgagent.a(authorization.o)	#SHT_NOBITS,SHF_ALLOC|SHF_WRITE,4
	0x430ae7dc		authFunCb
	0x430ae7e0		authTimer
.bss	0x430ae7f0	0x84	G:\TEMP\GoKit4_Demo\gagent\libgagent.a(gagent.o)	#SHT_NOBITS,SHF_ALLOC|SHF_WRITE,16
	0x430ae7f0		gatGetSoftVer.szGatSoftVer
	0x430ae7fc		gatMsgIdValue
	0x430ae800		gatRunTimeData
	0x430ae860		gatReBootTimerStart.flag
	0x430ae864		rebootTimer
PADDING_ALIGNMENT	0x430ae874	0x4	0x0
.bss	0x430ae878	0x108	G:\TEMP\GoKit4_Demo\gagent\libgagent.a(gatm2m.o)	#SHT_NOBITS,SHF_ALLOC|SHF_WRITE,8
	0x430ae878		m2mInfo
.bss	0x430ae980	0x28	G:\TEMP\GoKit4_Demo\gagent\libgagent.a(gatnet.o)	#SHT_NOBITS,SHF_ALLOC|SHF_WRITE,4
	0x430ae980		gatRouterConnTimeout.failCount
	0x430ae984		testModeTimer
	0x430ae994		gatTestModeTick.cnt
	0x430ae998		routerTimer
.bss	0x430ae9a8	0xe8	G:\TEMP\GoKit4_Demo\gagent\libgagent.a(gdns.o)	#SHT_NOBITS,SHF_ALLOC|SHF_WRITE,4
	0x430ae9a8		dnsReq
	0x430aea80		dnsReqTimer
.bss	0x430aea90	0x34	G:\TEMP\GoKit4_Demo\gagent\libgagent.a(gserver.o)	#SHT_NOBITS,SHF_ALLOC|SHF_WRITE,16
	0x430aea90		gatRegsiterTimer.cnt
	0x430aea94		gserverExcepTimeoutTimer
	0x430aeab0		gatProvisionRecCb.failCont
	0x430aeab4		gserverReConnectTimer
.bss	0x430aeac4	0x62	G:\TEMP\GoKit4_Demo\gagent\libgagent.a(iofnet.o)	#SHT_NOBITS,SHF_ALLOC|SHF_WRITE,4
	0x430aeac4		gatNetLocalIp.ipaddr
	0x430aeaf6		gatNetMACGet.szIMEI
	0x430aeb08		gS_APList
	0x430aeb10		dnsData
	0x430aeb24		gatNetReadyFlag
	0x430aeb25		gatNetActiveFlag
PADDING_ALIGNMENT	0x430aeb26	0x2	0x0
.bss	0x430aeb28	0x54	G:\TEMP\GoKit4_Demo\gagent\libgagent.a(iofserial.o)	#SHT_NOBITS,SHF_ALLOC|SHF_WRITE,4
	0x430aeb28		Serial_rfds
	0x430aeb6c		hdlr
	0x430aeb70		localRecvSem
	0x430aeb74		gatserialRecVal
PADDING_ALIGNMENT	0x430aeb7c	0x4	0x0
.bss	0x430aeb80	0x34	G:\TEMP\GoKit4_Demo\gagent\libgagent.a(mqttgat.o)	#SHT_NOBITS,SHF_ALLOC|SHF_WRITE,16
	0x430aeb80		mqttExtractPacket.headPos
	0x430aeb81		mqttExtractPacket.tempBuf
	0x430aeb88		mqttRecNodeList
PADDING_ALIGNMENT	0x430aebb4	0xc	0x0
.bss	0x430aebc0	0x21c	G:\TEMP\GoKit4_Demo\gagent\libgagent.a(otawan.o)	#SHT_NOBITS,SHF_ALLOC|SHF_WRITE,16
	0x430aebc0		gatWanOta
	0x430aed5c		DownloadStatus
	0x430aed60		gatDownLoadFirmwareCb.downloadCnt
	0x430aed64		gatDownLoadFirmwareCb.MD5
	0x430aed74		gatReDownloadTick
	0x430aed84		gatDownLoadFirmwareCb.ctx
PADDING_ALIGNMENT	0x430aeddc	0x4	0x0
.bss	0x430aede0	0x1cc	G:\TEMP\GoKit4_Demo\gagent\libgagent.a(simulator.o)	#SHT_NOBITS,SHF_ALLOC|SHF_WRITE,16
	0x430aede0		devDisConData
	0x430aee10		devsConData
	0x430aee58		devConnData
	0x430aeeb8		devResetData
	0x430aef70		gatRegsiterSubRecCb.recvLen
	0x430aef74		gatRegsiterSubRecCb.recvBuf
	0x430aef78		devsRegData
.bss.qapi_timer_user_initialized	0x430aefac	0x4	sdk\libs\timer_dam_lib.lib(qapi_timer_user.o)	#SHT_NOBITS,SHF_ALLOC|SHF_WRITE,4
	0x430aefac		qapi_timer_user_initialized
	Image$$ER_ZI$$Limit(0x430aefb0) = .( 0x430aefb0 );
Image$$ER_ZI$$ZI$$Length(0x6c8b0) = Image$$ER_ZI$$Limit( 0x430aefb0 ) - Image$$ER_ZI$$Base( 0x43042700 );

.debug	0x0	0x0 # Offset: 0x0

.line	0x0	0x0 # Offset: 0x0

.debug_srcinfo	0x0	0x0 # Offset: 0x0

.debug_sfnames	0x0	0x0 # Offset: 0x0

.debug_aranges	0x0	0x0 # Offset: 0x0

.debug_pubnames	0x42754	0x3b7 # Offset: 0x42754
*(.debug_pubnames )
.debug_pubnames	0x42754	0x18a	sdk\libs\timer_dam_lib.lib(qapi_timer_user.o)	#SHT_PROGBITS,,1
.debug_pubnames	0x428de	0xa2	sdk\libs\txm_lib.lib(txm_module_thread_shell_entry.o)	#SHT_PROGBITS,,1
.debug_pubnames	0x42980	0x40	sdk\libs\txm_lib.lib(txm_module_callback_request_thread_entry.o)	#SHT_PROGBITS,,1
.debug_pubnames	0x429c0	0x30	sdk\libs\txm_lib.lib(txm_module_system_call11.o)	#SHT_PROGBITS,,1
.debug_pubnames	0x429f0	0x30	sdk\libs\txm_lib.lib(txm_module_system_call12.o)	#SHT_PROGBITS,,1
.debug_pubnames	0x42a20	0x2f	sdk\libs\txm_lib.lib(txm_module_system_call4.o)	#SHT_PROGBITS,,1
.debug_pubnames	0x42a4f	0x2f	sdk\libs\txm_lib.lib(txm_module_system_call5.o)	#SHT_PROGBITS,,1
.debug_pubnames	0x42a7e	0x2f	sdk\libs\txm_lib.lib(txm_module_system_call6.o)	#SHT_PROGBITS,,1
.debug_pubnames	0x42aad	0x2f	sdk\libs\txm_lib.lib(txm_module_system_call7.o)	#SHT_PROGBITS,,1
.debug_pubnames	0x42adc	0x2f	sdk\libs\txm_lib.lib(txm_module_system_call8.o)	#SHT_PROGBITS,,1

.debug_info	0x42b0b	0x2f01 # Offset: 0x42b0b
*(.debug_info .gnu.linkonce.wi.* )
.debug_info	0x42b0b	0xb01	sdk\libs\timer_dam_lib.lib(qapi_timer_user.o)	#SHT_PROGBITS,,1
.debug_info	0x4360c	0xcd5	sdk\libs\txm_lib.lib(txm_module_thread_shell_entry.o)	#SHT_PROGBITS,,1
.debug_info	0x442e1	0x1019	sdk\libs\txm_lib.lib(txm_module_callback_request_thread_entry.o)	#SHT_PROGBITS,,1
.debug_info	0x452fa	0x136	sdk\libs\txm_lib.lib(txm_module_system_call11.o)	#SHT_PROGBITS,,1
.debug_info	0x45430	0x145	sdk\libs\txm_lib.lib(txm_module_system_call12.o)	#SHT_PROGBITS,,1
.debug_info	0x45575	0xcd	sdk\libs\txm_lib.lib(txm_module_system_call4.o)	#SHT_PROGBITS,,1
.debug_info	0x45642	0xdc	sdk\libs\txm_lib.lib(txm_module_system_call5.o)	#SHT_PROGBITS,,1
.debug_info	0x4571e	0xeb	sdk\libs\txm_lib.lib(txm_module_system_call6.o)	#SHT_PROGBITS,,1
.debug_info	0x45809	0xfa	sdk\libs\txm_lib.lib(txm_module_system_call7.o)	#SHT_PROGBITS,,1
.debug_info	0x45903	0x109	sdk\libs\txm_lib.lib(txm_module_system_call8.o)	#SHT_PROGBITS,,1

.debug_abbrev	0x45a0c	0x742 # Offset: 0x45a0c
*(.debug_abbrev )
.debug_abbrev	0x45a0c	0x19a	sdk\libs\timer_dam_lib.lib(qapi_timer_user.o)	#SHT_PROGBITS,,1
.debug_abbrev	0x45ba6	0xe2	sdk\libs\txm_lib.lib(txm_module_thread_shell_entry.o)	#SHT_PROGBITS,,1
.debug_abbrev	0x45c88	0xeb	sdk\libs\txm_lib.lib(txm_module_callback_request_thread_entry.o)	#SHT_PROGBITS,,1
.debug_abbrev	0x45d73	0x8d	sdk\libs\txm_lib.lib(txm_module_system_call11.o)	#SHT_PROGBITS,,1
.debug_abbrev	0x45e00	0x8d	sdk\libs\txm_lib.lib(txm_module_system_call12.o)	#SHT_PROGBITS,,1
.debug_abbrev	0x45e8d	0x8d	sdk\libs\txm_lib.lib(txm_module_system_call4.o)	#SHT_PROGBITS,,1
.debug_abbrev	0x45f1a	0x8d	sdk\libs\txm_lib.lib(txm_module_system_call5.o)	#SHT_PROGBITS,,1
.debug_abbrev	0x45fa7	0x8d	sdk\libs\txm_lib.lib(txm_module_system_call6.o)	#SHT_PROGBITS,,1
.debug_abbrev	0x46034	0x8d	sdk\libs\txm_lib.lib(txm_module_system_call7.o)	#SHT_PROGBITS,,1
.debug_abbrev	0x460c1	0x8d	sdk\libs\txm_lib.lib(txm_module_system_call8.o)	#SHT_PROGBITS,,1

.debug_line	0x4614e	0x1321 # Offset: 0x4614e
*(.debug_line )
.debug_line	0x4614e	0x4d4	sdk\libs\timer_dam_lib.lib(qapi_timer_user.o)	#SHT_PROGBITS,,1
.debug_line	0x46622	0x1c2	sdk\libs\txm_lib.lib(txm_module_thread_shell_entry.o)	#SHT_PROGBITS,,1
.debug_line	0x467e4	0x27c	sdk\libs\txm_lib.lib(txm_module_callback_request_thread_entry.o)	#SHT_PROGBITS,,1
.debug_line	0x46a60	0x174	sdk\libs\txm_lib.lib(txm_module_system_call11.o)	#SHT_PROGBITS,,1
.debug_line	0x46bd4	0x175	sdk\libs\txm_lib.lib(txm_module_system_call12.o)	#SHT_PROGBITS,,1
.debug_line	0x46d49	0x16c	sdk\libs\txm_lib.lib(txm_module_system_call4.o)	#SHT_PROGBITS,,1
.debug_line	0x46eb5	0x16d	sdk\libs\txm_lib.lib(txm_module_system_call5.o)	#SHT_PROGBITS,,1
.debug_line	0x47022	0x16e	sdk\libs\txm_lib.lib(txm_module_system_call6.o)	#SHT_PROGBITS,,1
.debug_line	0x47190	0x16f	sdk\libs\txm_lib.lib(txm_module_system_call7.o)	#SHT_PROGBITS,,1
.debug_line	0x472ff	0x170	sdk\libs\txm_lib.lib(txm_module_system_call8.o)	#SHT_PROGBITS,,1

.debug_frame	0x4746f	0x2bc # Offset: 0x4746f
*(.debug_frame )
.debug_frame	0x4746f	0x134	sdk\libs\timer_dam_lib.lib(qapi_timer_user.o)	#SHT_PROGBITS,,4
.debug_frame	0x475a3	0x2c	sdk\libs\txm_lib.lib(txm_module_thread_shell_entry.o)	#SHT_PROGBITS,,4
.debug_frame	0x475cf	0x3c	sdk\libs\txm_lib.lib(txm_module_callback_request_thread_entry.o)	#SHT_PROGBITS,,4
.debug_frame	0x4760b	0x2c	sdk\libs\txm_lib.lib(txm_module_system_call11.o)	#SHT_PROGBITS,,4
.debug_frame	0x47637	0x2c	sdk\libs\txm_lib.lib(txm_module_system_call12.o)	#SHT_PROGBITS,,4
.debug_frame	0x47663	0x28	sdk\libs\txm_lib.lib(txm_module_system_call4.o)	#SHT_PROGBITS,,4
.debug_frame	0x4768b	0x28	sdk\libs\txm_lib.lib(txm_module_system_call5.o)	#SHT_PROGBITS,,4
.debug_frame	0x476b3	0x28	sdk\libs\txm_lib.lib(txm_module_system_call6.o)	#SHT_PROGBITS,,4
.debug_frame	0x476db	0x28	sdk\libs\txm_lib.lib(txm_module_system_call7.o)	#SHT_PROGBITS,,4
.debug_frame	0x47703	0x28	sdk\libs\txm_lib.lib(txm_module_system_call8.o)	#SHT_PROGBITS,,4

.debug_str	0x4772b	0x2de1 # Offset: 0x4772b
*(.debug_str )
.debug_str	0x4772b	0x3c	sdk\libs\timer_dam_lib.lib(qapi_timer_user.o)	#SHT_PROGBITS,SHF_MERGE|SHF_STRINGS,1
	0x0		
.debug_str	0x47767	0x8b	sdk\libs\timer_dam_lib.lib(qapi_timer_user.o)	#SHT_PROGBITS,SHF_MERGE|SHF_STRINGS,1
	0x3c		
.debug_str	0x477f2	0x66	sdk\libs\timer_dam_lib.lib(qapi_timer_user.o)	#SHT_PROGBITS,SHF_MERGE|SHF_STRINGS,1
	0xc7		
.debug_str	0x47858	0x1c	sdk\libs\timer_dam_lib.lib(qapi_timer_user.o)	#SHT_PROGBITS,SHF_MERGE|SHF_STRINGS,1
	0x12d		
.debug_str	0x47874	0xd	sdk\libs\timer_dam_lib.lib(qapi_timer_user.o)	#SHT_PROGBITS,SHF_MERGE|SHF_STRINGS,1
	0x149		
.debug_str	0x47881	0x9	sdk\libs\timer_dam_lib.lib(qapi_timer_user.o)	#SHT_PROGBITS,SHF_MERGE|SHF_STRINGS,1
	0x156		
.debug_str	0x4788a	0xe	sdk\libs\timer_dam_lib.lib(qapi_timer_user.o)	#SHT_PROGBITS,SHF_MERGE|SHF_STRINGS,1
	0x15f		
.debug_str	0x47898	0x13	sdk\libs\timer_dam_lib.lib(qapi_timer_user.o)	#SHT_PROGBITS,SHF_MERGE|SHF_STRINGS,1
	0x16d		
.debug_str	0x478ab	0x13	sdk\libs\timer_dam_lib.lib(qapi_timer_user.o)	#SHT_PROGBITS,SHF_MERGE|SHF_STRINGS,1
	0x180		
.debug_str	0x478be	0x14	sdk\libs\timer_dam_lib.lib(qapi_timer_user.o)	#SHT_PROGBITS,SHF_MERGE|SHF_STRINGS,1
	0x193		
.debug_str	0x478d2	0x15	sdk\libs\timer_dam_lib.lib(qapi_timer_user.o)	#SHT_PROGBITS,SHF_MERGE|SHF_STRINGS,1
	0x1a7		
.debug_str	0x478e7	0x18	sdk\libs\timer_dam_lib.lib(qapi_timer_user.o)	#SHT_PROGBITS,SHF_MERGE|SHF_STRINGS,1
	0x1bc		
.debug_str	0x478ff	0x15	sdk\libs\timer_dam_lib.lib(qapi_timer_user.o)	#SHT_PROGBITS,SHF_MERGE|SHF_STRINGS,1
	0x1d4		
.debug_str	0x47914	0x12	sdk\libs\timer_dam_lib.lib(qapi_timer_user.o)	#SHT_PROGBITS,SHF_MERGE|SHF_STRINGS,1
	0x1e9		
.debug_str	0x47926	0x1a	sdk\libs\timer_dam_lib.lib(qapi_timer_user.o)	#SHT_PROGBITS,SHF_MERGE|SHF_STRINGS,1
	0x1fb		
.debug_str	0x47940	0x1f	sdk\libs\timer_dam_lib.lib(qapi_timer_user.o)	#SHT_PROGBITS,SHF_MERGE|SHF_STRINGS,1
	0x215		
.debug_str	0x4795f	0x1b	sdk\libs\timer_dam_lib.lib(qapi_timer_user.o)	#SHT_PROGBITS,SHF_MERGE|SHF_STRINGS,1
	0x234		
.debug_str	0x4797a	0xd	sdk\libs\timer_dam_lib.lib(qapi_timer_user.o)	#SHT_PROGBITS,SHF_MERGE|SHF_STRINGS,1
	0x24f		
.debug_str	0x47987	0x12	sdk\libs\timer_dam_lib.lib(qapi_timer_user.o)	#SHT_PROGBITS,SHF_MERGE|SHF_STRINGS,1
	0x25c		
.debug_str	0x47999	0x6	sdk\libs\timer_dam_lib.lib(qapi_timer_user.o)	#SHT_PROGBITS,SHF_MERGE|SHF_STRINGS,1
	0x26e		
.debug_str	0x4799f	0x14	sdk\libs\timer_dam_lib.lib(qapi_timer_user.o)	#SHT_PROGBITS,SHF_MERGE|SHF_STRINGS,1
	0x274		
.debug_str	0x479b3	0x14	sdk\libs\timer_dam_lib.lib(qapi_timer_user.o)	#SHT_PROGBITS,SHF_MERGE|SHF_STRINGS,1
	0x288		
.debug_str	0x479c7	0x16	sdk\libs\timer_dam_lib.lib(qapi_timer_user.o)	#SHT_PROGBITS,SHF_MERGE|SHF_STRINGS,1
	0x29c		
.debug_str	0x479dd	0x14	sdk\libs\timer_dam_lib.lib(qapi_timer_user.o)	#SHT_PROGBITS,SHF_MERGE|SHF_STRINGS,1
	0x2b2		
.debug_str	0x479f1	0x15	sdk\libs\timer_dam_lib.lib(qapi_timer_user.o)	#SHT_PROGBITS,SHF_MERGE|SHF_STRINGS,1
	0x2c6		
.debug_str	0x47a06	0x15	sdk\libs\timer_dam_lib.lib(qapi_timer_user.o)	#SHT_PROGBITS,SHF_MERGE|SHF_STRINGS,1
	0x2db		
.debug_str	0x47a1b	0x19	sdk\libs\timer_dam_lib.lib(qapi_timer_user.o)	#SHT_PROGBITS,SHF_MERGE|SHF_STRINGS,1
	0x2f0		
.debug_str	0x47a34	0x15	sdk\libs\timer_dam_lib.lib(qapi_timer_user.o)	#SHT_PROGBITS,SHF_MERGE|SHF_STRINGS,1
	0x309		
.debug_str	0x47a49	0x19	sdk\libs\timer_dam_lib.lib(qapi_timer_user.o)	#SHT_PROGBITS,SHF_MERGE|SHF_STRINGS,1
	0x31e		
.debug_str	0x47a62	0xf	sdk\libs\timer_dam_lib.lib(qapi_timer_user.o)	#SHT_PROGBITS,SHF_MERGE|SHF_STRINGS,1
	0x337		
.debug_str	0x47a71	0x5	sdk\libs\timer_dam_lib.lib(qapi_timer_user.o)	#SHT_PROGBITS,SHF_MERGE|SHF_STRINGS,1
	0x346		
.debug_str	0x47a76	0x5	sdk\libs\timer_dam_lib.lib(qapi_timer_user.o)	#SHT_PROGBITS,SHF_MERGE|SHF_STRINGS,1
	0x34b		
.debug_str	0x47a7b	0x13	sdk\libs\timer_dam_lib.lib(qapi_timer_user.o)	#SHT_PROGBITS,SHF_MERGE|SHF_STRINGS,1
	0x350		
.debug_str	0x47a8e	0x5	sdk\libs\timer_dam_lib.lib(qapi_timer_user.o)	#SHT_PROGBITS,SHF_MERGE|SHF_STRINGS,1
	0x363		
.debug_str	0x47a93	0x10	sdk\libs\timer_dam_lib.lib(qapi_timer_user.o)	#SHT_PROGBITS,SHF_MERGE|SHF_STRINGS,1
	0x368		
.debug_str	0x47aa3	0x1a	sdk\libs\timer_dam_lib.lib(qapi_timer_user.o)	#SHT_PROGBITS,SHF_MERGE|SHF_STRINGS,1
	0x378		
.debug_str	0x47abd	0x15	sdk\libs\timer_dam_lib.lib(qapi_timer_user.o)	#SHT_PROGBITS,SHF_MERGE|SHF_STRINGS,1
	0x392		
.debug_str	0x47ad2	0x1c	sdk\libs\timer_dam_lib.lib(qapi_timer_user.o)	#SHT_PROGBITS,SHF_MERGE|SHF_STRINGS,1
	0x3a7		
.debug_str	0x47aee	0x18	sdk\libs\timer_dam_lib.lib(qapi_timer_user.o)	#SHT_PROGBITS,SHF_MERGE|SHF_STRINGS,1
	0x3c3		
.debug_str	0x47b06	0x10	sdk\libs\timer_dam_lib.lib(qapi_timer_user.o)	#SHT_PROGBITS,SHF_MERGE|SHF_STRINGS,1
	0x3db		
.debug_str	0x47b16	0x1a	sdk\libs\timer_dam_lib.lib(qapi_timer_user.o)	#SHT_PROGBITS,SHF_MERGE|SHF_STRINGS,1
	0x3eb		
.debug_str	0x47b30	0x10	sdk\libs\timer_dam_lib.lib(qapi_timer_user.o)	#SHT_PROGBITS,SHF_MERGE|SHF_STRINGS,1
	0x405		
.debug_str	0x47b40	0x22	sdk\libs\timer_dam_lib.lib(qapi_timer_user.o)	#SHT_PROGBITS,SHF_MERGE|SHF_STRINGS,1
	0x415		
.debug_str	0x47b62	0x26	sdk\libs\timer_dam_lib.lib(qapi_timer_user.o)	#SHT_PROGBITS,SHF_MERGE|SHF_STRINGS,1
	0x437		
.debug_str	0x47b88	0x23	sdk\libs\timer_dam_lib.lib(qapi_timer_user.o)	#SHT_PROGBITS,SHF_MERGE|SHF_STRINGS,1
	0x45d		
.debug_str	0x47bab	0x20	sdk\libs\timer_dam_lib.lib(qapi_timer_user.o)	#SHT_PROGBITS,SHF_MERGE|SHF_STRINGS,1
	0x480		
.debug_str	0x47bcb	0x1e	sdk\libs\timer_dam_lib.lib(qapi_timer_user.o)	#SHT_PROGBITS,SHF_MERGE|SHF_STRINGS,1
	0x4a0		
.debug_str	0x47be9	0x22	sdk\libs\timer_dam_lib.lib(qapi_timer_user.o)	#SHT_PROGBITS,SHF_MERGE|SHF_STRINGS,1
	0x4be		
.debug_str	0x47c0b	0x1c	sdk\libs\timer_dam_lib.lib(qapi_timer_user.o)	#SHT_PROGBITS,SHF_MERGE|SHF_STRINGS,1
	0x4e0		
.debug_str	0x47c27	0x19	sdk\libs\timer_dam_lib.lib(qapi_timer_user.o)	#SHT_PROGBITS,SHF_MERGE|SHF_STRINGS,1
	0x4fc		
.debug_str	0x47c40	0x12	sdk\libs\timer_dam_lib.lib(qapi_timer_user.o)	#SHT_PROGBITS,SHF_MERGE|SHF_STRINGS,1
	0x515		
.debug_str	0x47c52	0x1a	sdk\libs\timer_dam_lib.lib(qapi_timer_user.o)	#SHT_PROGBITS,SHF_MERGE|SHF_STRINGS,1
	0x527		
.debug_str	0x47c6c	0x20	sdk\libs\timer_dam_lib.lib(qapi_timer_user.o)	#SHT_PROGBITS,SHF_MERGE|SHF_STRINGS,1
	0x541		
.debug_str	0x47c8c	0x19	sdk\libs\timer_dam_lib.lib(qapi_timer_user.o)	#SHT_PROGBITS,SHF_MERGE|SHF_STRINGS,1
	0x561		
.debug_str	0x47ca5	0x1d	sdk\libs\timer_dam_lib.lib(qapi_timer_user.o)	#SHT_PROGBITS,SHF_MERGE|SHF_STRINGS,1
	0x57a		
.debug_str	0x47cc2	0x17	sdk\libs\timer_dam_lib.lib(qapi_timer_user.o)	#SHT_PROGBITS,SHF_MERGE|SHF_STRINGS,1
	0x597		
.debug_str	0x47cd9	0x22	sdk\libs\timer_dam_lib.lib(qapi_timer_user.o)	#SHT_PROGBITS,SHF_MERGE|SHF_STRINGS,1
	0x5ae		
.debug_str	0x47cfb	0x19	sdk\libs\timer_dam_lib.lib(qapi_timer_user.o)	#SHT_PROGBITS,SHF_MERGE|SHF_STRINGS,1
	0x5d0		
.debug_str	0x47d14	0x19	sdk\libs\timer_dam_lib.lib(qapi_timer_user.o)	#SHT_PROGBITS,SHF_MERGE|SHF_STRINGS,1
	0x5e9		
.debug_str	0x47d2d	0x17	sdk\libs\timer_dam_lib.lib(qapi_timer_user.o)	#SHT_PROGBITS,SHF_MERGE|SHF_STRINGS,1
	0x602		
.debug_str	0x47d44	0x1b	sdk\libs\timer_dam_lib.lib(qapi_timer_user.o)	#SHT_PROGBITS,SHF_MERGE|SHF_STRINGS,1
	0x619		
.debug_str	0x47d5f	0x15	sdk\libs\timer_dam_lib.lib(qapi_timer_user.o)	#SHT_PROGBITS,SHF_MERGE|SHF_STRINGS,1
	0x634		
.debug_str	0x47d74	0x1e	sdk\libs\timer_dam_lib.lib(qapi_timer_user.o)	#SHT_PROGBITS,SHF_MERGE|SHF_STRINGS,1
	0x649		
.debug_str	0x47d92	0x20	sdk\libs\timer_dam_lib.lib(qapi_timer_user.o)	#SHT_PROGBITS,SHF_MERGE|SHF_STRINGS,1
	0x667		
.debug_str	0x47db2	0x23	sdk\libs\timer_dam_lib.lib(qapi_timer_user.o)	#SHT_PROGBITS,SHF_MERGE|SHF_STRINGS,1
	0x687		
.debug_str	0x47dd5	0x1b	sdk\libs\timer_dam_lib.lib(qapi_timer_user.o)	#SHT_PROGBITS,SHF_MERGE|SHF_STRINGS,1
	0x6aa		
.debug_str	0x47df0	0x1d	sdk\libs\timer_dam_lib.lib(qapi_timer_user.o)	#SHT_PROGBITS,SHF_MERGE|SHF_STRINGS,1
	0x6c5		
.debug_str	0x47e0d	0x18	sdk\libs\timer_dam_lib.lib(qapi_timer_user.o)	#SHT_PROGBITS,SHF_MERGE|SHF_STRINGS,1
	0x6e2		
.debug_str	0x47e25	0x21	sdk\libs\timer_dam_lib.lib(qapi_timer_user.o)	#SHT_PROGBITS,SHF_MERGE|SHF_STRINGS,1
	0x6fa		
.debug_str	0x47e46	0x1b	sdk\libs\timer_dam_lib.lib(qapi_timer_user.o)	#SHT_PROGBITS,SHF_MERGE|SHF_STRINGS,1
	0x71b		
.debug_str	0x47e61	0x1c	sdk\libs\timer_dam_lib.lib(qapi_timer_user.o)	#SHT_PROGBITS,SHF_MERGE|SHF_STRINGS,1
	0x736		
.debug_str	0x47e7d	0x1b	sdk\libs\timer_dam_lib.lib(qapi_timer_user.o)	#SHT_PROGBITS,SHF_MERGE|SHF_STRINGS,1
	0x752		
.debug_str	0x47e98	0xc	sdk\libs\timer_dam_lib.lib(qapi_timer_user.o)	#SHT_PROGBITS,SHF_MERGE|SHF_STRINGS,1
	0x76d		
.debug_str	0x47ea4	0xe	sdk\libs\timer_dam_lib.lib(qapi_timer_user.o)	#SHT_PROGBITS,SHF_MERGE|SHF_STRINGS,1
	0x779		
.debug_str	0x47eb2	0x19	sdk\libs\timer_dam_lib.lib(qapi_timer_user.o)	#SHT_PROGBITS,SHF_MERGE|SHF_STRINGS,1
	0x787		
.debug_str	0x47ecb	0xf	sdk\libs\timer_dam_lib.lib(qapi_timer_user.o)	#SHT_PROGBITS,SHF_MERGE|SHF_STRINGS,1
	0x7a0		
.debug_str	0x47eda	0x11	sdk\libs\timer_dam_lib.lib(qapi_timer_user.o)	#SHT_PROGBITS,SHF_MERGE|SHF_STRINGS,1
	0x7af		
.debug_str	0x47eeb	0x1b	sdk\libs\timer_dam_lib.lib(qapi_timer_user.o)	#SHT_PROGBITS,SHF_MERGE|SHF_STRINGS,1
	0x7c0		
.debug_str	0x47f06	0x19	sdk\libs\timer_dam_lib.lib(qapi_timer_user.o)	#SHT_PROGBITS,SHF_MERGE|SHF_STRINGS,1
	0x7db		
.debug_str	0x47f1f	0x19	sdk\libs\timer_dam_lib.lib(qapi_timer_user.o)	#SHT_PROGBITS,SHF_MERGE|SHF_STRINGS,1
	0x7f4		
.debug_str	0x47f38	0x16	sdk\libs\timer_dam_lib.lib(qapi_timer_user.o)	#SHT_PROGBITS,SHF_MERGE|SHF_STRINGS,1
	0x80d		
.debug_str	0x47f4e	0x1a	sdk\libs\timer_dam_lib.lib(qapi_timer_user.o)	#SHT_PROGBITS,SHF_MERGE|SHF_STRINGS,1
	0x823		
.debug_str	0x47f68	0x22	sdk\libs\timer_dam_lib.lib(qapi_timer_user.o)	#SHT_PROGBITS,SHF_MERGE|SHF_STRINGS,1
	0x83d		
.debug_str	0x47f8a	0x14	sdk\libs\timer_dam_lib.lib(qapi_timer_user.o)	#SHT_PROGBITS,SHF_MERGE|SHF_STRINGS,1
	0x85f		
.debug_str	0x47f9e	0x18	sdk\libs\timer_dam_lib.lib(qapi_timer_user.o)	#SHT_PROGBITS,SHF_MERGE|SHF_STRINGS,1
	0x873		
.debug_str	0x47fb6	0x10	sdk\libs\timer_dam_lib.lib(qapi_timer_user.o)	#SHT_PROGBITS,SHF_MERGE|SHF_STRINGS,1
	0x88b		
.debug_str	0x47fc6	0x1c	sdk\libs\timer_dam_lib.lib(qapi_timer_user.o)	#SHT_PROGBITS,SHF_MERGE|SHF_STRINGS,1
	0x89b		
.debug_str	0x47fe2	0x4	sdk\libs\timer_dam_lib.lib(qapi_timer_user.o)	#SHT_PROGBITS,SHF_MERGE|SHF_STRINGS,1
	0x8b7		
.debug_str	0x47fe6	0x9	sdk\libs\timer_dam_lib.lib(qapi_timer_user.o)	#SHT_PROGBITS,SHF_MERGE|SHF_STRINGS,1
	0x8bb		
.debug_str	0x47fef	0x15	sdk\libs\timer_dam_lib.lib(qapi_timer_user.o)	#SHT_PROGBITS,SHF_MERGE|SHF_STRINGS,1
	0x8c4		
.debug_str	0x48004	0x17	sdk\libs\timer_dam_lib.lib(qapi_timer_user.o)	#SHT_PROGBITS,SHF_MERGE|SHF_STRINGS,1
	0x8d9		
.debug_str	0x4801b	0x1a	sdk\libs\timer_dam_lib.lib(qapi_timer_user.o)	#SHT_PROGBITS,SHF_MERGE|SHF_STRINGS,1
	0x8f0		
.debug_str	0x48035	0x15	sdk\libs\timer_dam_lib.lib(qapi_timer_user.o)	#SHT_PROGBITS,SHF_MERGE|SHF_STRINGS,1
	0x90a		
.debug_str	0x4804a	0x11	sdk\libs\timer_dam_lib.lib(qapi_timer_user.o)	#SHT_PROGBITS,SHF_MERGE|SHF_STRINGS,1
	0x91f		
.debug_str	0x4805b	0xa	sdk\libs\timer_dam_lib.lib(qapi_timer_user.o)	#SHT_PROGBITS,SHF_MERGE|SHF_STRINGS,1
	0x930		
.debug_str	0x48065	0x13	sdk\libs\timer_dam_lib.lib(qapi_timer_user.o)	#SHT_PROGBITS,SHF_MERGE|SHF_STRINGS,1
	0x93a		
.debug_str	0x48078	0xe	sdk\libs\timer_dam_lib.lib(qapi_timer_user.o)	#SHT_PROGBITS,SHF_MERGE|SHF_STRINGS,1
	0x94d		
.debug_str	0x48086	0x6	sdk\libs\timer_dam_lib.lib(qapi_timer_user.o)	#SHT_PROGBITS,SHF_MERGE|SHF_STRINGS,1
	0x95b		
.debug_str	0x4808c	0x12	sdk\libs\timer_dam_lib.lib(qapi_timer_user.o)	#SHT_PROGBITS,SHF_MERGE|SHF_STRINGS,1
	0x961		
.debug_str	0x4809e	0x13	sdk\libs\timer_dam_lib.lib(qapi_timer_user.o)	#SHT_PROGBITS,SHF_MERGE|SHF_STRINGS,1
	0x973		
.debug_str	0x480b1	0x1a	sdk\libs\timer_dam_lib.lib(qapi_timer_user.o)	#SHT_PROGBITS,SHF_MERGE|SHF_STRINGS,1
	0x986		
.debug_str	0x480cb	0x21	sdk\libs\timer_dam_lib.lib(qapi_timer_user.o)	#SHT_PROGBITS,SHF_MERGE|SHF_STRINGS,1
	0x9a0		
.debug_str	0x480ec	0x19	sdk\libs\timer_dam_lib.lib(qapi_timer_user.o)	#SHT_PROGBITS,SHF_MERGE|SHF_STRINGS,1
	0x9c1		
.debug_str	0x48105	0x1f	sdk\libs\timer_dam_lib.lib(qapi_timer_user.o)	#SHT_PROGBITS,SHF_MERGE|SHF_STRINGS,1
	0x9da		
.debug_str	0x48124	0x15	sdk\libs\timer_dam_lib.lib(qapi_timer_user.o)	#SHT_PROGBITS,SHF_MERGE|SHF_STRINGS,1
	0x9f9		
.debug_str	0x48139	0x15	sdk\libs\timer_dam_lib.lib(qapi_timer_user.o)	#SHT_PROGBITS,SHF_MERGE|SHF_STRINGS,1
	0xa0e		
.debug_str	0x4814e	0x15	sdk\libs\timer_dam_lib.lib(qapi_timer_user.o)	#SHT_PROGBITS,SHF_MERGE|SHF_STRINGS,1
	0xa23		
.debug_str	0x48163	0x14	sdk\libs\timer_dam_lib.lib(qapi_timer_user.o)	#SHT_PROGBITS,SHF_MERGE|SHF_STRINGS,1
	0xa38		
.debug_str	0x48177	0x14	sdk\libs\timer_dam_lib.lib(qapi_timer_user.o)	#SHT_PROGBITS,SHF_MERGE|SHF_STRINGS,1
	0xa4c		
.debug_str	0x4818b	0x15	sdk\libs\timer_dam_lib.lib(qapi_timer_user.o)	#SHT_PROGBITS,SHF_MERGE|SHF_STRINGS,1
	0xa60		
.debug_str	0x481a0	0x14	sdk\libs\timer_dam_lib.lib(qapi_timer_user.o)	#SHT_PROGBITS,SHF_MERGE|SHF_STRINGS,1
	0xa75		
.debug_str	0x481b4	0x21	sdk\libs\timer_dam_lib.lib(qapi_timer_user.o)	#SHT_PROGBITS,SHF_MERGE|SHF_STRINGS,1
	0xa89		
.debug_str	0x481d5	0x25	sdk\libs\timer_dam_lib.lib(qapi_timer_user.o)	#SHT_PROGBITS,SHF_MERGE|SHF_STRINGS,1
	0xaaa		
.debug_str	0x481fa	0x26	sdk\libs\timer_dam_lib.lib(qapi_timer_user.o)	#SHT_PROGBITS,SHF_MERGE|SHF_STRINGS,1
	0xacf		
.debug_str	0x48220	0x1a	sdk\libs\timer_dam_lib.lib(qapi_timer_user.o)	#SHT_PROGBITS,SHF_MERGE|SHF_STRINGS,1
	0xaf5		
.debug_str	0x4823a	0x10	sdk\libs\timer_dam_lib.lib(qapi_timer_user.o)	#SHT_PROGBITS,SHF_MERGE|SHF_STRINGS,1
	0xb0f		
.debug_str	0x4824a	0x10	sdk\libs\timer_dam_lib.lib(qapi_timer_user.o)	#SHT_PROGBITS,SHF_MERGE|SHF_STRINGS,1
	0xb1f		
.debug_str	0x4825a	0xf	sdk\libs\timer_dam_lib.lib(qapi_timer_user.o)	#SHT_PROGBITS,SHF_MERGE|SHF_STRINGS,1
	0xb2f		
.debug_str	0x48269	0x11	sdk\libs\timer_dam_lib.lib(qapi_timer_user.o)	#SHT_PROGBITS,SHF_MERGE|SHF_STRINGS,1
	0xb3e		
.debug_str	0x4827a	0x4	sdk\libs\timer_dam_lib.lib(qapi_timer_user.o)	#SHT_PROGBITS,SHF_MERGE|SHF_STRINGS,1
	0xb4f		
.debug_str	0x4827e	0x8	sdk\libs\timer_dam_lib.lib(qapi_timer_user.o)	#SHT_PROGBITS,SHF_MERGE|SHF_STRINGS,1
	0xb53		
.debug_str	0x48286	0xe	sdk\libs\timer_dam_lib.lib(qapi_timer_user.o)	#SHT_PROGBITS,SHF_MERGE|SHF_STRINGS,1
	0xb5b		
.debug_str	0x48294	0x10	sdk\libs\timer_dam_lib.lib(qapi_timer_user.o)	#SHT_PROGBITS,SHF_MERGE|SHF_STRINGS,1
	0xb69		
.debug_str	0x482a4	0x16	sdk\libs\timer_dam_lib.lib(qapi_timer_user.o)	#SHT_PROGBITS,SHF_MERGE|SHF_STRINGS,1
	0xb79		
.debug_str	0x482ba	0x18	sdk\libs\timer_dam_lib.lib(qapi_timer_user.o)	#SHT_PROGBITS,SHF_MERGE|SHF_STRINGS,1
	0xb8f		
.debug_str	0x482d2	0x15	sdk\libs\timer_dam_lib.lib(qapi_timer_user.o)	#SHT_PROGBITS,SHF_MERGE|SHF_STRINGS,1
	0xba7		
.debug_str	0x482e7	0xf	sdk\libs\timer_dam_lib.lib(qapi_timer_user.o)	#SHT_PROGBITS,SHF_MERGE|SHF_STRINGS,1
	0xbbc		
.debug_str	0x482f6	0xf	sdk\libs\timer_dam_lib.lib(qapi_timer_user.o)	#SHT_PROGBITS,SHF_MERGE|SHF_STRINGS,1
	0xbcb		
.debug_str	0x48305	0x1a	sdk\libs\timer_dam_lib.lib(qapi_timer_user.o)	#SHT_PROGBITS,SHF_MERGE|SHF_STRINGS,1
	0xbda		
.debug_str	0x4831f	0x11	sdk\libs\timer_dam_lib.lib(qapi_timer_user.o)	#SHT_PROGBITS,SHF_MERGE|SHF_STRINGS,1
	0xbf4		
.debug_str	0x48330	0x11	sdk\libs\timer_dam_lib.lib(qapi_timer_user.o)	#SHT_PROGBITS,SHF_MERGE|SHF_STRINGS,1
	0xc05		
.debug_str	0x48341	0x10	sdk\libs\timer_dam_lib.lib(qapi_timer_user.o)	#SHT_PROGBITS,SHF_MERGE|SHF_STRINGS,1
	0xc16		
.debug_str	0x48351	0xe	sdk\libs\timer_dam_lib.lib(qapi_timer_user.o)	#SHT_PROGBITS,SHF_MERGE|SHF_STRINGS,1
	0xc26		
.debug_str	0x4835f	0xe	sdk\libs\timer_dam_lib.lib(qapi_timer_user.o)	#SHT_PROGBITS,SHF_MERGE|SHF_STRINGS,1
	0xc34		
.debug_str	0x4836d	0x9	sdk\libs\timer_dam_lib.lib(qapi_timer_user.o)	#SHT_PROGBITS,SHF_MERGE|SHF_STRINGS,1
	0xc42		
.debug_str	0x48376	0x5	sdk\libs\timer_dam_lib.lib(qapi_timer_user.o)	#SHT_PROGBITS,SHF_MERGE|SHF_STRINGS,1
	0xc4b		
.debug_str	0x4837b	0x18	sdk\libs\timer_dam_lib.lib(qapi_timer_user.o)	#SHT_PROGBITS,SHF_MERGE|SHF_STRINGS,1
	0xc50		
.debug_str	0x48393	0x4	sdk\libs\timer_dam_lib.lib(qapi_timer_user.o)	#SHT_PROGBITS,SHF_MERGE|SHF_STRINGS,1
	0xc68		
.debug_str	0x48397	0xd	sdk\libs\timer_dam_lib.lib(qapi_timer_user.o)	#SHT_PROGBITS,SHF_MERGE|SHF_STRINGS,1
	0xc6c		
.debug_str	0x483a4	0x14	sdk\libs\timer_dam_lib.lib(qapi_timer_user.o)	#SHT_PROGBITS,SHF_MERGE|SHF_STRINGS,1
	0xc79		
.debug_str	0x483b8	0xb	sdk\libs\timer_dam_lib.lib(qapi_timer_user.o)	#SHT_PROGBITS,SHF_MERGE|SHF_STRINGS,1
	0xc8d		
.debug_str	0x483c3	0xb	sdk\libs\timer_dam_lib.lib(qapi_timer_user.o)	#SHT_PROGBITS,SHF_MERGE|SHF_STRINGS,1
	0xc98		
.debug_str	0x483ce	0x8	sdk\libs\timer_dam_lib.lib(qapi_timer_user.o)	#SHT_PROGBITS,SHF_MERGE|SHF_STRINGS,1
	0xca3		
.debug_str	0x483d6	0x8	sdk\libs\timer_dam_lib.lib(qapi_timer_user.o)	#SHT_PROGBITS,SHF_MERGE|SHF_STRINGS,1
	0xcab		
.debug_str	0x483de	0x14	sdk\libs\timer_dam_lib.lib(qapi_timer_user.o)	#SHT_PROGBITS,SHF_MERGE|SHF_STRINGS,1
	0xcb3		
.debug_str	0x483f2	0xe	sdk\libs\timer_dam_lib.lib(qapi_timer_user.o)	#SHT_PROGBITS,SHF_MERGE|SHF_STRINGS,1
	0xcc7		
.debug_str	0x48400	0xf	sdk\libs\timer_dam_lib.lib(qapi_timer_user.o)	#SHT_PROGBITS,SHF_MERGE|SHF_STRINGS,1
	0xcd5		
.debug_str	0x4840f	0x19	sdk\libs\timer_dam_lib.lib(qapi_timer_user.o)	#SHT_PROGBITS,SHF_MERGE|SHF_STRINGS,1
	0xce4		
.debug_str	0x48428	0x5	sdk\libs\timer_dam_lib.lib(qapi_timer_user.o)	#SHT_PROGBITS,SHF_MERGE|SHF_STRINGS,1
	0xcfd		
.debug_str	0x4842d	0x9	sdk\libs\timer_dam_lib.lib(qapi_timer_user.o)	#SHT_PROGBITS,SHF_MERGE|SHF_STRINGS,1
	0xd02		
.debug_str	0x48436	0x7	sdk\libs\timer_dam_lib.lib(qapi_timer_user.o)	#SHT_PROGBITS,SHF_MERGE|SHF_STRINGS,1
	0xd0b		
.debug_str	0x4843d	0x5	sdk\libs\timer_dam_lib.lib(qapi_timer_user.o)	#SHT_PROGBITS,SHF_MERGE|SHF_STRINGS,1
	0xd12		
.debug_str	0x48442	0x15	sdk\libs\timer_dam_lib.lib(qapi_timer_user.o)	#SHT_PROGBITS,SHF_MERGE|SHF_STRINGS,1
	0xd17		
.debug_str	0x48457	0x16	sdk\libs\timer_dam_lib.lib(qapi_timer_user.o)	#SHT_PROGBITS,SHF_MERGE|SHF_STRINGS,1
	0xd2c		
.debug_str	0x4846d	0x14	sdk\libs\timer_dam_lib.lib(qapi_timer_user.o)	#SHT_PROGBITS,SHF_MERGE|SHF_STRINGS,1
	0xd42		
.debug_str	0x48481	0xb	sdk\libs\timer_dam_lib.lib(qapi_timer_user.o)	#SHT_PROGBITS,SHF_MERGE|SHF_STRINGS,1
	0xd56		
.debug_str	0x4848c	0x15	sdk\libs\timer_dam_lib.lib(qapi_timer_user.o)	#SHT_PROGBITS,SHF_MERGE|SHF_STRINGS,1
	0xd61		
.debug_str	0x484a1	0x1b	sdk\libs\timer_dam_lib.lib(qapi_timer_user.o)	#SHT_PROGBITS,SHF_MERGE|SHF_STRINGS,1
	0xd76		
.debug_str	0x484bc	0xf	sdk\libs\timer_dam_lib.lib(qapi_timer_user.o)	#SHT_PROGBITS,SHF_MERGE|SHF_STRINGS,1
	0xd91		
.debug_str	0x484cb	0x8	sdk\libs\timer_dam_lib.lib(qapi_timer_user.o)	#SHT_PROGBITS,SHF_MERGE|SHF_STRINGS,1
	0xda0		
.debug_str	0x484d3	0xe	sdk\libs\timer_dam_lib.lib(qapi_timer_user.o)	#SHT_PROGBITS,SHF_MERGE|SHF_STRINGS,1
	0xda8		
.debug_str	0x484e1	0x14	sdk\libs\timer_dam_lib.lib(qapi_timer_user.o)	#SHT_PROGBITS,SHF_MERGE|SHF_STRINGS,1
	0xdb6		
.debug_str	0x484f5	0x8	sdk\libs\timer_dam_lib.lib(qapi_timer_user.o)	#SHT_PROGBITS,SHF_MERGE|SHF_STRINGS,1
	0xdca		
.debug_str	0x484fd	0xb	sdk\libs\timer_dam_lib.lib(qapi_timer_user.o)	#SHT_PROGBITS,SHF_MERGE|SHF_STRINGS,1
	0xdd2		
.debug_str	0x48508	0xf	sdk\libs\timer_dam_lib.lib(qapi_timer_user.o)	#SHT_PROGBITS,SHF_MERGE|SHF_STRINGS,1
	0xddd		
.debug_str	0x48517	0xb	sdk\libs\timer_dam_lib.lib(qapi_timer_user.o)	#SHT_PROGBITS,SHF_MERGE|SHF_STRINGS,1
	0xdec		
.debug_str	0x48522	0xa	sdk\libs\timer_dam_lib.lib(qapi_timer_user.o)	#SHT_PROGBITS,SHF_MERGE|SHF_STRINGS,1
	0xdf7		
.debug_str	0x4852c	0xc	sdk\libs\timer_dam_lib.lib(qapi_timer_user.o)	#SHT_PROGBITS,SHF_MERGE|SHF_STRINGS,1
	0xe01		
.debug_str	0x48538	0x5	sdk\libs\timer_dam_lib.lib(qapi_timer_user.o)	#SHT_PROGBITS,SHF_MERGE|SHF_STRINGS,1
	0xe0d		
.debug_str	0x4853d	0xf	sdk\libs\timer_dam_lib.lib(qapi_timer_user.o)	#SHT_PROGBITS,SHF_MERGE|SHF_STRINGS,1
	0xe12		
.debug_str	0x4854c	0x9	sdk\libs\timer_dam_lib.lib(qapi_timer_user.o)	#SHT_PROGBITS,SHF_MERGE|SHF_STRINGS,1
	0xe21		
.debug_str	0x48555	0x6	sdk\libs\timer_dam_lib.lib(qapi_timer_user.o)	#SHT_PROGBITS,SHF_MERGE|SHF_STRINGS,1
	0xe2a		
.debug_str	0x4855b	0x4	sdk\libs\timer_dam_lib.lib(qapi_timer_user.o)	#SHT_PROGBITS,SHF_MERGE|SHF_STRINGS,1
	0xe30		
.debug_str	0x4855f	0x5	sdk\libs\timer_dam_lib.lib(qapi_timer_user.o)	#SHT_PROGBITS,SHF_MERGE|SHF_STRINGS,1
	0xe34		
.debug_str	0x48564	0x7	sdk\libs\timer_dam_lib.lib(qapi_timer_user.o)	#SHT_PROGBITS,SHF_MERGE|SHF_STRINGS,1
	0xe39		
.debug_str	0x4856b	0x7	sdk\libs\timer_dam_lib.lib(qapi_timer_user.o)	#SHT_PROGBITS,SHF_MERGE|SHF_STRINGS,1
	0xe40		
.debug_str	0x48572	0xc	sdk\libs\timer_dam_lib.lib(qapi_timer_user.o)	#SHT_PROGBITS,SHF_MERGE|SHF_STRINGS,1
	0xe47		
.debug_str	0x4857e	0x16	sdk\libs\timer_dam_lib.lib(qapi_timer_user.o)	#SHT_PROGBITS,SHF_MERGE|SHF_STRINGS,1
	0xe53		
.debug_str	0x48594	0x10	sdk\libs\timer_dam_lib.lib(qapi_timer_user.o)	#SHT_PROGBITS,SHF_MERGE|SHF_STRINGS,1
	0xe69		
.debug_str	0x485a4	0xa9	sdk\libs\txm_lib.lib(txm_module_thread_shell_entry.o)	#SHT_PROGBITS,SHF_MERGE|SHF_STRINGS,1
	0xe79		
.debug_str	0x4864d	0x17	sdk\libs\txm_lib.lib(txm_module_thread_shell_entry.o)	#SHT_PROGBITS,SHF_MERGE|SHF_STRINGS,1
	0xf22		
.debug_str	0x48664	0x24	sdk\libs\txm_lib.lib(txm_module_thread_shell_entry.o)	#SHT_PROGBITS,SHF_MERGE|SHF_STRINGS,1
	0xf39		
.debug_str	0x48688	0x24	sdk\libs\txm_lib.lib(txm_module_thread_shell_entry.o)	#SHT_PROGBITS,SHF_MERGE|SHF_STRINGS,1
	0xf5d		
.debug_str	0x486ac	0x17	sdk\libs\txm_lib.lib(txm_module_thread_shell_entry.o)	#SHT_PROGBITS,SHF_MERGE|SHF_STRINGS,1
	0xf81		
.debug_str	0x486c3	0x19	sdk\libs\txm_lib.lib(txm_module_thread_shell_entry.o)	#SHT_PROGBITS,SHF_MERGE|SHF_STRINGS,1
	0xf98		
.debug_str	0x486dc	0x1a	sdk\libs\txm_lib.lib(txm_module_thread_shell_entry.o)	#SHT_PROGBITS,SHF_MERGE|SHF_STRINGS,1
	0xfb1		
.debug_str	0x486f6	0x23	sdk\libs\txm_lib.lib(txm_module_thread_shell_entry.o)	#SHT_PROGBITS,SHF_MERGE|SHF_STRINGS,1
	0xfcb		
.debug_str	0x48719	0x28	sdk\libs\txm_lib.lib(txm_module_thread_shell_entry.o)	#SHT_PROGBITS,SHF_MERGE|SHF_STRINGS,1
	0xfee		
.debug_str	0x48741	0x29	sdk\libs\txm_lib.lib(txm_module_thread_shell_entry.o)	#SHT_PROGBITS,SHF_MERGE|SHF_STRINGS,1
	0x1016		
.debug_str	0x4876a	0x1f	sdk\libs\txm_lib.lib(txm_module_thread_shell_entry.o)	#SHT_PROGBITS,SHF_MERGE|SHF_STRINGS,1
	0x103f		
.debug_str	0x48789	0x1d	sdk\libs\txm_lib.lib(txm_module_thread_shell_entry.o)	#SHT_PROGBITS,SHF_MERGE|SHF_STRINGS,1
	0x105e		
.debug_str	0x487a6	0x1e	sdk\libs\txm_lib.lib(txm_module_thread_shell_entry.o)	#SHT_PROGBITS,SHF_MERGE|SHF_STRINGS,1
	0x107b		
.debug_str	0x487c4	0x28	sdk\libs\txm_lib.lib(txm_module_thread_shell_entry.o)	#SHT_PROGBITS,SHF_MERGE|SHF_STRINGS,1
	0x1099		
.debug_str	0x487ec	0x29	sdk\libs\txm_lib.lib(txm_module_thread_shell_entry.o)	#SHT_PROGBITS,SHF_MERGE|SHF_STRINGS,1
	0x10c1		
.debug_str	0x48815	0x1f	sdk\libs\txm_lib.lib(txm_module_thread_shell_entry.o)	#SHT_PROGBITS,SHF_MERGE|SHF_STRINGS,1
	0x10ea		
.debug_str	0x48834	0x1d	sdk\libs\txm_lib.lib(txm_module_thread_shell_entry.o)	#SHT_PROGBITS,SHF_MERGE|SHF_STRINGS,1
	0x1109		
.debug_str	0x48851	0x2d	sdk\libs\txm_lib.lib(txm_module_thread_shell_entry.o)	#SHT_PROGBITS,SHF_MERGE|SHF_STRINGS,1
	0x1126		
.debug_str	0x4887e	0x1e	sdk\libs\txm_lib.lib(txm_module_thread_shell_entry.o)	#SHT_PROGBITS,SHF_MERGE|SHF_STRINGS,1
	0x1153		
.debug_str	0x4889c	0x24	sdk\libs\txm_lib.lib(txm_module_thread_shell_entry.o)	#SHT_PROGBITS,SHF_MERGE|SHF_STRINGS,1
	0x1171		
.debug_str	0x488c0	0x33	sdk\libs\txm_lib.lib(txm_module_thread_shell_entry.o)	#SHT_PROGBITS,SHF_MERGE|SHF_STRINGS,1
	0x1195		
.debug_str	0x488f3	0x31	sdk\libs\txm_lib.lib(txm_module_thread_shell_entry.o)	#SHT_PROGBITS,SHF_MERGE|SHF_STRINGS,1
	0x11c8		
.debug_str	0x48924	0x31	sdk\libs\txm_lib.lib(txm_module_thread_shell_entry.o)	#SHT_PROGBITS,SHF_MERGE|SHF_STRINGS,1
	0x11f9		
.debug_str	0x48955	0x2f	sdk\libs\txm_lib.lib(txm_module_thread_shell_entry.o)	#SHT_PROGBITS,SHF_MERGE|SHF_STRINGS,1
	0x122a		
.debug_str	0x48984	0x21	sdk\libs\txm_lib.lib(txm_module_thread_shell_entry.o)	#SHT_PROGBITS,SHF_MERGE|SHF_STRINGS,1
	0x1259		
.debug_str	0x489a5	0x17	sdk\libs\txm_lib.lib(txm_module_thread_shell_entry.o)	#SHT_PROGBITS,SHF_MERGE|SHF_STRINGS,1
	0x127a		
.debug_str	0x489bc	0x22	sdk\libs\txm_lib.lib(txm_module_thread_shell_entry.o)	#SHT_PROGBITS,SHF_MERGE|SHF_STRINGS,1
	0x1291		
.debug_str	0x489de	0x22	sdk\libs\txm_lib.lib(txm_module_thread_shell_entry.o)	#SHT_PROGBITS,SHF_MERGE|SHF_STRINGS,1
	0x12b3		
.debug_str	0x48a00	0x22	sdk\libs\txm_lib.lib(txm_module_thread_shell_entry.o)	#SHT_PROGBITS,SHF_MERGE|SHF_STRINGS,1
	0x12d5		
.debug_str	0x48a22	0x2a	sdk\libs\txm_lib.lib(txm_module_thread_shell_entry.o)	#SHT_PROGBITS,SHF_MERGE|SHF_STRINGS,1
	0x12f7		
.debug_str	0x48a4c	0x23	sdk\libs\txm_lib.lib(txm_module_thread_shell_entry.o)	#SHT_PROGBITS,SHF_MERGE|SHF_STRINGS,1
	0x1321		
.debug_str	0x48a6f	0x29	sdk\libs\txm_lib.lib(txm_module_thread_shell_entry.o)	#SHT_PROGBITS,SHF_MERGE|SHF_STRINGS,1
	0x1344		
.debug_str	0x48a98	0x23	sdk\libs\txm_lib.lib(txm_module_thread_shell_entry.o)	#SHT_PROGBITS,SHF_MERGE|SHF_STRINGS,1
	0x136d		
.debug_str	0x48abb	0x22	sdk\libs\txm_lib.lib(txm_module_thread_shell_entry.o)	#SHT_PROGBITS,SHF_MERGE|SHF_STRINGS,1
	0x1390		
.debug_str	0x48add	0x28	sdk\libs\txm_lib.lib(txm_module_thread_shell_entry.o)	#SHT_PROGBITS,SHF_MERGE|SHF_STRINGS,1
	0x13b2		
.debug_str	0x48b05	0x2a	sdk\libs\txm_lib.lib(txm_module_thread_shell_entry.o)	#SHT_PROGBITS,SHF_MERGE|SHF_STRINGS,1
	0x13da		
.debug_str	0x48b2f	0x26	sdk\libs\txm_lib.lib(txm_module_thread_shell_entry.o)	#SHT_PROGBITS,SHF_MERGE|SHF_STRINGS,1
	0x1404		
.debug_str	0x48b55	0x26	sdk\libs\txm_lib.lib(txm_module_thread_shell_entry.o)	#SHT_PROGBITS,SHF_MERGE|SHF_STRINGS,1
	0x142a		
.debug_str	0x48b7b	0x28	sdk\libs\txm_lib.lib(txm_module_thread_shell_entry.o)	#SHT_PROGBITS,SHF_MERGE|SHF_STRINGS,1
	0x1450		
.debug_str	0x48ba3	0x1e	sdk\libs\txm_lib.lib(txm_module_thread_shell_entry.o)	#SHT_PROGBITS,SHF_MERGE|SHF_STRINGS,1
	0x1478		
.debug_str	0x48bc1	0x1e	sdk\libs\txm_lib.lib(txm_module_thread_shell_entry.o)	#SHT_PROGBITS,SHF_MERGE|SHF_STRINGS,1
	0x1496		
.debug_str	0x48bdf	0x1f	sdk\libs\txm_lib.lib(txm_module_thread_shell_entry.o)	#SHT_PROGBITS,SHF_MERGE|SHF_STRINGS,1
	0x14b4		
.debug_str	0x48bfe	0x1f	sdk\libs\txm_lib.lib(txm_module_thread_shell_entry.o)	#SHT_PROGBITS,SHF_MERGE|SHF_STRINGS,1
	0x14d3		
.debug_str	0x48c1d	0x1f	sdk\libs\txm_lib.lib(txm_module_thread_shell_entry.o)	#SHT_PROGBITS,SHF_MERGE|SHF_STRINGS,1
	0x14f2		
.debug_str	0x48c3c	0x1f	sdk\libs\txm_lib.lib(txm_module_thread_shell_entry.o)	#SHT_PROGBITS,SHF_MERGE|SHF_STRINGS,1
	0x1511		
.debug_str	0x48c5b	0x1f	sdk\libs\txm_lib.lib(txm_module_thread_shell_entry.o)	#SHT_PROGBITS,SHF_MERGE|SHF_STRINGS,1
	0x1530		
.debug_str	0x48c7a	0x1f	sdk\libs\txm_lib.lib(txm_module_thread_shell_entry.o)	#SHT_PROGBITS,SHF_MERGE|SHF_STRINGS,1
	0x154f		
.debug_str	0x48c99	0x1f	sdk\libs\txm_lib.lib(txm_module_thread_shell_entry.o)	#SHT_PROGBITS,SHF_MERGE|SHF_STRINGS,1
	0x156e		
.debug_str	0x48cb8	0x1f	sdk\libs\txm_lib.lib(txm_module_thread_shell_entry.o)	#SHT_PROGBITS,SHF_MERGE|SHF_STRINGS,1
	0x158d		
.debug_str	0x48cd7	0x1f	sdk\libs\txm_lib.lib(txm_module_thread_shell_entry.o)	#SHT_PROGBITS,SHF_MERGE|SHF_STRINGS,1
	0x15ac		
.debug_str	0x48cf6	0x1f	sdk\libs\txm_lib.lib(txm_module_thread_shell_entry.o)	#SHT_PROGBITS,SHF_MERGE|SHF_STRINGS,1
	0x15cb		
.debug_str	0x48d15	0x21	sdk\libs\txm_lib.lib(txm_module_thread_shell_entry.o)	#SHT_PROGBITS,SHF_MERGE|SHF_STRINGS,1
	0x15ea		
.debug_str	0x48d36	0x20	sdk\libs\txm_lib.lib(txm_module_thread_shell_entry.o)	#SHT_PROGBITS,SHF_MERGE|SHF_STRINGS,1
	0x160b		
.debug_str	0x48d56	0x20	sdk\libs\txm_lib.lib(txm_module_thread_shell_entry.o)	#SHT_PROGBITS,SHF_MERGE|SHF_STRINGS,1
	0x162b		
.debug_str	0x48d76	0x20	sdk\libs\txm_lib.lib(txm_module_thread_shell_entry.o)	#SHT_PROGBITS,SHF_MERGE|SHF_STRINGS,1
	0x164b		
.debug_str	0x48d96	0x20	sdk\libs\txm_lib.lib(txm_module_thread_shell_entry.o)	#SHT_PROGBITS,SHF_MERGE|SHF_STRINGS,1
	0x166b		
.debug_str	0x48db6	0x1d	sdk\libs\txm_lib.lib(txm_module_thread_shell_entry.o)	#SHT_PROGBITS,SHF_MERGE|SHF_STRINGS,1
	0x168b		
.debug_str	0x48dd3	0x1b	sdk\libs\txm_lib.lib(txm_module_thread_shell_entry.o)	#SHT_PROGBITS,SHF_MERGE|SHF_STRINGS,1
	0x16a8		
.debug_str	0x48dee	0x14	sdk\libs\txm_lib.lib(txm_module_thread_shell_entry.o)	#SHT_PROGBITS,SHF_MERGE|SHF_STRINGS,1
	0x16c3		
.debug_str	0x48e02	0x29	sdk\libs\txm_lib.lib(txm_module_thread_shell_entry.o)	#SHT_PROGBITS,SHF_MERGE|SHF_STRINGS,1
	0x16d7		
.debug_str	0x48e2b	0x27	sdk\libs\txm_lib.lib(txm_module_thread_shell_entry.o)	#SHT_PROGBITS,SHF_MERGE|SHF_STRINGS,1
	0x1700		
.debug_str	0x48e52	0x26	sdk\libs\txm_lib.lib(txm_module_thread_shell_entry.o)	#SHT_PROGBITS,SHF_MERGE|SHF_STRINGS,1
	0x1727		
.debug_str	0x48e78	0x32	sdk\libs\txm_lib.lib(txm_module_thread_shell_entry.o)	#SHT_PROGBITS,SHF_MERGE|SHF_STRINGS,1
	0x174d		
.debug_str	0x48eaa	0x26	sdk\libs\txm_lib.lib(txm_module_thread_shell_entry.o)	#SHT_PROGBITS,SHF_MERGE|SHF_STRINGS,1
	0x177f		
.debug_str	0x48ed0	0x2c	sdk\libs\txm_lib.lib(txm_module_thread_shell_entry.o)	#SHT_PROGBITS,SHF_MERGE|SHF_STRINGS,1
	0x17a5		
.debug_str	0x48efc	0x2b	sdk\libs\txm_lib.lib(txm_module_thread_shell_entry.o)	#SHT_PROGBITS,SHF_MERGE|SHF_STRINGS,1
	0x17d1		
.debug_str	0x48f27	0xc	sdk\libs\txm_lib.lib(txm_module_thread_shell_entry.o)	#SHT_PROGBITS,SHF_MERGE|SHF_STRINGS,1
	0x17fc		
.debug_str	0x48f33	0xe	sdk\libs\txm_lib.lib(txm_module_thread_shell_entry.o)	#SHT_PROGBITS,SHF_MERGE|SHF_STRINGS,1
	0x1808		
.debug_str	0x48f41	0x16	sdk\libs\txm_lib.lib(txm_module_thread_shell_entry.o)	#SHT_PROGBITS,SHF_MERGE|SHF_STRINGS,1
	0x1816		
.debug_str	0x48f57	0x12	sdk\libs\txm_lib.lib(txm_module_thread_shell_entry.o)	#SHT_PROGBITS,SHF_MERGE|SHF_STRINGS,1
	0x182c		
.debug_str	0x48f69	0x12	sdk\libs\txm_lib.lib(txm_module_thread_shell_entry.o)	#SHT_PROGBITS,SHF_MERGE|SHF_STRINGS,1
	0x183e		
.debug_str	0x48f7b	0x1b	sdk\libs\txm_lib.lib(txm_module_thread_shell_entry.o)	#SHT_PROGBITS,SHF_MERGE|SHF_STRINGS,1
	0x1850		
.debug_str	0x48f96	0xf	sdk\libs\txm_lib.lib(txm_module_thread_shell_entry.o)	#SHT_PROGBITS,SHF_MERGE|SHF_STRINGS,1
	0x186b		
.debug_str	0x48fa5	0xd	sdk\libs\txm_lib.lib(txm_module_thread_shell_entry.o)	#SHT_PROGBITS,SHF_MERGE|SHF_STRINGS,1
	0x187a		
.debug_str	0x48fb2	0xe	sdk\libs\txm_lib.lib(txm_module_thread_shell_entry.o)	#SHT_PROGBITS,SHF_MERGE|SHF_STRINGS,1
	0x1887		
.debug_str	0x48fc0	0xf	sdk\libs\txm_lib.lib(txm_module_thread_shell_entry.o)	#SHT_PROGBITS,SHF_MERGE|SHF_STRINGS,1
	0x1895		
.debug_str	0x48fcf	0x19	sdk\libs\txm_lib.lib(txm_module_thread_shell_entry.o)	#SHT_PROGBITS,SHF_MERGE|SHF_STRINGS,1
	0x18a4		
.debug_str	0x48fe8	0x19	sdk\libs\txm_lib.lib(txm_module_thread_shell_entry.o)	#SHT_PROGBITS,SHF_MERGE|SHF_STRINGS,1
	0x18bd		
.debug_str	0x49001	0x16	sdk\libs\txm_lib.lib(txm_module_thread_shell_entry.o)	#SHT_PROGBITS,SHF_MERGE|SHF_STRINGS,1
	0x18d6		
.debug_str	0x49017	0x1a	sdk\libs\txm_lib.lib(txm_module_thread_shell_entry.o)	#SHT_PROGBITS,SHF_MERGE|SHF_STRINGS,1
	0x18ec		
.debug_str	0x49031	0x10	sdk\libs\txm_lib.lib(txm_module_thread_shell_entry.o)	#SHT_PROGBITS,SHF_MERGE|SHF_STRINGS,1
	0x1906		
.debug_str	0x49041	0x9	sdk\libs\txm_lib.lib(txm_module_thread_shell_entry.o)	#SHT_PROGBITS,SHF_MERGE|SHF_STRINGS,1
	0x1916		
.debug_str	0x4904a	0x30	sdk\libs\txm_lib.lib(txm_module_thread_shell_entry.o)	#SHT_PROGBITS,SHF_MERGE|SHF_STRINGS,1
	0x191f		
.debug_str	0x4907a	0x2a	sdk\libs\txm_lib.lib(txm_module_thread_shell_entry.o)	#SHT_PROGBITS,SHF_MERGE|SHF_STRINGS,1
	0x194f		
.debug_str	0x490a4	0x28	sdk\libs\txm_lib.lib(txm_module_thread_shell_entry.o)	#SHT_PROGBITS,SHF_MERGE|SHF_STRINGS,1
	0x1979		
.debug_str	0x490cc	0x28	sdk\libs\txm_lib.lib(txm_module_thread_shell_entry.o)	#SHT_PROGBITS,SHF_MERGE|SHF_STRINGS,1
	0x19a1		
.debug_str	0x490f4	0x26	sdk\libs\txm_lib.lib(txm_module_thread_shell_entry.o)	#SHT_PROGBITS,SHF_MERGE|SHF_STRINGS,1
	0x19c9		
.debug_str	0x4911a	0x2a	sdk\libs\txm_lib.lib(txm_module_thread_shell_entry.o)	#SHT_PROGBITS,SHF_MERGE|SHF_STRINGS,1
	0x19ef		
.debug_str	0x49144	0x28	sdk\libs\txm_lib.lib(txm_module_thread_shell_entry.o)	#SHT_PROGBITS,SHF_MERGE|SHF_STRINGS,1
	0x1a19		
.debug_str	0x4916c	0x28	sdk\libs\txm_lib.lib(txm_module_thread_shell_entry.o)	#SHT_PROGBITS,SHF_MERGE|SHF_STRINGS,1
	0x1a41		
.debug_str	0x49194	0x25	sdk\libs\txm_lib.lib(txm_module_thread_shell_entry.o)	#SHT_PROGBITS,SHF_MERGE|SHF_STRINGS,1
	0x1a69		
.debug_str	0x491b9	0x19	sdk\libs\txm_lib.lib(txm_module_thread_shell_entry.o)	#SHT_PROGBITS,SHF_MERGE|SHF_STRINGS,1
	0x1a8e		
.debug_str	0x491d2	0x18	sdk\libs\txm_lib.lib(txm_module_thread_shell_entry.o)	#SHT_PROGBITS,SHF_MERGE|SHF_STRINGS,1
	0x1aa7		
.debug_str	0x491ea	0x1e	sdk\libs\txm_lib.lib(txm_module_thread_shell_entry.o)	#SHT_PROGBITS,SHF_MERGE|SHF_STRINGS,1
	0x1abf		
.debug_str	0x49208	0x1e	sdk\libs\txm_lib.lib(txm_module_thread_shell_entry.o)	#SHT_PROGBITS,SHF_MERGE|SHF_STRINGS,1
	0x1add		
.debug_str	0x49226	0x15	sdk\libs\txm_lib.lib(txm_module_thread_shell_entry.o)	#SHT_PROGBITS,SHF_MERGE|SHF_STRINGS,1
	0x1afb		
.debug_str	0x4923b	0x14	sdk\libs\txm_lib.lib(txm_module_thread_shell_entry.o)	#SHT_PROGBITS,SHF_MERGE|SHF_STRINGS,1
	0x1b10		
.debug_str	0x4924f	0x25	sdk\libs\txm_lib.lib(txm_module_thread_shell_entry.o)	#SHT_PROGBITS,SHF_MERGE|SHF_STRINGS,1
	0x1b24		
.debug_str	0x49274	0x2c	sdk\libs\txm_lib.lib(txm_module_thread_shell_entry.o)	#SHT_PROGBITS,SHF_MERGE|SHF_STRINGS,1
	0x1b49		
.debug_str	0x492a0	0x21	sdk\libs\txm_lib.lib(txm_module_thread_shell_entry.o)	#SHT_PROGBITS,SHF_MERGE|SHF_STRINGS,1
	0x1b75		
.debug_str	0x492c1	0x25	sdk\libs\txm_lib.lib(txm_module_thread_shell_entry.o)	#SHT_PROGBITS,SHF_MERGE|SHF_STRINGS,1
	0x1b96		
.debug_str	0x492e6	0x17	sdk\libs\txm_lib.lib(txm_module_thread_shell_entry.o)	#SHT_PROGBITS,SHF_MERGE|SHF_STRINGS,1
	0x1bbb		
.debug_str	0x492fd	0x23	sdk\libs\txm_lib.lib(txm_module_thread_shell_entry.o)	#SHT_PROGBITS,SHF_MERGE|SHF_STRINGS,1
	0x1bd2		
.debug_str	0x49320	0x26	sdk\libs\txm_lib.lib(txm_module_thread_shell_entry.o)	#SHT_PROGBITS,SHF_MERGE|SHF_STRINGS,1
	0x1bf5		
.debug_str	0x49346	0x20	sdk\libs\txm_lib.lib(txm_module_thread_shell_entry.o)	#SHT_PROGBITS,SHF_MERGE|SHF_STRINGS,1
	0x1c1b		
.debug_str	0x49366	0x24	sdk\libs\txm_lib.lib(txm_module_thread_shell_entry.o)	#SHT_PROGBITS,SHF_MERGE|SHF_STRINGS,1
	0x1c3b		
.debug_str	0x4938a	0x1b	sdk\libs\txm_lib.lib(txm_module_thread_shell_entry.o)	#SHT_PROGBITS,SHF_MERGE|SHF_STRINGS,1
	0x1c5f		
.debug_str	0x493a5	0x14	sdk\libs\txm_lib.lib(txm_module_thread_shell_entry.o)	#SHT_PROGBITS,SHF_MERGE|SHF_STRINGS,1
	0x1c7a		
.debug_str	0x493b9	0x2f	sdk\libs\txm_lib.lib(txm_module_thread_shell_entry.o)	#SHT_PROGBITS,SHF_MERGE|SHF_STRINGS,1
	0x1c8e		
.debug_str	0x493e8	0x2f	sdk\libs\txm_lib.lib(txm_module_thread_shell_entry.o)	#SHT_PROGBITS,SHF_MERGE|SHF_STRINGS,1
	0x1cbd		
.debug_str	0x49417	0x23	sdk\libs\txm_lib.lib(txm_module_thread_shell_entry.o)	#SHT_PROGBITS,SHF_MERGE|SHF_STRINGS,1
	0x1cec		
.debug_str	0x4943a	0x27	sdk\libs\txm_lib.lib(txm_module_thread_shell_entry.o)	#SHT_PROGBITS,SHF_MERGE|SHF_STRINGS,1
	0x1d0f		
.debug_str	0x49461	0x29	sdk\libs\txm_lib.lib(txm_module_thread_shell_entry.o)	#SHT_PROGBITS,SHF_MERGE|SHF_STRINGS,1
	0x1d36		
.debug_str	0x4948a	0x2a	sdk\libs\txm_lib.lib(txm_module_thread_shell_entry.o)	#SHT_PROGBITS,SHF_MERGE|SHF_STRINGS,1
	0x1d5f		
.debug_str	0x494b4	0x35	sdk\libs\txm_lib.lib(txm_module_thread_shell_entry.o)	#SHT_PROGBITS,SHF_MERGE|SHF_STRINGS,1
	0x1d89		
.debug_str	0x494e9	0x34	sdk\libs\txm_lib.lib(txm_module_thread_shell_entry.o)	#SHT_PROGBITS,SHF_MERGE|SHF_STRINGS,1
	0x1dbe		
.debug_str	0x4951d	0x35	sdk\libs\txm_lib.lib(txm_module_thread_shell_entry.o)	#SHT_PROGBITS,SHF_MERGE|SHF_STRINGS,1
	0x1df2		
.debug_str	0x49552	0x34	sdk\libs\txm_lib.lib(txm_module_thread_shell_entry.o)	#SHT_PROGBITS,SHF_MERGE|SHF_STRINGS,1
	0x1e27		
.debug_str	0x49586	0x24	sdk\libs\txm_lib.lib(txm_module_thread_shell_entry.o)	#SHT_PROGBITS,SHF_MERGE|SHF_STRINGS,1
	0x1e5b		
.debug_str	0x495aa	0x1d	sdk\libs\txm_lib.lib(txm_module_thread_shell_entry.o)	#SHT_PROGBITS,SHF_MERGE|SHF_STRINGS,1
	0x1e7f		
.debug_str	0x495c7	0x19	sdk\libs\txm_lib.lib(txm_module_thread_shell_entry.o)	#SHT_PROGBITS,SHF_MERGE|SHF_STRINGS,1
	0x1e9c		
.debug_str	0x495e0	0x23	sdk\libs\txm_lib.lib(txm_module_thread_shell_entry.o)	#SHT_PROGBITS,SHF_MERGE|SHF_STRINGS,1
	0x1eb5		
.debug_str	0x49603	0xa	sdk\libs\txm_lib.lib(txm_module_thread_shell_entry.o)	#SHT_PROGBITS,SHF_MERGE|SHF_STRINGS,1
	0x1ed8		
.debug_str	0x4960d	0x1f	sdk\libs\txm_lib.lib(txm_module_thread_shell_entry.o)	#SHT_PROGBITS,SHF_MERGE|SHF_STRINGS,1
	0x1ee2		
.debug_str	0x4962c	0xb	sdk\libs\txm_lib.lib(txm_module_thread_shell_entry.o)	#SHT_PROGBITS,SHF_MERGE|SHF_STRINGS,1
	0x1f01		
.debug_str	0x49637	0xc	sdk\libs\txm_lib.lib(txm_module_thread_shell_entry.o)	#SHT_PROGBITS,SHF_MERGE|SHF_STRINGS,1
	0x1f0c		
.debug_str	0x49643	0xb4	sdk\libs\txm_lib.lib(txm_module_callback_request_thread_entry.o)	#SHT_PROGBITS,SHF_MERGE|SHF_STRINGS,1
	0x1f18		
.debug_str	0x496f7	0x18	sdk\libs\txm_lib.lib(txm_module_callback_request_thread_entry.o)	#SHT_PROGBITS,SHF_MERGE|SHF_STRINGS,1
	0x1fcc		
.debug_str	0x4970f	0x1a	sdk\libs\txm_lib.lib(txm_module_callback_request_thread_entry.o)	#SHT_PROGBITS,SHF_MERGE|SHF_STRINGS,1
	0x1fe4		
.debug_str	0x49729	0x1d	sdk\libs\txm_lib.lib(txm_module_callback_request_thread_entry.o)	#SHT_PROGBITS,SHF_MERGE|SHF_STRINGS,1
	0x1ffe		
.debug_str	0x49746	0x22	sdk\libs\txm_lib.lib(txm_module_callback_request_thread_entry.o)	#SHT_PROGBITS,SHF_MERGE|SHF_STRINGS,1
	0x201b		
.debug_str	0x49768	0x25	sdk\libs\txm_lib.lib(txm_module_callback_request_thread_entry.o)	#SHT_PROGBITS,SHF_MERGE|SHF_STRINGS,1
	0x203d		
.debug_str	0x4978d	0x25	sdk\libs\txm_lib.lib(txm_module_callback_request_thread_entry.o)	#SHT_PROGBITS,SHF_MERGE|SHF_STRINGS,1
	0x2062		
.debug_str	0x497b2	0x22	sdk\libs\txm_lib.lib(txm_module_callback_request_thread_entry.o)	#SHT_PROGBITS,SHF_MERGE|SHF_STRINGS,1
	0x2087		
.debug_str	0x497d4	0x26	sdk\libs\txm_lib.lib(txm_module_callback_request_thread_entry.o)	#SHT_PROGBITS,SHF_MERGE|SHF_STRINGS,1
	0x20a9		
.debug_str	0x497fa	0x23	sdk\libs\txm_lib.lib(txm_module_callback_request_thread_entry.o)	#SHT_PROGBITS,SHF_MERGE|SHF_STRINGS,1
	0x20cf		
.debug_str	0x4981d	0x1c	sdk\libs\txm_lib.lib(txm_module_callback_request_thread_entry.o)	#SHT_PROGBITS,SHF_MERGE|SHF_STRINGS,1
	0x20f2		
.debug_str	0x49839	0x15	sdk\libs\txm_lib.lib(txm_module_callback_request_thread_entry.o)	#SHT_PROGBITS,SHF_MERGE|SHF_STRINGS,1
	0x210e		
.debug_str	0x4984e	0x10	sdk\libs\txm_lib.lib(txm_module_callback_request_thread_entry.o)	#SHT_PROGBITS,SHF_MERGE|SHF_STRINGS,1
	0x2123		
.debug_str	0x4985e	0x12	sdk\libs\txm_lib.lib(txm_module_callback_request_thread_entry.o)	#SHT_PROGBITS,SHF_MERGE|SHF_STRINGS,1
	0x2133		
.debug_str	0x49870	0x13	sdk\libs\txm_lib.lib(txm_module_callback_request_thread_entry.o)	#SHT_PROGBITS,SHF_MERGE|SHF_STRINGS,1
	0x2145		
.debug_str	0x49883	0x1d	sdk\libs\txm_lib.lib(txm_module_callback_request_thread_entry.o)	#SHT_PROGBITS,SHF_MERGE|SHF_STRINGS,1
	0x2158		
.debug_str	0x498a0	0x1d	sdk\libs\txm_lib.lib(txm_module_callback_request_thread_entry.o)	#SHT_PROGBITS,SHF_MERGE|SHF_STRINGS,1
	0x2175		
.debug_str	0x498bd	0x1a	sdk\libs\txm_lib.lib(txm_module_callback_request_thread_entry.o)	#SHT_PROGBITS,SHF_MERGE|SHF_STRINGS,1
	0x2192		
.debug_str	0x498d7	0x1e	sdk\libs\txm_lib.lib(txm_module_callback_request_thread_entry.o)	#SHT_PROGBITS,SHF_MERGE|SHF_STRINGS,1
	0x21ac		
.debug_str	0x498f5	0x14	sdk\libs\txm_lib.lib(txm_module_callback_request_thread_entry.o)	#SHT_PROGBITS,SHF_MERGE|SHF_STRINGS,1
	0x21ca		
.debug_str	0x49909	0xd	sdk\libs\txm_lib.lib(txm_module_callback_request_thread_entry.o)	#SHT_PROGBITS,SHF_MERGE|SHF_STRINGS,1
	0x21de		
.debug_str	0x49916	0x18	sdk\libs\txm_lib.lib(txm_module_callback_request_thread_entry.o)	#SHT_PROGBITS,SHF_MERGE|SHF_STRINGS,1
	0x21eb		
.debug_str	0x4992e	0x2a	sdk\libs\txm_lib.lib(txm_module_callback_request_thread_entry.o)	#SHT_PROGBITS,SHF_MERGE|SHF_STRINGS,1
	0x2203		
.debug_str	0x49958	0x3	sdk\libs\txm_lib.lib(txm_module_callback_request_thread_entry.o)	#SHT_PROGBITS,SHF_MERGE|SHF_STRINGS,1
	0x222d		
.debug_str	0x4995b	0x7	sdk\libs\txm_lib.lib(txm_module_callback_request_thread_entry.o)	#SHT_PROGBITS,SHF_MERGE|SHF_STRINGS,1
	0x2230		
.debug_str	0x49962	0xf	sdk\libs\txm_lib.lib(txm_module_callback_request_thread_entry.o)	#SHT_PROGBITS,SHF_MERGE|SHF_STRINGS,1
	0x2237		
.debug_str	0x49971	0x19	sdk\libs\txm_lib.lib(txm_module_callback_request_thread_entry.o)	#SHT_PROGBITS,SHF_MERGE|SHF_STRINGS,1
	0x2246		
.debug_str	0x4998a	0x12	sdk\libs\txm_lib.lib(txm_module_callback_request_thread_entry.o)	#SHT_PROGBITS,SHF_MERGE|SHF_STRINGS,1
	0x225f		
.debug_str	0x4999c	0xe	sdk\libs\txm_lib.lib(txm_module_callback_request_thread_entry.o)	#SHT_PROGBITS,SHF_MERGE|SHF_STRINGS,1
	0x2271		
.debug_str	0x499aa	0xf	sdk\libs\txm_lib.lib(txm_module_callback_request_thread_entry.o)	#SHT_PROGBITS,SHF_MERGE|SHF_STRINGS,1
	0x227f		
.debug_str	0x499b9	0x11	sdk\libs\txm_lib.lib(txm_module_callback_request_thread_entry.o)	#SHT_PROGBITS,SHF_MERGE|SHF_STRINGS,1
	0x228e		
.debug_str	0x499ca	0x24	sdk\libs\txm_lib.lib(txm_module_callback_request_thread_entry.o)	#SHT_PROGBITS,SHF_MERGE|SHF_STRINGS,1
	0x229f		
.debug_str	0x499ee	0x1a	sdk\libs\txm_lib.lib(txm_module_callback_request_thread_entry.o)	#SHT_PROGBITS,SHF_MERGE|SHF_STRINGS,1
	0x22c3		
.debug_str	0x49a08	0x22	sdk\libs\txm_lib.lib(txm_module_callback_request_thread_entry.o)	#SHT_PROGBITS,SHF_MERGE|SHF_STRINGS,1
	0x22dd		
.debug_str	0x49a2a	0x1e	sdk\libs\txm_lib.lib(txm_module_callback_request_thread_entry.o)	#SHT_PROGBITS,SHF_MERGE|SHF_STRINGS,1
	0x22ff		
.debug_str	0x49a48	0x25	sdk\libs\txm_lib.lib(txm_module_callback_request_thread_entry.o)	#SHT_PROGBITS,SHF_MERGE|SHF_STRINGS,1
	0x231d		
.debug_str	0x49a6d	0x24	sdk\libs\txm_lib.lib(txm_module_callback_request_thread_entry.o)	#SHT_PROGBITS,SHF_MERGE|SHF_STRINGS,1
	0x2342		
.debug_str	0x49a91	0x22	sdk\libs\txm_lib.lib(txm_module_callback_request_thread_entry.o)	#SHT_PROGBITS,SHF_MERGE|SHF_STRINGS,1
	0x2366		
.debug_str	0x49ab3	0x29	sdk\libs\txm_lib.lib(txm_module_callback_request_thread_entry.o)	#SHT_PROGBITS,SHF_MERGE|SHF_STRINGS,1
	0x2388		
.debug_str	0x49adc	0x19	sdk\libs\txm_lib.lib(txm_module_callback_request_thread_entry.o)	#SHT_PROGBITS,SHF_MERGE|SHF_STRINGS,1
	0x23b1		
.debug_str	0x49af5	0x1f	sdk\libs\txm_lib.lib(txm_module_callback_request_thread_entry.o)	#SHT_PROGBITS,SHF_MERGE|SHF_STRINGS,1
	0x23ca		
.debug_str	0x49b14	0x17	sdk\libs\txm_lib.lib(txm_module_callback_request_thread_entry.o)	#SHT_PROGBITS,SHF_MERGE|SHF_STRINGS,1
	0x23e9		
.debug_str	0x49b2b	0x1c	sdk\libs\txm_lib.lib(txm_module_callback_request_thread_entry.o)	#SHT_PROGBITS,SHF_MERGE|SHF_STRINGS,1
	0x2400		
.debug_str	0x49b47	0x1c	sdk\libs\txm_lib.lib(txm_module_callback_request_thread_entry.o)	#SHT_PROGBITS,SHF_MERGE|SHF_STRINGS,1
	0x241c		
.debug_str	0x49b63	0x19	sdk\libs\txm_lib.lib(txm_module_callback_request_thread_entry.o)	#SHT_PROGBITS,SHF_MERGE|SHF_STRINGS,1
	0x2438		
.debug_str	0x49b7c	0x1d	sdk\libs\txm_lib.lib(txm_module_callback_request_thread_entry.o)	#SHT_PROGBITS,SHF_MERGE|SHF_STRINGS,1
	0x2451		
.debug_str	0x49b99	0x21	sdk\libs\txm_lib.lib(txm_module_callback_request_thread_entry.o)	#SHT_PROGBITS,SHF_MERGE|SHF_STRINGS,1
	0x246e		
.debug_str	0x49bba	0x25	sdk\libs\txm_lib.lib(txm_module_callback_request_thread_entry.o)	#SHT_PROGBITS,SHF_MERGE|SHF_STRINGS,1
	0x248f		
.debug_str	0x49bdf	0x1c	sdk\libs\txm_lib.lib(txm_module_callback_request_thread_entry.o)	#SHT_PROGBITS,SHF_MERGE|SHF_STRINGS,1
	0x24b4		
.debug_str	0x49bfb	0x1c	sdk\libs\txm_lib.lib(txm_module_callback_request_thread_entry.o)	#SHT_PROGBITS,SHF_MERGE|SHF_STRINGS,1
	0x24d0		
.debug_str	0x49c17	0x1c	sdk\libs\txm_lib.lib(txm_module_callback_request_thread_entry.o)	#SHT_PROGBITS,SHF_MERGE|SHF_STRINGS,1
	0x24ec		
.debug_str	0x49c33	0x1c	sdk\libs\txm_lib.lib(txm_module_callback_request_thread_entry.o)	#SHT_PROGBITS,SHF_MERGE|SHF_STRINGS,1
	0x2508		
.debug_str	0x49c4f	0x1c	sdk\libs\txm_lib.lib(txm_module_callback_request_thread_entry.o)	#SHT_PROGBITS,SHF_MERGE|SHF_STRINGS,1
	0x2524		
.debug_str	0x49c6b	0x1c	sdk\libs\txm_lib.lib(txm_module_callback_request_thread_entry.o)	#SHT_PROGBITS,SHF_MERGE|SHF_STRINGS,1
	0x2540		
.debug_str	0x49c87	0x1b	sdk\libs\txm_lib.lib(txm_module_callback_request_thread_entry.o)	#SHT_PROGBITS,SHF_MERGE|SHF_STRINGS,1
	0x255c		
.debug_str	0x49ca2	0x14	sdk\libs\txm_lib.lib(txm_module_callback_request_thread_entry.o)	#SHT_PROGBITS,SHF_MERGE|SHF_STRINGS,1
	0x2577		
.debug_str	0x49cb6	0x30	sdk\libs\txm_lib.lib(txm_module_callback_request_thread_entry.o)	#SHT_PROGBITS,SHF_MERGE|SHF_STRINGS,1
	0x258b		
.debug_str	0x49ce6	0x23	sdk\libs\txm_lib.lib(txm_module_callback_request_thread_entry.o)	#SHT_PROGBITS,SHF_MERGE|SHF_STRINGS,1
	0x25bb		
.debug_str	0x49d09	0x23	sdk\libs\txm_lib.lib(txm_module_callback_request_thread_entry.o)	#SHT_PROGBITS,SHF_MERGE|SHF_STRINGS,1
	0x25de		
.debug_str	0x49d2c	0x20	sdk\libs\txm_lib.lib(txm_module_callback_request_thread_entry.o)	#SHT_PROGBITS,SHF_MERGE|SHF_STRINGS,1
	0x2601		
.debug_str	0x49d4c	0x29	sdk\libs\txm_lib.lib(txm_module_callback_request_thread_entry.o)	#SHT_PROGBITS,SHF_MERGE|SHF_STRINGS,1
	0x2621		
.debug_str	0x49d75	0x25	sdk\libs\txm_lib.lib(txm_module_callback_request_thread_entry.o)	#SHT_PROGBITS,SHF_MERGE|SHF_STRINGS,1
	0x264a		
.debug_str	0x49d9a	0x25	sdk\libs\txm_lib.lib(txm_module_callback_request_thread_entry.o)	#SHT_PROGBITS,SHF_MERGE|SHF_STRINGS,1
	0x266f		
.debug_str	0x49dbf	0x28	sdk\libs\txm_lib.lib(txm_module_callback_request_thread_entry.o)	#SHT_PROGBITS,SHF_MERGE|SHF_STRINGS,1
	0x2694		
.debug_str	0x49de7	0x2c	sdk\libs\txm_lib.lib(txm_module_callback_request_thread_entry.o)	#SHT_PROGBITS,SHF_MERGE|SHF_STRINGS,1
	0x26bc		
.debug_str	0x49e13	0x23	sdk\libs\txm_lib.lib(txm_module_callback_request_thread_entry.o)	#SHT_PROGBITS,SHF_MERGE|SHF_STRINGS,1
	0x26e8		
.debug_str	0x49e36	0x23	sdk\libs\txm_lib.lib(txm_module_callback_request_thread_entry.o)	#SHT_PROGBITS,SHF_MERGE|SHF_STRINGS,1
	0x270b		
.debug_str	0x49e59	0x23	sdk\libs\txm_lib.lib(txm_module_callback_request_thread_entry.o)	#SHT_PROGBITS,SHF_MERGE|SHF_STRINGS,1
	0x272e		
.debug_str	0x49e7c	0x23	sdk\libs\txm_lib.lib(txm_module_callback_request_thread_entry.o)	#SHT_PROGBITS,SHF_MERGE|SHF_STRINGS,1
	0x2751		
.debug_str	0x49e9f	0x23	sdk\libs\txm_lib.lib(txm_module_callback_request_thread_entry.o)	#SHT_PROGBITS,SHF_MERGE|SHF_STRINGS,1
	0x2774		
.debug_str	0x49ec2	0x23	sdk\libs\txm_lib.lib(txm_module_callback_request_thread_entry.o)	#SHT_PROGBITS,SHF_MERGE|SHF_STRINGS,1
	0x2797		
.debug_str	0x49ee5	0x22	sdk\libs\txm_lib.lib(txm_module_callback_request_thread_entry.o)	#SHT_PROGBITS,SHF_MERGE|SHF_STRINGS,1
	0x27ba		
.debug_str	0x49f07	0x1b	sdk\libs\txm_lib.lib(txm_module_callback_request_thread_entry.o)	#SHT_PROGBITS,SHF_MERGE|SHF_STRINGS,1
	0x27dc		
.debug_str	0x49f22	0x12	sdk\libs\txm_lib.lib(txm_module_callback_request_thread_entry.o)	#SHT_PROGBITS,SHF_MERGE|SHF_STRINGS,1
	0x27f7		
.debug_str	0x49f34	0x15	sdk\libs\txm_lib.lib(txm_module_callback_request_thread_entry.o)	#SHT_PROGBITS,SHF_MERGE|SHF_STRINGS,1
	0x2809		
.debug_str	0x49f49	0x12	sdk\libs\txm_lib.lib(txm_module_callback_request_thread_entry.o)	#SHT_PROGBITS,SHF_MERGE|SHF_STRINGS,1
	0x281e		
.debug_str	0x49f5b	0xa4	sdk\libs\txm_lib.lib(txm_module_system_call11.o)	#SHT_PROGBITS,SHF_MERGE|SHF_STRINGS,1
	0x2830		
.debug_str	0x49fff	0x1a	sdk\libs\txm_lib.lib(txm_module_system_call11.o)	#SHT_PROGBITS,SHF_MERGE|SHF_STRINGS,1
	0x28d4		
.debug_str	0x4a019	0x11	sdk\libs\txm_lib.lib(txm_module_system_call11.o)	#SHT_PROGBITS,SHF_MERGE|SHF_STRINGS,1
	0x28ee		
.debug_str	0x4a02a	0x8	sdk\libs\txm_lib.lib(txm_module_system_call11.o)	#SHT_PROGBITS,SHF_MERGE|SHF_STRINGS,1
	0x28ff		
.debug_str	0x4a032	0x8	sdk\libs\txm_lib.lib(txm_module_system_call11.o)	#SHT_PROGBITS,SHF_MERGE|SHF_STRINGS,1
	0x2907		
.debug_str	0x4a03a	0x8	sdk\libs\txm_lib.lib(txm_module_system_call11.o)	#SHT_PROGBITS,SHF_MERGE|SHF_STRINGS,1
	0x290f		
.debug_str	0x4a042	0x8	sdk\libs\txm_lib.lib(txm_module_system_call11.o)	#SHT_PROGBITS,SHF_MERGE|SHF_STRINGS,1
	0x2917		
.debug_str	0x4a04a	0x8	sdk\libs\txm_lib.lib(txm_module_system_call11.o)	#SHT_PROGBITS,SHF_MERGE|SHF_STRINGS,1
	0x291f		
.debug_str	0x4a052	0x8	sdk\libs\txm_lib.lib(txm_module_system_call11.o)	#SHT_PROGBITS,SHF_MERGE|SHF_STRINGS,1
	0x2927		
.debug_str	0x4a05a	0x8	sdk\libs\txm_lib.lib(txm_module_system_call11.o)	#SHT_PROGBITS,SHF_MERGE|SHF_STRINGS,1
	0x292f		
.debug_str	0x4a062	0x8	sdk\libs\txm_lib.lib(txm_module_system_call11.o)	#SHT_PROGBITS,SHF_MERGE|SHF_STRINGS,1
	0x2937		
.debug_str	0x4a06a	0x8	sdk\libs\txm_lib.lib(txm_module_system_call11.o)	#SHT_PROGBITS,SHF_MERGE|SHF_STRINGS,1
	0x293f		
.debug_str	0x4a072	0x8	sdk\libs\txm_lib.lib(txm_module_system_call11.o)	#SHT_PROGBITS,SHF_MERGE|SHF_STRINGS,1
	0x2947		
.debug_str	0x4a07a	0x9	sdk\libs\txm_lib.lib(txm_module_system_call11.o)	#SHT_PROGBITS,SHF_MERGE|SHF_STRINGS,1
	0x294f		
.debug_str	0x4a083	0x9	sdk\libs\txm_lib.lib(txm_module_system_call11.o)	#SHT_PROGBITS,SHF_MERGE|SHF_STRINGS,1
	0x2958		
.debug_str	0x4a08c	0xd	sdk\libs\txm_lib.lib(txm_module_system_call11.o)	#SHT_PROGBITS,SHF_MERGE|SHF_STRINGS,1
	0x2961		
.debug_str	0x4a099	0xa4	sdk\libs\txm_lib.lib(txm_module_system_call12.o)	#SHT_PROGBITS,SHF_MERGE|SHF_STRINGS,1
	0x296e		
.debug_str	0x4a13d	0x1a	sdk\libs\txm_lib.lib(txm_module_system_call12.o)	#SHT_PROGBITS,SHF_MERGE|SHF_STRINGS,1
	0x2a12		
.debug_str	0x4a157	0x9	sdk\libs\txm_lib.lib(txm_module_system_call12.o)	#SHT_PROGBITS,SHF_MERGE|SHF_STRINGS,1
	0x2a2c		
.debug_str	0x4a160	0xa3	sdk\libs\txm_lib.lib(txm_module_system_call4.o)	#SHT_PROGBITS,SHF_MERGE|SHF_STRINGS,1
	0x2a35		
.debug_str	0x4a203	0x19	sdk\libs\txm_lib.lib(txm_module_system_call4.o)	#SHT_PROGBITS,SHF_MERGE|SHF_STRINGS,1
	0x2ad8		
.debug_str	0x4a21c	0xa3	sdk\libs\txm_lib.lib(txm_module_system_call5.o)	#SHT_PROGBITS,SHF_MERGE|SHF_STRINGS,1
	0x2af1		
.debug_str	0x4a2bf	0x19	sdk\libs\txm_lib.lib(txm_module_system_call5.o)	#SHT_PROGBITS,SHF_MERGE|SHF_STRINGS,1
	0x2b94		
.debug_str	0x4a2d8	0xa3	sdk\libs\txm_lib.lib(txm_module_system_call6.o)	#SHT_PROGBITS,SHF_MERGE|SHF_STRINGS,1
	0x2bad		
.debug_str	0x4a37b	0x19	sdk\libs\txm_lib.lib(txm_module_system_call6.o)	#SHT_PROGBITS,SHF_MERGE|SHF_STRINGS,1
	0x2c50		
.debug_str	0x4a394	0xa3	sdk\libs\txm_lib.lib(txm_module_system_call7.o)	#SHT_PROGBITS,SHF_MERGE|SHF_STRINGS,1
	0x2c69		
.debug_str	0x4a437	0x19	sdk\libs\txm_lib.lib(txm_module_system_call7.o)	#SHT_PROGBITS,SHF_MERGE|SHF_STRINGS,1
	0x2d0c		
.debug_str	0x4a450	0xa3	sdk\libs\txm_lib.lib(txm_module_system_call8.o)	#SHT_PROGBITS,SHF_MERGE|SHF_STRINGS,1
	0x2d25		
.debug_str	0x4a4f3	0x19	sdk\libs\txm_lib.lib(txm_module_system_call8.o)	#SHT_PROGBITS,SHF_MERGE|SHF_STRINGS,1
	0x2dc8		

.debug_loc	0x4a50c	0x8df # Offset: 0x4a50c
*(.debug_loc )
.debug_loc	0x4a50c	0x30c	sdk\libs\timer_dam_lib.lib(qapi_timer_user.o)	#SHT_PROGBITS,,1
.debug_loc	0x4a818	0x3c	sdk\libs\txm_lib.lib(txm_module_thread_shell_entry.o)	#SHT_PROGBITS,,1
.debug_loc	0x4a854	0x75	sdk\libs\txm_lib.lib(txm_module_callback_request_thread_entry.o)	#SHT_PROGBITS,,1
.debug_loc	0x4a8c9	0x103	sdk\libs\txm_lib.lib(txm_module_system_call11.o)	#SHT_PROGBITS,,1
.debug_loc	0x4a9cc	0x118	sdk\libs\txm_lib.lib(txm_module_system_call12.o)	#SHT_PROGBITS,,1
.debug_loc	0x4aae4	0x73	sdk\libs\txm_lib.lib(txm_module_system_call4.o)	#SHT_PROGBITS,,1
.debug_loc	0x4ab57	0x87	sdk\libs\txm_lib.lib(txm_module_system_call5.o)	#SHT_PROGBITS,,1
.debug_loc	0x4abde	0x9b	sdk\libs\txm_lib.lib(txm_module_system_call6.o)	#SHT_PROGBITS,,1
.debug_loc	0x4ac79	0xaf	sdk\libs\txm_lib.lib(txm_module_system_call7.o)	#SHT_PROGBITS,,1
.debug_loc	0x4ad28	0xc3	sdk\libs\txm_lib.lib(txm_module_system_call8.o)	#SHT_PROGBITS,,1

.debug_macinfo	0x4adeb	0xa # Offset: 0x4adeb
*(.debug_macinfo )
.debug_macinfo	0x4adeb	0x1	sdk\libs\timer_dam_lib.lib(qapi_timer_user.o)	#SHT_PROGBITS,,1
.debug_macinfo	0x4adec	0x1	sdk\libs\txm_lib.lib(txm_module_thread_shell_entry.o)	#SHT_PROGBITS,,1
.debug_macinfo	0x4aded	0x1	sdk\libs\txm_lib.lib(txm_module_callback_request_thread_entry.o)	#SHT_PROGBITS,,1
.debug_macinfo	0x4adee	0x1	sdk\libs\txm_lib.lib(txm_module_system_call11.o)	#SHT_PROGBITS,,1
.debug_macinfo	0x4adef	0x1	sdk\libs\txm_lib.lib(txm_module_system_call12.o)	#SHT_PROGBITS,,1
.debug_macinfo	0x4adf0	0x1	sdk\libs\txm_lib.lib(txm_module_system_call4.o)	#SHT_PROGBITS,,1
.debug_macinfo	0x4adf1	0x1	sdk\libs\txm_lib.lib(txm_module_system_call5.o)	#SHT_PROGBITS,,1
.debug_macinfo	0x4adf2	0x1	sdk\libs\txm_lib.lib(txm_module_system_call6.o)	#SHT_PROGBITS,,1
.debug_macinfo	0x4adf3	0x1	sdk\libs\txm_lib.lib(txm_module_system_call7.o)	#SHT_PROGBITS,,1
.debug_macinfo	0x4adf4	0x1	sdk\libs\txm_lib.lib(txm_module_system_call8.o)	#SHT_PROGBITS,,1

.debug_weaknames	0x4adf5	0x0 # Offset: 0x4adf5

.debug_funcnames	0x4adf5	0x0 # Offset: 0x4adf5

.debug_typenames	0x4adf5	0x0 # Offset: 0x4adf5

.debug_varnames	0x4adf5	0x0 # Offset: 0x4adf5

.debug_pubtypes	0x4adf5	0x88e # Offset: 0x4adf5
*(.debug_pubtypes )
.debug_pubtypes	0x4adf5	0x2bb	sdk\libs\timer_dam_lib.lib(qapi_timer_user.o)	#SHT_PROGBITS,,1
.debug_pubtypes	0x4b0b0	0x1e2	sdk\libs\txm_lib.lib(txm_module_thread_shell_entry.o)	#SHT_PROGBITS,,1
.debug_pubtypes	0x4b292	0x293	sdk\libs\txm_lib.lib(txm_module_callback_request_thread_entry.o)	#SHT_PROGBITS,,1
.debug_pubtypes	0x4b525	0x32	sdk\libs\txm_lib.lib(txm_module_system_call11.o)	#SHT_PROGBITS,,1
.debug_pubtypes	0x4b557	0x32	sdk\libs\txm_lib.lib(txm_module_system_call12.o)	#SHT_PROGBITS,,1
.debug_pubtypes	0x4b589	0x32	sdk\libs\txm_lib.lib(txm_module_system_call4.o)	#SHT_PROGBITS,,1
.debug_pubtypes	0x4b5bb	0x32	sdk\libs\txm_lib.lib(txm_module_system_call5.o)	#SHT_PROGBITS,,1
.debug_pubtypes	0x4b5ed	0x32	sdk\libs\txm_lib.lib(txm_module_system_call6.o)	#SHT_PROGBITS,,1
.debug_pubtypes	0x4b61f	0x32	sdk\libs\txm_lib.lib(txm_module_system_call7.o)	#SHT_PROGBITS,,1
.debug_pubtypes	0x4b651	0x32	sdk\libs\txm_lib.lib(txm_module_system_call8.o)	#SHT_PROGBITS,,1

.debug_ranges	0x4b683	0x58 # Offset: 0x4b683
*(.debug_ranges )
.debug_ranges	0x4b683	0x58	sdk\libs\timer_dam_lib.lib(qapi_timer_user.o)	#SHT_PROGBITS,,1

.gnu.attributes	0x0	0x0 # Offset: 0x4b6db, LMA: 0x0

.note.gnu.arm.ident	0x0	0x0 # Offset: 0x4b6db, LMA: 0x0

.ARM.attributes	0x4b6db	0x10 # Offset: 0x4b6db

.comment	0x4b6eb	0x65 # Offset: 0x4b6eb
.comment	0x4b6eb	0x1	D:\4.0.3\armv7m-none-eabi\libc\lib/libc.a(tolower.o)	#SHT_PROGBITS,SHF_MERGE|SHF_STRINGS,1
.comment	0x4b728	0x28	Linker Version	#SHT_PROGBITS,SHF_MERGE|SHF_STRINGS,1

.note.GNU-stack	0x4b750	0x0 # Offset: 0x4b750

/DISCARD/	0x75	0x0 # Offset: 0x4b750, LMA: 0x0

.shstrtab	0x4b750	0xcc # Offset: 0x4b750

.symtab	0x4b81c	0x12640 # Offset: 0x4b81c

.strtab	0x5de5c	0xc67f # Offset: 0x5de5c
